.constructors_used
.destructors_used
_AddFileExtent
_AllocateNode
_Assert
_BF_decrypt
_BF_encrypt
_BF_set_key
_BTClosePath
_BTDeleteRecord
_BTFlushPath
_BTGetInformation
_BTGetLastSync
_BTGetUserData
_BTInsertRecord
_BTInvalidateHint
_BTIterateRecord
_BTIterateRecords
_BTOpenPath
_BTReloadData
_BTReplaceRecord
_BTScanInitialize
_BTScanNextRecord
_BTScanTerminate
_BTSearchRecord
_BTSetLastSync
_BTSetUserData
_BTUpdateRecord
_BTZeroUnusedNodes
_BestBlockSizeFit
_BlockAllocate
_BlockDeallocate
_BlockMarkAllocated
_BlockMarkFree
_BlockMarkFreeUnused
_BootPDPT
_BootPML4
_BootPTD
_BuildCatalogKey
_BuildCatalogKeyUTF8
_CURSIG
_CalcKeyRecordSize
_CalcMapBits
_CalculateCRC
_CheckInsertParams
_ClearNode
_CompareCatalogKeys
_CompareExtendedCatalogKeys
_ConvertUnicodeToUTF8Mangled
_CopyCatalogName
_DADDR1
_DADDR2
_DMAP1
_DMAP2
_DTCreateEntryIterator
_DTCreatePropertyIterator
_DTDisposeEntryIterator
_DTDisposePropertyIterator
_DTEnterEntry
_DTEntryIsEqual
_DTExitEntry
_DTFindEntry
_DTGetProperty
_DTInit
_DTIterateEntries
_DTIterateProperties
_DTLookupEntry
_DTRestartEntryIteration
_DTRestartPropertyIteration
_DebugStr
_Debugger
_DebuggerWithContext
_DeleteOffset
_DeleteRecord
_DeleteTree
_DerivePermissionSummary
_DisposePtr
_ExchangeFileIDs
_ExtendBTree
_ExtendBTreeFile
_ExtendFileC
_FIPS_SHA1Final
_FIPS_SHA1Init
_FIPS_SHA1Update
_FastRelString
_FastUnicodeCompare
_FindIteratorPosition
_FlushCatalog
_FlushExtentFile
_FreeNode
_GetBTreeBlock
_GetChildNodeNum
_GetEmbeddedFileID
_GetFileInfo
_GetLogicalBlockSize
_GetNewNode
_GetNode
_GetNodeDataSize
_GetNodeFreeSize
_GetOffsetAddress
_GetRecordByIndex
_GetRecordSize
_GetTimeUTC
_HMAC_SHA1_DES3KD_Final
_HMAC_SHA1_DES3KD_Init
_HMAC_SHA1_DES3KD_Update
_HeadTruncateFile
_IOAlignmentToSize
_IOBSDGetPlatformSerialNumber
_IOBSDGetPlatformUUID
_IOBSDIsMediaEjectable
_IOBSDIterateMediaWithContent
_IOBSDNameMatching
_IOBSDRegistryEntryForDeviceTree
_IOBSDRegistryEntryGetData
_IOBSDRegistryEntryRelease
_IOCPURunPlatformActiveActions
_IOCPURunPlatformQuiesceActions
_IOCatalogueMatchingDriversPresent
_IOCopyLogNameForPID
_IOCreateThread
_IODTFreeLoaderInfo
_IODTGetDefault
_IODTGetLoaderInfo
_IODefaultCacheBits
_IODelay
_IOExitThread
_IOFindBSDRoot
_IOFindNameForValue
_IOFindValueForName
_IOFlushProcessorCache
_IOFree
_IOFreeAligned
_IOFreeContiguous
_IOFreePageable
_IOGetBootKeyStoreData
_IOGetLastPageNumber
_IOGetTime
_IOHibernateIOKitSleep
_IOHibernateSetWakeCapabilities
_IOHibernateSystemHasSlept
_IOHibernateSystemInit
_IOHibernateSystemPostWake
_IOHibernateSystemRestart
_IOHibernateSystemSleep
_IOHibernateSystemWake
_IOHibernateWasScreenLocked
_IOIteratePageableMaps
_IOKernelAllocateWithPhysicalRestrict
_IOKernelFreePhysical
_IOKitBSDInit
_IOKitInitializeTime
_IOKitResetTime
_IOLibInit
_IOLockAlloc
_IOLockFree
_IOLockGetMachLock
_IOLockGroup
_IOLockInitWithState
_IOLockSleep
_IOLockSleepDeadline
_IOLockWakeup
_IOLog
_IOLogv
_IOMalloc
_IOMallocAligned
_IOMallocContiguous
_IOMallocPageable
_IOMapPages
_IOMappedRead16
_IOMappedRead32
_IOMappedRead64
_IOMappedRead8
_IOMappedWrite16
_IOMappedWrite32
_IOMappedWrite64
_IOMappedWrite8
_IOMapperIOVMAlloc
_IOMapperIOVMFree
_IOMapperInsertPPNPages
_IOMapperInsertPage
_IOMapperInsertUPLPages
_IOMemoryDescriptorMapCopy
_IOMemoryDescriptorMapMemEntry
_IONDRVLibrariesInitialize
_IONetworkNamePrefixMatching
_IOOFPathMatching
_IOPageableMapForAddress
_IOPause
_IOPrintPlane
_IOProtectCacheMode
_IORWLockAlloc
_IORWLockFree
_IORWLockGetMachLock
_IORamDiskBSDRoot
_IORecursiveLockAlloc
_IORecursiveLockAllocWithLockGroup
_IORecursiveLockFree
_IORecursiveLockGetMachLock
_IORecursiveLockHaveLock
_IORecursiveLockLock
_IORecursiveLockSleep
_IORecursiveLockSleepDeadline
_IORecursiveLockTryLock
_IORecursiveLockUnlock
_IORecursiveLockWakeup
_IORegistrySetOSBuildVersion
_IOSecureBSDRoot
_IOServicePublishResource
_IOServiceWaitForMatchingResource
_IOSetKeyStoreData
_IOSetProcessorCacheMode
_IOSimpleLockAlloc
_IOSimpleLockFree
_IOSimpleLockGetMachLock
_IOSimpleLockInit
_IOSizeToAlignment
_IOSleep
_IOSpinUnlock
_IOSystemShutdownNotification
_IOTrySpinLock
_IOUUIDMatching
_IOUnmapPages
_IOZeroTvalspec
_IS_64BIT_PROCESS
_IdlePDPT
_IdlePML4
_IdlePTD
_InsertKeyRecord
_InsertOffset
_InsertRecord
_InsertTree
_IsItAHint
_KERNEL_AUDIT_TOKEN
_KERNEL_SECURITY_TOKEN
_KPTphys
_KUNCExecute
_KUNCGetNotificationID
_KUNCUserNotificationCancel
_KUNCUserNotificationDisplayAlert
_KUNCUserNotificationDisplayFromBundle
_KUNCUserNotificationDisplayNotice
_LastDebuggerEntryAllowance
_LcksOpts
_Load_context
_LocalToUTC
_LocateCatalogNodeByKey
_LocateCatalogRecord
_LockCompatGroup
_LockDefaultGroupAttr
_LockDefaultLckAttr
_LockTimeOut
_LockTimeOutTSC
_MCFail
_MD5Final
_MD5Init
_MD5Update
_MD5_DESCBC_Final
_MD5_DESCBC_Init
_MD5_DESCBC_Update
_MDFail
_MPFail
_MacToVFSError
_MapFileBlockC
_MetaZoneFreeBlocks
_ModifyBlockStart
_MoveData
_MutexSpin
_NDR_record
_NMIPI_acks
_NMI_count
_NMI_cpus
_NewPtr
_NewPtrSysClear
_NodesAreContiguous
_OSAddAtomic
_OSAddAtomic16
_OSAddAtomic64
_OSAddAtomic8
_OSAddAtomicLong
_OSBacktrace
_OSBitAndAtomic
_OSBitAndAtomic16
_OSBitAndAtomic8
_OSBitOrAtomic
_OSBitOrAtomic16
_OSBitOrAtomic8
_OSBitXorAtomic
_OSBitXorAtomic16
_OSBitXorAtomic8
_OSCompareAndSwap
_OSCompareAndSwap64
_OSCompareAndSwapPtr
_OSDecrementAtomic
_OSDecrementAtomic16
_OSDecrementAtomic8
_OSFree
_OSIncrementAtomic
_OSIncrementAtomic16
_OSIncrementAtomic8
_OSKernelStackRemaining
_OSKextCancelRequest
_OSKextGetLoadTagForIdentifier
_OSKextLoadKextWithIdentifier
_OSKextLoadedKextSummariesUpdated
_OSKextLog
_OSKextParseVersionString
_OSKextRegisterKextsWithDTrace
_OSKextReleaseKextWithLoadTag
_OSKextRemoveKextBootstrap
_OSKextRequestResource
_OSKextRetainKextWithLoadTag
_OSKextSystemSleepOrWake
_OSKextUnloadKextWithLoadTag
_OSKextVLog
_OSKextVersionGetString
_OSMalloc
_OSMalloc_Tagalloc
_OSMalloc_Tagfree
_OSMalloc_Tagref
_OSMalloc_Tagrele
_OSMalloc_init
_OSMalloc_noblock
_OSMalloc_nowait
_OSMalloc_tag_lck_grp
_OSMalloc_tag_lock
_OSPrintBacktrace
_OSPrintMemory
_OSReportWithBacktrace
_OSRuntimeFinalizeCPP
_OSRuntimeInitializeCPP
_OSRuntimeUnloadCPP
_OSRuntimeUnloadCPPForSegment
_OSRuntimeUnloadCPPForSegmentInKmod
_OSSpinLockTry
_OSSpinLockUnlock
_OSTestAndClear
_OSTestAndSet
_OSUnserializechar
_OSUnserializelval
_OSUnserializenerrs
_OSlibkernInit
_PEGetGMTTimeOfDay
_PEGetMachineName
_PEGetModelName
_PEGetPlatformEpoch
_PEHaltRestart
_PEReadNVRAMProperty
_PERemoveNVRAMProperty
_PESavePanicInfo
_PESetGMTTimeOfDay
_PEWriteNVRAMProperty
_PE_boot_args
_PE_call_timebase_callback
_PE_cpu_halt
_PE_cpu_machine_init
_PE_cpu_machine_quiesce
_PE_cpu_signal
_PE_cpu_start
_PE_create_console
_PE_current_console
_PE_display_icon
_PE_enter_debugger
_PE_get_default
_PE_get_hotkey
_PE_halt_restart
_PE_imgsrc_mount_supported
_PE_incoming_interrupt
_PE_init_iokit
_PE_init_kprintf
_PE_init_platform
_PE_init_printf
_PE_initialize_console
_PE_install_interrupt_handler
_PE_interrupt_handler
_PE_kputc
_PE_parse_boot_argn
_PE_poll_input
_PE_putc
_PE_reboot_on_panic
_PE_register_timebase_callback
_PE_state
_PM_interrupt_register
_PRIV_POLICY_CHOICE
_PRIV_POLICY_ONLY
_PreliminarySetup
_RAW_file_offset
_RAW_file_written
_RandomULong
_ReleaseBTreeBlock
_ReleaseNode
_ReplaceBTreeRecord
_ResetVCBFreeExtCache
_SHA1Final
_SHA1Final_r
_SHA1Init
_SHA1Update
_SHA1UpdateUsePhysicalAddress
_SHA256_Final
_SHA256_Init
_SHA256_Update
_SHA384_Final
_SHA384_Init
_SHA384_Update
_SHA512_Final
_SHA512_Init
_SHA512_Update
_SPECHASH_LOCK
_SPECHASH_UNLOCK
_STRDUP
_SearchNode
_SearchTree
_SetBTreeBlockSize
_Shutdown_context
_StartIOKit
_Switch_context
_THIS_PROCESS_IS_CAUSING_TOO_MANY_WAKEUPS__SENDING_EXC_RESOURCE
_THIS_THREAD_IS_CONSUMING_TOO_MUCH_CPU__SENDING_EXC_RESOURCE
_TRAP_TYPES
_TSC_sync_margin
_Thread_continue
_TrashNode
_TruncateFileC
_TrySimpleReplace
_UBCINFOEXISTS
_UNDAlertCompletedWithResult_rpc
_UNDCancelNotification_rpc
_UNDDisplayAlertFromBundle_rpc
_UNDDisplayAlertSimple_rpc
_UNDDisplayCustomFromBundle_rpc
_UNDDisplayNoticeFromBundle_rpc
_UNDDisplayNoticeSimple_rpc
_UNDExecute_rpc
_UNDNotificationCreated_rpc
_UNDReply_deallocate
_UNDReply_server
_UNDReply_server_routine
_UNDReply_subsystem
_UTCToLocal
_UnicodeBinaryCompare
_UpdateCatalogName
_UpdateHeader
_UpdateNode
_VFS_FHTOVP
_VFS_GETATTR
_VFS_MOUNT
_VFS_QUOTACTL
_VFS_ROOT
_VFS_SETATTR
_VFS_START
_VFS_SYNC
_VFS_UNMOUNT
_VFS_VGET
_VFS_VPTOFH
_VNOP_ACCESS
_VNOP_ADVLOCK
_VNOP_ALLOCATE
_VNOP_BLKTOOFF
_VNOP_BLOCKMAP
_VNOP_BWRITE
_VNOP_CLOSE
_VNOP_COMPOUND_MKDIR
_VNOP_COMPOUND_OPEN
_VNOP_COMPOUND_REMOVE
_VNOP_COMPOUND_RENAME
_VNOP_COMPOUND_RMDIR
_VNOP_COPYFILE
_VNOP_CREATE
_VNOP_EXCHANGE
_VNOP_FSYNC
_VNOP_GETATTR
_VNOP_GETNAMEDSTREAM
_VNOP_GETXATTR
_VNOP_INACTIVE
_VNOP_IOCTL
_VNOP_KQFILT_ADD
_VNOP_KQFILT_REMOVE
_VNOP_LINK
_VNOP_LISTXATTR
_VNOP_LOOKUP
_VNOP_MAKENAMEDSTREAM
_VNOP_MKDIR
_VNOP_MKNOD
_VNOP_MMAP
_VNOP_MNOMAP
_VNOP_MONITOR
_VNOP_OFFTOBLK
_VNOP_OPEN
_VNOP_PAGEIN
_VNOP_PAGEOUT
_VNOP_PATHCONF
_VNOP_READ
_VNOP_READDIR
_VNOP_READDIRATTR
_VNOP_READLINK
_VNOP_RECLAIM
_VNOP_REMOVE
_VNOP_REMOVENAMEDSTREAM
_VNOP_REMOVEXATTR
_VNOP_RENAME
_VNOP_REVOKE
_VNOP_RMDIR
_VNOP_SEARCHFS
_VNOP_SELECT
_VNOP_SETATTR
_VNOP_SETLABEL
_VNOP_SETXATTR
_VNOP_STRATEGY
_VNOP_SYMLINK
_VNOP_WHITEOUT
_VNOP_WRITE
_VerifyHeader
_WKdm_compress_new
_WKdm_decompress_new
__FREE
__FREE_ZONE
__MALLOC
__MALLOC_ZONE
__MachineStateCount
__REALLOC
__Z13OSUnserializePKcPP8OSString
__Z13kern_allocatemP19kxld_allocate_flagsPv
__Z16IOCPUSleepKernelv
__Z16IODTFindSlotNameP15IORegistryEntryj
__Z16IODTSetResolvingP15IORegistryEntryPFijPjS1_EPFvS0_PhS4_S4_E
__Z16IOPolledFileOpenPKcyP24IOBufferMemoryDescriptorPP18IOPolledFileIOVarsPP6OSDataS8_Ph
__Z16OSUnserializeXMLPKcPP8OSString
__Z16OSUnserializeXMLPKcmPP8OSString
__Z17IODTGetCellCountsP15IORegistryEntryPjS1_
__Z17IODTMapInterruptsP15IORegistryEntry
__Z17IODeviceTreeAllocPv
__Z17IOPolledFileCloseP18IOPolledFileIOVars
__Z17IOServiceOrderingPK15OSMetaClassBaseS1_Pv
__Z17kxld_log_callback18kxld_log_subsystem14kxld_log_levelPKcP13__va_list_tagPv
__Z18IODTCompareNubNamePK15IORegistryEntryP8OSStringPS3_
__Z18OSUnserializeparsev
__Z19printDictionaryKeysP12OSDictionaryPc
__Z20IODTMakeNVDescriptorP15IORegistryEntryP17IONVRAMDescriptor
__Z20IODTMatchNubWithKeysP15IORegistryEntryPKc
__Z21IODTResolveAddressingP15IORegistryEntryPKcP14IODeviceMemory
__Z21OSUnserializeXMLparsePv
__Z22IODTResolveAddressCellP15IORegistryEntryPjPyS2_
__Z22OSFlushObjectTrackListv
__Z22_OSKextConsiderUnloadsPvS_
__Z23IODTFindMatchingEntriesP15IORegistryEntryjPKc
__Z23IODTGetInterruptOptionsP15IORegistryEntryiPj
__Z25iocpu_add_platform_actionP11queue_entryP27iocpu_platform_action_entry
__Z26iocpu_run_platform_actionsP11queue_entryjjPvS1_S1_
__Z27IODTInterruptControllerNameP15IORegistryEntry
__Z28iocpu_remove_platform_actionP27iocpu_platform_action_entry
__Z30iocpu_platform_cpu_action_initP11queue_entryS0_
__Z31iocpu_get_platform_active_queuev
__Z32iocpu_get_platform_quiesce_queuev
__ZN10IOMachPort10gMetaClassE
__ZN10IOMachPort10superClassE
__ZN10IOMachPort11dictForTypeEj
__ZN10IOMachPort13portForObjectEP8OSObjectj
__ZN10IOMachPort14setHoldDestroyEP8OSObjectj
__ZN10IOMachPort20makeSendRightForTaskEP4taskP8OSObjectj
__ZN10IOMachPort20releasePortForObjectEP8OSObjectj
__ZN10IOMachPort22noMoreSendersForObjectEP8OSObjectjPj
__ZN10IOMachPort4freeEv
__ZN10IOMachPort9MetaClassC1Ev
__ZN10IOMachPort9MetaClassC2Ev
__ZN10IOMachPort9metaClassE
__ZN10IOMachPortC1EPK11OSMetaClass
__ZN10IOMachPortC1Ev
__ZN10IOMachPortC2EPK11OSMetaClass
__ZN10IOMachPortC2Ev
__ZN10IOMachPortD0Ev
__ZN10IOMachPortD1Ev
__ZN10IOMachPortD2Ev
__ZN10IONotifier10gMetaClassE
__ZN10IONotifier10superClassE
__ZN10IONotifier9MetaClassC1Ev
__ZN10IONotifier9MetaClassC2Ev
__ZN10IONotifier9metaClassE
__ZN10IONotifierC2EPK11OSMetaClass
__ZN10IONotifierD0Ev
__ZN10IONotifierD1Ev
__ZN10IONotifierD2Ev
__ZN10IOWorkLoop10gMetaClassE
__ZN10IOWorkLoop10superClassE
__ZN10IOWorkLoop10threadMainEv
__ZN10IOWorkLoop10wakeupGateEPvb
__ZN10IOWorkLoop12tryCloseGateEv
__ZN10IOWorkLoop13_maintRequestEPvS0_S0_S0_
__ZN10IOWorkLoop14addEventSourceEP13IOEventSource
__ZN10IOWorkLoop15runEventSourcesEv
__ZN10IOWorkLoop17removeEventSourceEP13IOEventSource
__ZN10IOWorkLoop19signalWorkAvailableEv
__ZN10IOWorkLoop19workLoopWithOptionsEj
__ZN10IOWorkLoop20_RESERVEDIOWorkLoop0Ev
__ZN10IOWorkLoop20_RESERVEDIOWorkLoop1Ev
__ZN10IOWorkLoop20_RESERVEDIOWorkLoop2Ev
__ZN10IOWorkLoop20_RESERVEDIOWorkLoop3Ev
__ZN10IOWorkLoop20_RESERVEDIOWorkLoop4Ev
__ZN10IOWorkLoop20_RESERVEDIOWorkLoop5Ev
__ZN10IOWorkLoop20_RESERVEDIOWorkLoop6Ev
__ZN10IOWorkLoop20_RESERVEDIOWorkLoop7Ev
__ZN10IOWorkLoop23eventSourcePerformsWorkEP13IOEventSource
__ZN10IOWorkLoop4freeEv
__ZN10IOWorkLoop4initEv
__ZN10IOWorkLoop8openGateEv
__ZN10IOWorkLoop8workLoopEv
__ZN10IOWorkLoop9MetaClassC1Ev
__ZN10IOWorkLoop9MetaClassC2Ev
__ZN10IOWorkLoop9closeGateEv
__ZN10IOWorkLoop9metaClassE
__ZN10IOWorkLoop9runActionEPFiP8OSObjectPvS2_S2_S2_ES1_S2_S2_S2_S2_
__ZN10IOWorkLoop9sleepGateEPvj
__ZN10IOWorkLoop9sleepGateEPvyj
__ZN10IOWorkLoopC1EPK11OSMetaClass
__ZN10IOWorkLoopC1Ev
__ZN10IOWorkLoopC2EPK11OSMetaClass
__ZN10IOWorkLoopC2Ev
__ZN10IOWorkLoopD0Ev
__ZN10IOWorkLoopD1Ev
__ZN10IOWorkLoopD2Ev
__ZN10OSIterator10gMetaClassE
__ZN10OSIterator10superClassE
__ZN10OSIterator20_RESERVEDOSIterator0Ev
__ZN10OSIterator20_RESERVEDOSIterator1Ev
__ZN10OSIterator20_RESERVEDOSIterator2Ev
__ZN10OSIterator20_RESERVEDOSIterator3Ev
__ZN10OSIterator9MetaClassC1Ev
__ZN10OSIterator9MetaClassC2Ev
__ZN10OSIterator9metaClassE
__ZN10OSIteratorC2EPK11OSMetaClass
__ZN10OSIteratorD0Ev
__ZN10OSIteratorD1Ev
__ZN10OSIteratorD2Ev
__ZN11IOCatalogue10addDriversEP7OSArrayb
__ZN11IOCatalogue10gMetaClassE
__ZN11IOCatalogue10initializeEv
__ZN11IOCatalogue10superClassE
__ZN11IOCatalogue11findDriversEP12OSDictionaryPi
__ZN11IOCatalogue11findDriversEP9IOServicePi
__ZN11IOCatalogue13removeDriversEP12OSDictionaryb
__ZN11IOCatalogue13startMatchingEP12OSDictionary
__ZN11IOCatalogue14_removeDriversEP12OSDictionary
__ZN11IOCatalogue14addPersonalityEP12OSDictionary
__ZN11IOCatalogue15moduleHasLoadedEP8OSString
__ZN11IOCatalogue15moduleHasLoadedEPKc
__ZN11IOCatalogue16terminateDriversEP12OSDictionary
__ZN11IOCatalogue17_terminateDriversEP12OSDictionary
__ZN11IOCatalogue18resetAndAddDriversEP7OSArrayb
__ZN11IOCatalogue19arrayForPersonalityEP12OSDictionary
__ZN11IOCatalogue25terminateDriversForModuleEP8OSStringb
__ZN11IOCatalogue25terminateDriversForModuleEPKcb
__ZN11IOCatalogue4freeEv
__ZN11IOCatalogue4initEP7OSArray
__ZN11IOCatalogue5resetEv
__ZN11IOCatalogue9MetaClassC1Ev
__ZN11IOCatalogue9MetaClassC2Ev
__ZN11IOCatalogue9metaClassE
__ZN11IOCatalogueC1EPK11OSMetaClass
__ZN11IOCatalogueC1Ev
__ZN11IOCatalogueC2EPK11OSMetaClass
__ZN11IOCatalogueC2Ev
__ZN11IOCatalogueD0Ev
__ZN11IOCatalogueD1Ev
__ZN11IOCatalogueD2Ev
__ZN11IODataQueue10gMetaClassE
__ZN11IODataQueue10superClassE
__ZN11IODataQueue11withEntriesEjj
__ZN11IODataQueue12withCapacityEj
__ZN11IODataQueue15initWithEntriesEjj
__ZN11IODataQueue16initWithCapacityEj
__ZN11IODataQueue19getMemoryDescriptorEv
__ZN11IODataQueue19setNotificationPortEP8ipc_port
__ZN11IODataQueue29sendDataAvailableNotificationEv
__ZN11IODataQueue4freeEv
__ZN11IODataQueue7enqueueEPvj
__ZN11IODataQueue9MetaClassC1Ev
__ZN11IODataQueue9MetaClassC2Ev
__ZN11IODataQueue9metaClassE
__ZN11IODataQueueC1EPK11OSMetaClass
__ZN11IODataQueueC1Ev
__ZN11IODataQueueC2EPK11OSMetaClass
__ZN11IODataQueueC2Ev
__ZN11IODataQueueD0Ev
__ZN11IODataQueueD1Ev
__ZN11IODataQueueD2Ev
__ZN11IOMemoryMap10gMetaClassE
__ZN11IOMemoryMap10superClassE
__ZN11IOMemoryMap13getMapOptionsEv
__ZN11IOMemoryMap14copyCompatibleEPS_
__ZN11IOMemoryMap14getAddressTaskEv
__ZN11IOMemoryMap15userClientUnmapEv
__ZN11IOMemoryMap17getVirtualAddressEv
__ZN11IOMemoryMap18getPhysicalAddressEv
__ZN11IOMemoryMap18getPhysicalSegmentEyPyj
__ZN11IOMemoryMap19getMemoryDescriptorEv
__ZN11IOMemoryMap19setMemoryDescriptorEP18IOMemoryDescriptory
__ZN11IOMemoryMap21_RESERVEDIOMemoryMap0Ev
__ZN11IOMemoryMap21_RESERVEDIOMemoryMap1Ev
__ZN11IOMemoryMap21_RESERVEDIOMemoryMap2Ev
__ZN11IOMemoryMap21_RESERVEDIOMemoryMap3Ev
__ZN11IOMemoryMap21_RESERVEDIOMemoryMap4Ev
__ZN11IOMemoryMap21_RESERVEDIOMemoryMap5Ev
__ZN11IOMemoryMap21_RESERVEDIOMemoryMap6Ev
__ZN11IOMemoryMap21_RESERVEDIOMemoryMap7Ev
__ZN11IOMemoryMap4freeEv
__ZN11IOMemoryMap4initEP4taskyjyy
__ZN11IOMemoryMap5unmapEv
__ZN11IOMemoryMap8redirectEP18IOMemoryDescriptorjy
__ZN11IOMemoryMap8redirectEP4taskb
__ZN11IOMemoryMap8taskDiedEv
__ZN11IOMemoryMap9MetaClassC1Ev
__ZN11IOMemoryMap9MetaClassC2Ev
__ZN11IOMemoryMap9getLengthEv
__ZN11IOMemoryMap9metaClassE
__ZN11IOMemoryMap9wireRangeEjyy
__ZN11IOMemoryMapC1EPK11OSMetaClass
__ZN11IOMemoryMapC1Ev
__ZN11IOMemoryMapC2EPK11OSMetaClass
__ZN11IOMemoryMapC2Ev
__ZN11IOMemoryMapD0Ev
__ZN11IOMemoryMapD1Ev
__ZN11IOMemoryMapD2Ev
__ZN11IOPMRequest10gMetaClassE
__ZN11IOPMRequest10superClassE
__ZN11IOPMRequest17attachNextRequestEPS_
__ZN11IOPMRequest17attachRootRequestEPS_
__ZN11IOPMRequest17detachNextRequestEv
__ZN11IOPMRequest17detachRootRequestEv
__ZN11IOPMRequest4initEP9IOServicej
__ZN11IOPMRequest5resetEv
__ZN11IOPMRequest6createEv
__ZN11IOPMRequest9MetaClassC1Ev
__ZN11IOPMRequest9MetaClassC2Ev
__ZN11IOPMRequest9metaClassE
__ZN11IOPMRequestC1EPK11OSMetaClass
__ZN11IOPMRequestC1Ev
__ZN11IOPMRequestC2EPK11OSMetaClass
__ZN11IOPMRequestC2Ev
__ZN11IOPMRequestD0Ev
__ZN11IOPMRequestD1Ev
__ZN11IOPMRequestD2Ev
__ZN11IOResources10gMetaClassE
__ZN11IOResources10superClassE
__ZN11IOResources13setPropertiesEP8OSObject
__ZN11IOResources18matchPropertyTableEP12OSDictionary
__ZN11IOResources4initEP12OSDictionary
__ZN11IOResources9MetaClassC1Ev
__ZN11IOResources9MetaClassC2Ev
__ZN11IOResources9metaClassE
__ZN11IOResources9resourcesEv
__ZN11IOResourcesC1EPK11OSMetaClass
__ZN11IOResourcesC1Ev
__ZN11IOResourcesC2EPK11OSMetaClass
__ZN11IOResourcesC2Ev
__ZN11IOResourcesD0Ev
__ZN11IOResourcesD1Ev
__ZN11IOResourcesD2Ev
__ZN11IOServicePM10gMetaClassE
__ZN11IOServicePM10superClassE
__ZN11IOServicePM9MetaClassC1Ev
__ZN11IOServicePM9MetaClassC2Ev
__ZN11IOServicePM9metaClassE
__ZN11IOServicePMC1EPK11OSMetaClass
__ZN11IOServicePMC1Ev
__ZN11IOServicePMC2EPK11OSMetaClass
__ZN11IOServicePMC2Ev
__ZN11IOServicePMD0Ev
__ZN11IOServicePMD1Ev
__ZN11IOServicePMD2Ev
__ZN11OSMetaClass10preModLoadEPKc
__ZN11OSMetaClass11postModLoadEPv
__ZN11OSMetaClass12checkModLoadEPv
__ZN11OSMetaClass14modHasInstanceEPKc
__ZN11OSMetaClass15considerUnloadsEv
__ZN11OSMetaClass16applyToInstancesEP12OSOrderedSetPFbPK8OSObjectPvES5_
__ZN11OSMetaClass18allocClassWithNameEPK8OSString
__ZN11OSMetaClass18allocClassWithNameEPK8OSSymbol
__ZN11OSMetaClass18allocClassWithNameEPKc
__ZN11OSMetaClass18getClassDictionaryEv
__ZN11OSMetaClass18reportModInstancesEPKc
__ZN11OSMetaClass19printInstanceCountsEv
__ZN11OSMetaClass20getMetaClassWithNameEPK8OSSymbol
__ZN11OSMetaClass21_RESERVEDOSMetaClass0Ev
__ZN11OSMetaClass21_RESERVEDOSMetaClass1Ev
__ZN11OSMetaClass21_RESERVEDOSMetaClass2Ev
__ZN11OSMetaClass21_RESERVEDOSMetaClass3Ev
__ZN11OSMetaClass21_RESERVEDOSMetaClass4Ev
__ZN11OSMetaClass21_RESERVEDOSMetaClass5Ev
__ZN11OSMetaClass21_RESERVEDOSMetaClass6Ev
__ZN11OSMetaClass21_RESERVEDOSMetaClass7Ev
__ZN11OSMetaClass21checkMetaCastWithNameEPK8OSStringPK15OSMetaClassBase
__ZN11OSMetaClass21checkMetaCastWithNameEPK8OSSymbolPK15OSMetaClassBase
__ZN11OSMetaClass21checkMetaCastWithNameEPKcPK15OSMetaClassBase
__ZN11OSMetaClass24serializeClassDictionaryEP12OSDictionary
__ZN11OSMetaClass27applyToInstancesOfClassNameEPK8OSSymbolPFbPK8OSObjectPvES6_
__ZN11OSMetaClass8logErrorEi
__ZN11OSMetaClass9metaClassE
__ZN11OSMetaClassC2EPKcPKS_j
__ZN11OSMetaClassD0Ev
__ZN11OSMetaClassD1Ev
__ZN11OSMetaClassD2Ev
__ZN11OSMetaClassdlEPvm
__ZN11OSMetaClassnwEm
__ZN11OSSerialize10gMetaClassE
__ZN11OSSerialize10superClassE
__ZN11OSSerialize12addXMLEndTagEPKc
__ZN11OSSerialize12withCapacityEj
__ZN11OSSerialize14addXMLStartTagEPK15OSMetaClassBasePKc
__ZN11OSSerialize14ensureCapacityEj
__ZN11OSSerialize16initWithCapacityEj
__ZN11OSSerialize20previouslySerializedEPK15OSMetaClassBase
__ZN11OSSerialize20setCapacityIncrementEj
__ZN11OSSerialize21_RESERVEDOSSerialize0Ev
__ZN11OSSerialize21_RESERVEDOSSerialize1Ev
__ZN11OSSerialize21_RESERVEDOSSerialize2Ev
__ZN11OSSerialize21_RESERVEDOSSerialize3Ev
__ZN11OSSerialize21_RESERVEDOSSerialize4Ev
__ZN11OSSerialize21_RESERVEDOSSerialize5Ev
__ZN11OSSerialize21_RESERVEDOSSerialize6Ev
__ZN11OSSerialize21_RESERVEDOSSerialize7Ev
__ZN11OSSerialize4freeEv
__ZN11OSSerialize7addCharEc
__ZN11OSSerialize9MetaClassC1Ev
__ZN11OSSerialize9MetaClassC2Ev
__ZN11OSSerialize9addStringEPKc
__ZN11OSSerialize9clearTextEv
__ZN11OSSerialize9metaClassE
__ZN11OSSerializeC1EPK11OSMetaClass
__ZN11OSSerializeC1Ev
__ZN11OSSerializeC2EPK11OSMetaClass
__ZN11OSSerializeC2Ev
__ZN11OSSerializeD0Ev
__ZN11OSSerializeD1Ev
__ZN11OSSerializeD2Ev
__ZN12IODMACommand10gMetaClassE
__ZN12IODMACommand10superClassE
__ZN12IODMACommand10writeBytesEyPKvy
__ZN12IODMACommand11OutputBig32EPS_NS_9Segment64EPvj
__ZN12IODMACommand11OutputBig64EPS_NS_9Segment64EPvj
__ZN12IODMACommand11synchronizeEj
__ZN12IODMACommand12OutputHost32EPS_NS_9Segment64EPvj
__ZN12IODMACommand12OutputHost64EPS_NS_9Segment64EPvj
__ZN12IODMACommand12cloneCommandEPv
__ZN12IODMACommand12getAlignmentEv
__ZN12IODMACommand14OutputLittle32EPS_NS_9Segment64EPvj
__ZN12IODMACommand14OutputLittle64EPS_NS_9Segment64EPvj
__ZN12IODMACommand15genIOVMSegmentsEPFbPS_NS_9Segment64EPvjEPyS2_Pj
__ZN12IODMACommand15genIOVMSegmentsEPyPvPj
__ZN12IODMACommand15genIOVMSegmentsEjPFiPvPS_NS_9Segment64ES0_jES0_PyS0_Pj
__ZN12IODMACommand15transferSegmentEPvPS_NS_9Segment64ES0_j
__ZN12IODMACommand17getNumAddressBitsEv
__ZN12IODMACommand17withSpecificationEPFbPS_NS_9Segment64EPvjEhyNS_14MappingOptionsEyjP8IOMapperS2_
__ZN12IODMACommand19clientOutputSegmentEPvPS_NS_9Segment64ES0_j
__ZN12IODMACommand19setMemoryDescriptorEPK18IOMemoryDescriptorb
__ZN12IODMACommand21clearMemoryDescriptorEb
__ZN12IODMACommand21initWithSpecificationEPFbPS_NS_9Segment64EPvjEhyNS_14MappingOptionsEyjP8IOMapperS2_
__ZN12IODMACommand22_RESERVEDIODMACommand3Ev
__ZN12IODMACommand22_RESERVEDIODMACommand4Ev
__ZN12IODMACommand22_RESERVEDIODMACommand5Ev
__ZN12IODMACommand22_RESERVEDIODMACommand6Ev
__ZN12IODMACommand22_RESERVEDIODMACommand7Ev
__ZN12IODMACommand22_RESERVEDIODMACommand8Ev
__ZN12IODMACommand22_RESERVEDIODMACommand9Ev
__ZN12IODMACommand23_RESERVEDIODMACommand10Ev
__ZN12IODMACommand23_RESERVEDIODMACommand11Ev
__ZN12IODMACommand23_RESERVEDIODMACommand12Ev
__ZN12IODMACommand23_RESERVEDIODMACommand13Ev
__ZN12IODMACommand23_RESERVEDIODMACommand14Ev
__ZN12IODMACommand23_RESERVEDIODMACommand15Ev
__ZN12IODMACommand24prepareWithSpecificationEPFbPS_NS_9Segment64EPvjEhyNS_14MappingOptionsEyjP8IOMapperyybb
__ZN12IODMACommand26getPreparedOffsetAndLengthEPyS0_
__ZN12IODMACommand4freeEv
__ZN12IODMACommand7prepareEyybb
__ZN12IODMACommand7walkAllEh
__ZN12IODMACommand8completeEbb
__ZN12IODMACommand8transferEjyPvy
__ZN12IODMACommand9MetaClassC1Ev
__ZN12IODMACommand9MetaClassC2Ev
__ZN12IODMACommand9metaClassE
__ZN12IODMACommand9readBytesEyPvy
__ZN12IODMACommand9segmentOpEPvPS_NS_9Segment64ES0_j
__ZN12IODMACommandC1EPK11OSMetaClass
__ZN12IODMACommandC1Ev
__ZN12IODMACommandC2EPK11OSMetaClass
__ZN12IODMACommandC2Ev
__ZN12IODMACommandD0Ev
__ZN12IODMACommandD1Ev
__ZN12IODMACommandD2Ev
__ZN12IOPMTimeline10gMetaClassE
__ZN12IOPMTimeline10superClassE
__ZN12IOPMTimeline13setPropertiesEP12OSDictionary
__ZN12IOPMTimeline18copyInfoDictionaryEv
__ZN12IOPMTimeline21_atomicIndexIncrementEPjj
__ZN12IOPMTimeline21setEventsTrackedCountEj
__ZN12IOPMTimeline22isSleepCycleInProgressEv
__ZN12IOPMTimeline22recordSystemPowerEventEP14PMEventDetails
__ZN12IOPMTimeline23setEventsRecordingLevelEj
__ZN12IOPMTimeline24recordDetailedPowerEventEP14PMEventDetails
__ZN12IOPMTimeline26getPMTraceMemoryDescriptorEv
__ZN12IOPMTimeline27setSleepCycleInProgressFlagEb
__ZN12IOPMTimeline28getNumEventsLoggedThisPeriodEv
__ZN12IOPMTimeline28setNumEventsLoggedThisPeriodEj
__ZN12IOPMTimeline4freeEv
__ZN12IOPMTimeline4initEv
__ZN12IOPMTimeline8timelineEP14IOPMrootDomain
__ZN12IOPMTimeline9MetaClassC1Ev
__ZN12IOPMTimeline9MetaClassC2Ev
__ZN12IOPMTimeline9metaClassE
__ZN12IOPMTimelineC1EPK11OSMetaClass
__ZN12IOPMTimelineC1Ev
__ZN12IOPMTimelineC2EPK11OSMetaClass
__ZN12IOPMTimelineC2Ev
__ZN12IOPMTimelineD0Ev
__ZN12IOPMTimelineD1Ev
__ZN12IOPMTimelineD2Ev
__ZN12IOPMinformee10gMetaClassE
__ZN12IOPMinformee10initializeEP9IOService
__ZN12IOPMinformee10superClassE
__ZN12IOPMinformee10withObjectEP9IOService
__ZN12IOPMinformee4freeEv
__ZN12IOPMinformee9MetaClassC1Ev
__ZN12IOPMinformee9MetaClassC2Ev
__ZN12IOPMinformee9metaClassE
__ZN12IOPMinformeeC1EPK11OSMetaClass
__ZN12IOPMinformeeC1Ev
__ZN12IOPMinformeeC2EPK11OSMetaClass
__ZN12IOPMinformeeC2Ev
__ZN12IOPMinformeeD0Ev
__ZN12IOPMinformeeD1Ev
__ZN12IOPMinformeeD2Ev
__ZN12IORootParent10dozeSystemEv
__ZN12IORootParent10gMetaClassE
__ZN12IORootParent10initializeEv
__ZN12IORootParent10superClassE
__ZN12IORootParent10wakeSystemEv
__ZN12IORootParent11sleepSystemEv
__ZN12IORootParent11sleepToDozeEv
__ZN12IORootParent13restartSystemEv
__ZN12IORootParent14__OSFinalClassEv
__ZN12IORootParent14shutDownSystemEv
__ZN12IORootParent5startEP9IOService
__ZN12IORootParent9MetaClassC1Ev
__ZN12IORootParent9MetaClassC2Ev
__ZN12IORootParent9metaClassE
__ZN12IORootParentC1EPK11OSMetaClass
__ZN12IORootParentC1Ev
__ZN12IORootParentC2EPK11OSMetaClass
__ZN12IORootParentC2Ev
__ZN12IORootParentD0Ev
__ZN12IORootParentD1Ev
__ZN12IORootParentD2Ev
__ZN12IOStatistics10countAllocEjm
__ZN12IOStatistics10initializeEv
__ZN12IOStatistics10onKextLoadEP6OSKextP9kmod_info
__ZN12IOStatistics10sequenceIDE
__ZN12IOStatistics11loadedKextsE
__ZN12IOStatistics12onClassAddedEP6OSKextP11OSMetaClass
__ZN12IOStatistics12onKextUnloadEP6OSKext
__ZN12IOStatistics13getStatisticsEP10sysctl_req
__ZN12IOStatistics13lastKextIndexE
__ZN12IOStatistics14copyClassNamesEP21IOStatisticsClassName
__ZN12IOStatistics14lastClassIndexE
__ZN12IOStatistics14onClassRemovedEP6OSKextP11OSMetaClass
__ZN12IOStatistics15kextAddressHeadE
__ZN12IOStatistics15kextNodeCompareEP8KextNodeS1_
__ZN12IOStatistics15releaseKextNodeEP8KextNode
__ZN12IOStatistics16KextTree_RB_FINDEPNS_8KextTreeEP8KextNode
__ZN12IOStatistics16KextTree_RB_NEXTEP8KextNode
__ZN12IOStatistics16classNodeCompareEP9ClassNodeS1_
__ZN12IOStatistics16registerWorkLoopEP10IOWorkLoop
__ZN12IOStatistics17ClassTree_RB_FINDEPNS_9ClassTreeEP9ClassNode
__ZN12IOStatistics17ClassTree_RB_NEXTEP9ClassNode
__ZN12IOStatistics17registeredClassesE
__ZN12IOStatistics18KextTree_RB_INSERTEPNS_8KextTreeEP8KextNode
__ZN12IOStatistics18KextTree_RB_MINMAXEPNS_8KextTreeEi
__ZN12IOStatistics18KextTree_RB_REMOVEEPNS_8KextTreeEP8KextNode
__ZN12IOStatistics18copyKextStatisticsEP16IOStatisticsKext
__ZN12IOStatistics18registerUserClientEP12IOUserClient
__ZN12IOStatistics18registeredCountersE
__ZN12IOStatistics18unregisterWorkLoopEP17IOWorkLoopCounter
__ZN12IOStatistics19ClassTree_RB_INSERTEPNS_9ClassTreeEP9ClassNode
__ZN12IOStatistics19ClassTree_RB_MINMAXEPNS_9ClassTreeEi
__ZN12IOStatistics19ClassTree_RB_REMOVEEPNS_9ClassTreeEP9ClassNode
__ZN12IOStatistics19copyClassStatisticsEP17IOStatisticsClass
__ZN12IOStatistics19copyKextIdentifiersEP26IOStatisticsKextIdentifier
__ZN12IOStatistics19countUserClientCallEP12IOUserClient
__ZN12IOStatistics19registerEventSourceEP8OSObject
__ZN12IOStatistics19registeredWorkloopsE
__ZN12IOStatistics20KextTree_RB_GETCOLOREP8KextNode
__ZN12IOStatistics20KextTree_RB_SETCOLOREP8KextNodei
__ZN12IOStatistics20attachedEventSourcesE
__ZN12IOStatistics20copyGlobalStatisticsEP18IOStatisticsGlobal
__ZN12IOStatistics20copyMemoryStatisticsEP18IOStatisticsMemory
__ZN12IOStatistics20unregisterUserClientEP19IOUserClientCounter
__ZN12IOStatistics21ClassTree_RB_GETCOLOREP9ClassNode
__ZN12IOStatistics21ClassTree_RB_SETCOLOREP9ClassNodei
__ZN12IOStatistics21KextTree_RB_GETPARENTEP8KextNode
__ZN12IOStatistics21KextTree_RB_SETPARENTEP8KextNodeS1_
__ZN12IOStatistics21copyCounterStatisticsEP19IOStatisticsCounter
__ZN12IOStatistics21getWorkLoopStatisticsEP10sysctl_req
__ZN12IOStatistics21unregisterEventSourceEP20IOEventSourceCounter
__ZN12IOStatistics22ClassTree_RB_GETPARENTEP9ClassNode
__ZN12IOStatistics22ClassTree_RB_SETPARENTEP9ClassNodeS1_
__ZN12IOStatistics22copyWorkLoopStatisticsEP20IOStatisticsWorkLoop
__ZN12IOStatistics22kextAddressNodeCompareEP8KextNodeS1_
__ZN12IOStatistics22nextWorkLoopDependencyE
__ZN12IOStatistics23KextAddressTree_RB_FINDEPNS_15KextAddressTreeEP8KextNode
__ZN12IOStatistics23KextAddressTree_RB_NEXTEP8KextNode
__ZN12IOStatistics23getUserClientStatisticsEP10sysctl_req
__ZN12IOStatistics23storeUserClientCallInfoEP12IOUserClientP19IOUserClientCounter
__ZN12IOStatistics24KextTree_RB_INSERT_COLOREPNS_8KextTreeEP8KextNode
__ZN12IOStatistics24KextTree_RB_REMOVE_COLOREPNS_8KextTreeEP8KextNodeS3_
__ZN12IOStatistics24copyUserClientStatisticsEP28IOStatisticsUserClientHeaderj
__ZN12IOStatistics24getKextNodeFromBacktraceEi
__ZN12IOStatistics25ClassTree_RB_INSERT_COLOREPNS_9ClassTreeEP9ClassNode
__ZN12IOStatistics25ClassTree_RB_REMOVE_COLOREPNS_9ClassTreeEP9ClassNodeS3_
__ZN12IOStatistics25KextAddressTree_RB_INSERTEPNS_15KextAddressTreeEP8KextNode
__ZN12IOStatistics25KextAddressTree_RB_MINMAXEPNS_15KextAddressTreeEi
__ZN12IOStatistics25KextAddressTree_RB_REMOVEEPNS_15KextAddressTreeEP8KextNode
__ZN12IOStatistics25attachWorkLoopEventSourceEP17IOWorkLoopCounterP20IOEventSourceCounter
__ZN12IOStatistics25detachWorkLoopEventSourceEP17IOWorkLoopCounterP20IOEventSourceCounter
__ZN12IOStatistics27KextAddressTree_RB_GETCOLOREP8KextNode
__ZN12IOStatistics27KextAddressTree_RB_SETCOLOREP8KextNodei
__ZN12IOStatistics28KextAddressTree_RB_GETPARENTEP8KextNode
__ZN12IOStatistics28KextAddressTree_RB_SETPARENTEP8KextNodeS1_
__ZN12IOStatistics31KextAddressTree_RB_INSERT_COLOREPNS_15KextAddressTreeEP8KextNode
__ZN12IOStatistics31KextAddressTree_RB_REMOVE_COLOREPNS_15KextAddressTreeEP8KextNodeS3_
__ZN12IOStatistics4lockE
__ZN12IOStatistics7enabledE
__ZN12IOStatistics8kextHeadE
__ZN12IOStatistics8kextHintE
__ZN12IOStatistics9classHeadE
__ZN12IOUserClient10clientDiedEv
__ZN12IOUserClient10gMetaClassE
__ZN12IOUserClient10getServiceEv
__ZN12IOUserClient10initializeEv
__ZN12IOUserClient10superClassE
__ZN12IOUserClient11clientCloseEv
__ZN12IOUserClient12initWithTaskEP4taskPvj
__ZN12IOUserClient12initWithTaskEP4taskPvjP12OSDictionary
__ZN12IOUserClient13connectClientEPS_
__ZN12IOUserClient14externalMethodEjP25IOExternalMethodArgumentsP24IOExternalMethodDispatchP8OSObjectPv
__ZN12IOUserClient15sendAsyncResultEPjiPPvj
__ZN12IOUserClient17mapClientMemory64EjP4taskjy
__ZN12IOUserClient17sendAsyncResult64EPyiS0_j
__ZN12IOUserClient17setAsyncReferenceEPjP8ipc_portPvS3_
__ZN12IOUserClient18_sendAsyncResult64EPyiS0_jj
__ZN12IOUserClient18clientHasPrivilegeEPvPKc
__ZN12IOUserClient19clientMemoryForTypeEjPjPP18IOMemoryDescriptor
__ZN12IOUserClient19setAsyncReference64EPyP8ipc_portyy
__ZN12IOUserClient19setAsyncReference64EPyP8ipc_portyyP4task
__ZN12IOUserClient20exportObjectToClientEP4taskP8OSObjectPS3_
__ZN12IOUserClient21destroyUserReferencesEP8OSObject
__ZN12IOUserClient22_RESERVEDIOUserClient0Ev
__ZN12IOUserClient22_RESERVEDIOUserClient1Ev
__ZN12IOUserClient22_RESERVEDIOUserClient2Ev
__ZN12IOUserClient22_RESERVEDIOUserClient3Ev
__ZN12IOUserClient22_RESERVEDIOUserClient4Ev
__ZN12IOUserClient22_RESERVEDIOUserClient5Ev
__ZN12IOUserClient22_RESERVEDIOUserClient6Ev
__ZN12IOUserClient22_RESERVEDIOUserClient7Ev
__ZN12IOUserClient22_RESERVEDIOUserClient8Ev
__ZN12IOUserClient22_RESERVEDIOUserClient9Ev
__ZN12IOUserClient23_RESERVEDIOUserClient10Ev
__ZN12IOUserClient23_RESERVEDIOUserClient11Ev
__ZN12IOUserClient23_RESERVEDIOUserClient12Ev
__ZN12IOUserClient23_RESERVEDIOUserClient13Ev
__ZN12IOUserClient23_RESERVEDIOUserClient14Ev
__ZN12IOUserClient23_RESERVEDIOUserClient15Ev
__ZN12IOUserClient23getExternalTrapForIndexEj
__ZN12IOUserClient23releaseAsyncReference64EPy
__ZN12IOUserClient23releaseNotificationPortEP8ipc_port
__ZN12IOUserClient24getNotificationSemaphoreEjPP9semaphore
__ZN12IOUserClient24getTargetAndTrapForIndexEPP9IOServicej
__ZN12IOUserClient24registerNotificationPortEP8ipc_portjj
__ZN12IOUserClient24registerNotificationPortEP8ipc_portjy
__ZN12IOUserClient25getExternalMethodForIndexEj
__ZN12IOUserClient26getTargetAndMethodForIndexEPP9IOServicej
__ZN12IOUserClient26removeMappingForDescriptorEP18IOMemoryDescriptor
__ZN12IOUserClient28sendAsyncResult64WithOptionsEPyiS0_jj
__ZN12IOUserClient30getExternalAsyncMethodForIndexEj
__ZN12IOUserClient31getAsyncTargetAndMethodForIndexEPP9IOServicej
__ZN12IOUserClient4freeEv
__ZN12IOUserClient4initEP12OSDictionary
__ZN12IOUserClient4initEv
__ZN12IOUserClient7reserveEv
__ZN12IOUserClient9MetaClassC1Ev
__ZN12IOUserClient9MetaClassC2Ev
__ZN12IOUserClient9metaClassE
__ZN12IOUserClientC1EPK11OSMetaClass
__ZN12IOUserClientC2EPK11OSMetaClass
__ZN12IOUserClientD0Ev
__ZN12IOUserClientD1Ev
__ZN12IOUserClientD2Ev
__ZN12KLDBootstrap19readMkextExtensionsEP8OSStringP6OSData
__ZN12KLDBootstrap20readBooterExtensionsEv
__ZN12KLDBootstrap21readStartupExtensionsEv
__ZN12KLDBootstrap22loadSecurityExtensionsEv
__ZN12KLDBootstrap23readPrelinkedExtensionsEP10section_64
__ZN12KLDBootstrap24loadKernelComponentKextsEv
__ZN12KLDBootstrap24readBuiltinPersonalitiesEv
__ZN12KLDBootstrap28loadKernelExternalComponentsEv
__ZN12KLDBootstrapC1Ev
__ZN12KLDBootstrapC2Ev
__ZN12KLDBootstrapD1Ev
__ZN12KLDBootstrapD2Ev
__ZN12OSCollection10gMetaClassE
__ZN12OSCollection10setOptionsEjjPv
__ZN12OSCollection10superClassE
__ZN12OSCollection11haveUpdatedEv
__ZN12OSCollection14copyCollectionEP12OSDictionary
__ZN12OSCollection22_RESERVEDOSCollection2Ev
__ZN12OSCollection22_RESERVEDOSCollection3Ev
__ZN12OSCollection22_RESERVEDOSCollection4Ev
__ZN12OSCollection22_RESERVEDOSCollection5Ev
__ZN12OSCollection22_RESERVEDOSCollection6Ev
__ZN12OSCollection22_RESERVEDOSCollection7Ev
__ZN12OSCollection4initEv
__ZN12OSCollection9MetaClassC1Ev
__ZN12OSCollection9MetaClassC2Ev
__ZN12OSCollection9metaClassE
__ZN12OSCollectionC2EPK11OSMetaClass
__ZN12OSCollectionD0Ev
__ZN12OSCollectionD1Ev
__ZN12OSCollectionD2Ev
__ZN12OSDictionary10gMetaClassE
__ZN12OSDictionary10setOptionsEjjPv
__ZN12OSDictionary10superClassE
__ZN12OSDictionary11withObjectsEPPK8OSObjectPPK8OSStringjj
__ZN12OSDictionary11withObjectsEPPK8OSObjectPPK8OSSymboljj
__ZN12OSDictionary12removeObjectEPK8OSString
__ZN12OSDictionary12removeObjectEPK8OSSymbol
__ZN12OSDictionary12removeObjectEPKc
__ZN12OSDictionary12withCapacityEj
__ZN12OSDictionary14copyCollectionEPS_
__ZN12OSDictionary14ensureCapacityEj
__ZN12OSDictionary14withDictionaryEPKS_j
__ZN12OSDictionary15flushCollectionEv
__ZN12OSDictionary15initWithObjectsEPPK8OSObjectPPK8OSStringjj
__ZN12OSDictionary15initWithObjectsEPPK8OSObjectPPK8OSSymboljj
__ZN12OSDictionary16initWithCapacityEj
__ZN12OSDictionary18initWithDictionaryEPKS_j
__ZN12OSDictionary20setCapacityIncrementEj
__ZN12OSDictionary22_RESERVEDOSDictionary0Ev
__ZN12OSDictionary22_RESERVEDOSDictionary1Ev
__ZN12OSDictionary22_RESERVEDOSDictionary2Ev
__ZN12OSDictionary22_RESERVEDOSDictionary3Ev
__ZN12OSDictionary22_RESERVEDOSDictionary4Ev
__ZN12OSDictionary22_RESERVEDOSDictionary5Ev
__ZN12OSDictionary22_RESERVEDOSDictionary6Ev
__ZN12OSDictionary22_RESERVEDOSDictionary7Ev
__ZN12OSDictionary4freeEv
__ZN12OSDictionary5mergeEPKS_
__ZN12OSDictionary9MetaClassC1Ev
__ZN12OSDictionary9MetaClassC2Ev
__ZN12OSDictionary9metaClassE
__ZN12OSDictionary9setObjectEPK8OSStringPK15OSMetaClassBase
__ZN12OSDictionary9setObjectEPK8OSSymbolPK15OSMetaClassBase
__ZN12OSDictionary9setObjectEPKcPK15OSMetaClassBase
__ZN12OSDictionaryC1EPK11OSMetaClass
__ZN12OSDictionaryC1Ev
__ZN12OSDictionaryC2EPK11OSMetaClass
__ZN12OSDictionaryC2Ev
__ZN12OSDictionaryD0Ev
__ZN12OSDictionaryD1Ev
__ZN12OSDictionaryD2Ev
__ZN12OSOrderedSet10gMetaClassE
__ZN12OSOrderedSet10setOptionsEjjPv
__ZN12OSOrderedSet10superClassE
__ZN12OSOrderedSet11orderObjectEPK15OSMetaClassBase
__ZN12OSOrderedSet12removeObjectEPK15OSMetaClassBase
__ZN12OSOrderedSet12withCapacityEjPFiPK15OSMetaClassBaseS2_PvES3_
__ZN12OSOrderedSet13setLastObjectEPK15OSMetaClassBase
__ZN12OSOrderedSet14copyCollectionEP12OSDictionary
__ZN12OSOrderedSet14ensureCapacityEj
__ZN12OSOrderedSet14getOrderingRefEv
__ZN12OSOrderedSet14setFirstObjectEPK15OSMetaClassBase
__ZN12OSOrderedSet15flushCollectionEv
__ZN12OSOrderedSet16initWithCapacityEjPFiPK15OSMetaClassBaseS2_PvES3_
__ZN12OSOrderedSet20setCapacityIncrementEj
__ZN12OSOrderedSet22_RESERVEDOSOrderedSet0Ev
__ZN12OSOrderedSet22_RESERVEDOSOrderedSet1Ev
__ZN12OSOrderedSet22_RESERVEDOSOrderedSet2Ev
__ZN12OSOrderedSet22_RESERVEDOSOrderedSet3Ev
__ZN12OSOrderedSet22_RESERVEDOSOrderedSet4Ev
__ZN12OSOrderedSet22_RESERVEDOSOrderedSet5Ev
__ZN12OSOrderedSet22_RESERVEDOSOrderedSet6Ev
__ZN12OSOrderedSet22_RESERVEDOSOrderedSet7Ev
__ZN12OSOrderedSet4freeEv
__ZN12OSOrderedSet9MetaClassC1Ev
__ZN12OSOrderedSet9MetaClassC2Ev
__ZN12OSOrderedSet9metaClassE
__ZN12OSOrderedSet9setObjectEPK15OSMetaClassBase
__ZN12OSOrderedSet9setObjectEjPK15OSMetaClassBase
__ZN12OSOrderedSetC1EPK11OSMetaClass
__ZN12OSOrderedSetC1Ev
__ZN12OSOrderedSetC2EPK11OSMetaClass
__ZN12OSOrderedSetC2Ev
__ZN12OSOrderedSetD0Ev
__ZN12OSOrderedSetD1Ev
__ZN12OSOrderedSetD2Ev
__ZN12OSSerializer10gMetaClassE
__ZN12OSSerializer10superClassE
__ZN12OSSerializer9MetaClassC1Ev
__ZN12OSSerializer9MetaClassC2Ev
__ZN12OSSerializer9forTargetEPvPFbS0_S0_P11OSSerializeES0_
__ZN12OSSerializer9metaClassE
__ZN12OSSerializerC1EPK11OSMetaClass
__ZN12OSSerializerC1Ev
__ZN12OSSerializerC2EPK11OSMetaClass
__ZN12OSSerializerC2Ev
__ZN12OSSerializerD0Ev
__ZN12OSSerializerD1Ev
__ZN12OSSerializerD2Ev
__ZN12OSSymbolPool12insertSymbolEP8OSSymbol
__ZN12OSSymbolPool12removeSymbolEP8OSSymbol
__ZN12OSSymbolPool13initHashStateEv
__ZN12OSSymbolPool13nextHashStateEP17OSSymbolPoolState
__ZN12OSSymbolPool18reconstructSymbolsEb
__ZN12OSSymbolPool18reconstructSymbolsEv
__ZN12OSSymbolPool4initEv
__ZN12OSSymbolPool4log2Ej
__ZN12OSSymbolPool6exp2mlEj
__ZN12OSSymbolPoolC1EPKS_
__ZN12OSSymbolPoolC2EPKS_
__ZN12OSSymbolPoolD0Ev
__ZN12OSSymbolPoolD1Ev
__ZN12OSSymbolPoolD2Ev
__ZN12OSSymbolPooldlEPvm
__ZN12OSSymbolPoolnwEm
__ZN12PMHaltWorker10gMetaClassE
__ZN12PMHaltWorker10superClassE
__ZN12PMHaltWorker12checkTimeoutEPS_Py
__ZN12PMHaltWorker14__OSFinalClassEv
__ZN12PMHaltWorker4freeEv
__ZN12PMHaltWorker4mainEPvi
__ZN12PMHaltWorker4workEPS_
__ZN12PMHaltWorker6workerEv
__ZN12PMHaltWorker9MetaClassC1Ev
__ZN12PMHaltWorker9MetaClassC2Ev
__ZN12PMHaltWorker9metaClassE
__ZN12PMHaltWorkerC1EPK11OSMetaClass
__ZN12PMHaltWorkerC1Ev
__ZN12PMHaltWorkerC2EPK11OSMetaClass
__ZN12PMHaltWorkerC2Ev
__ZN12PMHaltWorkerD0Ev
__ZN12PMHaltWorkerD1Ev
__ZN12PMHaltWorkerD2Ev
__ZN13IOCommandGate10gMetaClassE
__ZN13IOCommandGate10runCommandEPvS0_S0_S0_
__ZN13IOCommandGate10superClassE
__ZN13IOCommandGate11commandGateEP8OSObjectPFiS1_PvS2_S2_S2_E
__ZN13IOCommandGate11setWorkLoopEP10IOWorkLoop
__ZN13IOCommandGate12commandSleepEPvj
__ZN13IOCommandGate12commandSleepEPvyj
__ZN13IOCommandGate13attemptActionEPFiP8OSObjectPvS2_S2_S2_ES2_S2_S2_S2_
__ZN13IOCommandGate13commandWakeupEPvb
__ZN13IOCommandGate14attemptCommandEPvS0_S0_S0_
__ZN13IOCommandGate23_RESERVEDIOCommandGate0Ev
__ZN13IOCommandGate23_RESERVEDIOCommandGate1Ev
__ZN13IOCommandGate23_RESERVEDIOCommandGate2Ev
__ZN13IOCommandGate23_RESERVEDIOCommandGate3Ev
__ZN13IOCommandGate23_RESERVEDIOCommandGate4Ev
__ZN13IOCommandGate23_RESERVEDIOCommandGate5Ev
__ZN13IOCommandGate23_RESERVEDIOCommandGate6Ev
__ZN13IOCommandGate23_RESERVEDIOCommandGate7Ev
__ZN13IOCommandGate4freeEv
__ZN13IOCommandGate4initEP8OSObjectPFiS1_PvS2_S2_S2_E
__ZN13IOCommandGate6enableEv
__ZN13IOCommandGate7disableEv
__ZN13IOCommandGate9MetaClassC1Ev
__ZN13IOCommandGate9MetaClassC2Ev
__ZN13IOCommandGate9metaClassE
__ZN13IOCommandGate9runActionEPFiP8OSObjectPvS2_S2_S2_ES2_S2_S2_S2_
__ZN13IOCommandGateC1EPK11OSMetaClass
__ZN13IOCommandGateC1Ev
__ZN13IOCommandGateC2EPK11OSMetaClass
__ZN13IOCommandGateC2Ev
__ZN13IOCommandGateD0Ev
__ZN13IOCommandGateD1Ev
__ZN13IOCommandGateD2Ev
__ZN13IOCommandPool10gMetaClassE
__ZN13IOCommandPool10getCommandEb
__ZN13IOCommandPool10superClassE
__ZN13IOCommandPool11commandPoolEP9IOServiceP10IOWorkLoopj
__ZN13IOCommandPool12withWorkLoopEP10IOWorkLoop
__ZN13IOCommandPool13returnCommandEP9IOCommand
__ZN13IOCommandPool15gatedGetCommandEPP9IOCommandb
__ZN13IOCommandPool16initWithWorkLoopEP10IOWorkLoop
__ZN13IOCommandPool18gatedReturnCommandEP9IOCommand
__ZN13IOCommandPool23_RESERVEDIOCommandPool0Ev
__ZN13IOCommandPool23_RESERVEDIOCommandPool1Ev
__ZN13IOCommandPool23_RESERVEDIOCommandPool2Ev
__ZN13IOCommandPool23_RESERVEDIOCommandPool3Ev
__ZN13IOCommandPool23_RESERVEDIOCommandPool4Ev
__ZN13IOCommandPool23_RESERVEDIOCommandPool5Ev
__ZN13IOCommandPool23_RESERVEDIOCommandPool6Ev
__ZN13IOCommandPool23_RESERVEDIOCommandPool7Ev
__ZN13IOCommandPool4freeEv
__ZN13IOCommandPool4initEP9IOServiceP10IOWorkLoopj
__ZN13IOCommandPool9MetaClassC1Ev
__ZN13IOCommandPool9MetaClassC2Ev
__ZN13IOCommandPool9metaClassE
__ZN13IOCommandPoolC1EPK11OSMetaClass
__ZN13IOCommandPoolC1Ev
__ZN13IOCommandPoolC2EPK11OSMetaClass
__ZN13IOCommandPoolC2Ev
__ZN13IOCommandPoolD0Ev
__ZN13IOCommandPoolD1Ev
__ZN13IOCommandPoolD2Ev
__ZN13IOEventSource10gMetaClassE
__ZN13IOEventSource10superClassE
__ZN13IOEventSource10wakeupGateEPvb
__ZN13IOEventSource11setWorkLoopEP10IOWorkLoop
__ZN13IOEventSource12checkForWorkEv
__ZN13IOEventSource12tryCloseGateEv
__ZN13IOEventSource19signalWorkAvailableEv
__ZN13IOEventSource23_RESERVEDIOEventSource0Ev
__ZN13IOEventSource23_RESERVEDIOEventSource1Ev
__ZN13IOEventSource23_RESERVEDIOEventSource2Ev
__ZN13IOEventSource23_RESERVEDIOEventSource3Ev
__ZN13IOEventSource23_RESERVEDIOEventSource4Ev
__ZN13IOEventSource23_RESERVEDIOEventSource5Ev
__ZN13IOEventSource23_RESERVEDIOEventSource6Ev
__ZN13IOEventSource23_RESERVEDIOEventSource7Ev
__ZN13IOEventSource4freeEv
__ZN13IOEventSource4initEP8OSObjectPFvS1_zE
__ZN13IOEventSource6enableEv
__ZN13IOEventSource7disableEv
__ZN13IOEventSource7setNextEPS_
__ZN13IOEventSource8openGateEv
__ZN13IOEventSource9MetaClassC1Ev
__ZN13IOEventSource9MetaClassC2Ev
__ZN13IOEventSource9closeGateEv
__ZN13IOEventSource9metaClassE
__ZN13IOEventSource9setActionEPFvP8OSObjectzE
__ZN13IOEventSource9sleepGateEPvj
__ZN13IOEventSource9sleepGateEPvyj
__ZN13IOEventSourceC1EPK11OSMetaClass
__ZN13IOEventSourceC2EPK11OSMetaClass
__ZN13IOEventSourceD0Ev
__ZN13IOEventSourceD1Ev
__ZN13IOEventSourceD2Ev
__ZN13IOPMWorkQueue10gMetaClassE
__ZN13IOPMWorkQueue10superClassE
__ZN13IOPMWorkQueue12checkForWorkEv
__ZN13IOPMWorkQueue14queuePMRequestEP11IOPMRequestP11IOServicePM
__ZN13IOPMWorkQueue17checkRequestQueueEP11queue_entryPb
__ZN13IOPMWorkQueue19signalWorkAvailableEv
__ZN13IOPMWorkQueue22incrementProducerCountEv
__ZN13IOPMWorkQueue4initEP9IOServicePFbS1_P11IOPMRequestPS_ES6_
__ZN13IOPMWorkQueue6createEP9IOServicePFbS1_P11IOPMRequestPS_ES6_
__ZN13IOPMWorkQueue9MetaClassC1Ev
__ZN13IOPMWorkQueue9MetaClassC2Ev
__ZN13IOPMWorkQueue9metaClassE
__ZN13IOPMWorkQueueC1EPK11OSMetaClass
__ZN13IOPMWorkQueueC1Ev
__ZN13IOPMWorkQueueC2EPK11OSMetaClass
__ZN13IOPMWorkQueueC2Ev
__ZN13IOPMWorkQueueD0Ev
__ZN13IOPMWorkQueueD1Ev
__ZN13IOPMWorkQueueD2Ev
__ZN13PMTraceWorker10gMetaClassE
__ZN13PMTraceWorker10superClassE
__ZN13PMTraceWorker10tracePointEh
__ZN13PMTraceWorker10tracePointEhh
__ZN13PMTraceWorker11traceDetailEj
__ZN13PMTraceWorker15getPMStatusCodeEv
__ZN13PMTraceWorker19tracePCIPowerChangeENS_8change_tEP9IOServicejj
__ZN13PMTraceWorker21traceLoginWindowPhaseEh
__ZN13PMTraceWorker23recordTopLevelPCIDeviceEP9IOService
__ZN13PMTraceWorker6tracerEP14IOPMrootDomain
__ZN13PMTraceWorker9MetaClassC1Ev
__ZN13PMTraceWorker9MetaClassC2Ev
__ZN13PMTraceWorker9RTC_TRACEEv
__ZN13PMTraceWorker9metaClassE
__ZN13PMTraceWorkerC1EPK11OSMetaClass
__ZN13PMTraceWorkerC1Ev
__ZN13PMTraceWorkerC2EPK11OSMetaClass
__ZN13PMTraceWorkerC2Ev
__ZN13PMTraceWorkerD0Ev
__ZN13PMTraceWorkerD1Ev
__ZN13PMTraceWorkerD2Ev
__ZN13_IOServiceJob10gMetaClassE
__ZN13_IOServiceJob10pingConfigEPS_
__ZN13_IOServiceJob10superClassE
__ZN13_IOServiceJob8startJobEP9IOServiceij
__ZN13_IOServiceJob9MetaClassC1Ev
__ZN13_IOServiceJob9MetaClassC2Ev
__ZN13_IOServiceJob9metaClassE
__ZN13_IOServiceJobC1EPK11OSMetaClass
__ZN13_IOServiceJobC1Ev
__ZN13_IOServiceJobC2EPK11OSMetaClass
__ZN13_IOServiceJobC2Ev
__ZN13_IOServiceJobD0Ev
__ZN13_IOServiceJobD1Ev
__ZN13_IOServiceJobD2Ev
__ZN14IODeviceMemory12withSubRangeEPS_yy
__ZN14IODeviceMemory13arrayFromListEPNS_11InitElementEj
__ZN14IODeviceMemory9withRangeEyy
__ZN14IOMemoryCursor10gMetaClassE
__ZN14IOMemoryCursor10superClassE
__ZN14IOMemoryCursor17withSpecificationEPFvNS_15PhysicalSegmentEPvjEyyy
__ZN14IOMemoryCursor19genPhysicalSegmentsEP18IOMemoryDescriptoryPvjjPy
__ZN14IOMemoryCursor21initWithSpecificationEPFvNS_15PhysicalSegmentEPvjEyyy
__ZN14IOMemoryCursor9MetaClassC1Ev
__ZN14IOMemoryCursor9MetaClassC2Ev
__ZN14IOMemoryCursor9metaClassE
__ZN14IOMemoryCursorC1EPK11OSMetaClass
__ZN14IOMemoryCursorC1Ev
__ZN14IOMemoryCursorC2EPK11OSMetaClass
__ZN14IOMemoryCursorC2Ev
__ZN14IOMemoryCursorD0Ev
__ZN14IOMemoryCursorD1Ev
__ZN14IOMemoryCursorD2Ev
__ZN14IOPMrootDomain10gMetaClassE
__ZN14IOPMrootDomain10superClassE
__ZN14IOPMrootDomain10tracePointEh
__ZN14IOPMrootDomain10tracePointEhh
__ZN14IOPMrootDomain11sleepSystemEv
__ZN14IOPMrootDomain11traceDetailEj
__ZN14IOPMrootDomain12setPMSettingEPK8OSSymbolP8OSObject
__ZN14IOPMrootDomain12tellChangeUpEm
__ZN14IOPMrootDomain12updateReportEP19IOReportChannelListjPvS2_
__ZN14IOPMrootDomain12wakeFromDozeEv
__ZN14IOPMrootDomain13askChangeDownEm
__ZN14IOPMrootDomain13copyPMSettingEP8OSSymbol
__ZN14IOPMrootDomain13recordPMEventEP14PMEventDetails
__ZN14IOPMrootDomain13recordPMEventEjPKcjj
__ZN14IOPMrootDomain13restartSystemEv
__ZN14IOPMrootDomain13setPropertiesEP8OSObject
__ZN14IOPMrootDomain14__OSFinalClassEv
__ZN14IOPMrootDomain14evaluatePolicyEij
__ZN14IOPMrootDomain14getSleepOptionEPKcPj
__ZN14IOPMrootDomain14publishFeatureEPKc
__ZN14IOPMrootDomain14publishFeatureEPKcjPj
__ZN14IOPMrootDomain14shutdownSystemEv
__ZN14IOPMrootDomain14tellChangeDownEm
__ZN14IOPMrootDomain15configureReportEP19IOReportChannelListjPvS2_
__ZN14IOPMrootDomain15powerChangeDoneEm
__ZN14IOPMrootDomain15reportUserInputEv
__ZN14IOPMrootDomain15requestFullWakeENS_14FullWakeReasonE
__ZN14IOPMrootDomain16abortHibernationEv
__ZN14IOPMrootDomain16adjustPowerStateEb
__ZN14IOPMrootDomain16batteryPublishedEPvS0_P9IOServiceP10IONotifier
__ZN14IOPMrootDomain16publishPMSettingEPK8OSSymboljPj
__ZN14IOPMrootDomain16registerInterestEPK8OSSymbolPFiPvS3_jP9IOServiceS3_mES3_S3_
__ZN14IOPMrootDomain16tellNoChangeDownEm
__ZN14IOPMrootDomain17askChangeDownDoneEPjPb
__ZN14IOPMrootDomain17createPMAssertionEyjP9IOServicePKc
__ZN14IOPMrootDomain17getAggressivenessEmPm
__ZN14IOPMrootDomain17getSleepSupportedEv
__ZN14IOPMrootDomain17setAggressivenessEmm
__ZN14IOPMrootDomain17setAggressivenessEmmj
__ZN14IOPMrootDomain17setDisplayPowerOnEj
__ZN14IOPMrootDomain17setSleepSupportedEj
__ZN14IOPMrootDomain17sleepWakeDebugLogEPKcz
__ZN14IOPMrootDomain17systemDidNotSleepEv
__ZN14IOPMrootDomain17willEnterFullWakeEv
__ZN14IOPMrootDomain18activitySinceSleepEv
__ZN14IOPMrootDomain18changePowerStateToEm
__ZN14IOPMrootDomain18dispatchPowerEventEjPvy
__ZN14IOPMrootDomain18evaluateAssertionsEyy
__ZN14IOPMrootDomain18getSystemSleepTypeEPj
__ZN14IOPMrootDomain18getTimeToIdleSleepEv
__ZN14IOPMrootDomain18joinAggressivenessEP9IOService
__ZN14IOPMrootDomain18pmStatsRecordEventEiy
__ZN14IOPMrootDomain18privateSleepSystemEj
__ZN14IOPMrootDomain18releasePMAssertionEy
__ZN14IOPMrootDomain18sleepSystemOptionsEP12OSDictionary
__ZN14IOPMrootDomain18sleepWakeDebugDumpEP11IOMemoryMap
__ZN14IOPMrootDomain18sleepWakeDebugTrigEb
__ZN14IOPMrootDomain19checkSystemCanSleepEj
__ZN14IOPMrootDomain19fullWakeDelayedWorkEv
__ZN14IOPMrootDomain19getPMAssertionLevelEy
__ZN14IOPMrootDomain19setPMAssertionLevelEyj
__ZN14IOPMrootDomain19startIdleSleepTimerEj
__ZN14IOPMrootDomain19sysPowerDownHandlerEPvS0_jP9IOServiceS0_m
__ZN14IOPMrootDomain19systemMessageFilterEPvS0_S0_S0_
__ZN14IOPMrootDomain20broadcastAggressivesEPK17AggressivesRecordi
__ZN14IOPMrootDomain20callPlatformFunctionEPK8OSSymbolbPvS3_S3_S3_
__ZN14IOPMrootDomain20cancelIdleSleepTimerEv
__ZN14IOPMrootDomain20getHibernateSettingsEPjS0_S0_
__ZN14IOPMrootDomain20informCPUStateChangeEjj
__ZN14IOPMrootDomain20tagPowerPlaneServiceEP9IOServiceP11IOPMActions
__ZN14IOPMrootDomain21IONVRAMMatchPublishedEPvS0_P9IOServiceP10IONotifier
__ZN14IOPMrootDomain22changePowerStateToPrivEm
__ZN14IOPMrootDomain22overrideOurPowerChangeEP9IOServiceP11IOPMActionsPmPjj
__ZN14IOPMrootDomain22removePublishedFeatureEj
__ZN14IOPMrootDomain22sleepWakeDebugMemAllocEv
__ZN14IOPMrootDomain22sleepWakeDebugRetrieveEv
__ZN14IOPMrootDomain22sleepWakeDebugSaveFileEPKcPci
__ZN14IOPMrootDomain22synchronizeAggressivesEP11queue_entryPK17AggressivesRecordi
__ZN14IOPMrootDomain23checkSystemSleepAllowedEjj
__ZN14IOPMrootDomain23checkSystemSleepEnabledEv
__ZN14IOPMrootDomain23handlePowerNotificationEj
__ZN14IOPMrootDomain23recordAndReleasePMEventEP14PMEventDetails
__ZN14IOPMrootDomain23requestPowerDomainStateEmP17IOPowerConnectionm
__ZN14IOPMrootDomain23saveTimeoutAppStackShotEPvS0_
__ZN14IOPMrootDomain23setQuickSpinDownTimeoutEv
__ZN14IOPMrootDomain23willNotifyPowerChildrenEm
__ZN14IOPMrootDomain24handleOurPowerChangeDoneEP9IOServiceP11IOPMActionsmjj
__ZN14IOPMrootDomain24handleQueueSleepWakeUUIDEP8OSObject
__ZN14IOPMrootDomain24receivePowerNotificationEj
__ZN14IOPMrootDomain24setDisableClamShellSleepEb
__ZN14IOPMrootDomain24setPMAssertionUserLevelsEy
__ZN14IOPMrootDomain24sleepWakeDebugEnableWdogEv
__ZN14IOPMrootDomain24systemPowerEventOccurredEPK8OSSymbolP8OSObject
__ZN14IOPMrootDomain24systemPowerEventOccurredEPK8OSSymbolj
__ZN14IOPMrootDomain25deregisterPMSettingObjectEP15PMSettingObject
__ZN14IOPMrootDomain25evaluateSystemSleepPolicyEP25IOPMSystemSleepParametersiPj
__ZN14IOPMrootDomain25handleAggressivesRequestsEv
__ZN14IOPMrootDomain25handleOurPowerChangeStartEP9IOServiceP11IOPMActionsmPjj
__ZN14IOPMrootDomain25handlePlatformHaltRestartEj
__ZN14IOPMrootDomain25initializeBootSessionUUIDEv
__ZN14IOPMrootDomain25pmNotificationIsSuspendedEj
__ZN14IOPMrootDomain26getPMTraceMemoryDescriptorEv
__ZN14IOPMrootDomain26handlePublishSleepWakeUUIDEb
__ZN14IOPMrootDomain26handleSleepTimerExpirationEv
__ZN14IOPMrootDomain26latchDisplayWranglerTickleEb
__ZN14IOPMrootDomain26restoreUserSpinDownTimeoutEv
__ZN14IOPMrootDomain26setMaintenanceWakeCalendarEPK18IOPMCalendarStruct
__ZN14IOPMrootDomain26updatePreventIdleSleepListEP9IOServiceb
__ZN14IOPMrootDomain27displayWranglerNotificationEPvS0_jP9IOServiceS0_m
__ZN14IOPMrootDomain27registerPMSettingControllerEPPK8OSSymbolPFiP8OSObjectS2_S5_mES5_mPS5_
__ZN14IOPMrootDomain27registerPMSettingControllerEPPK8OSSymboljPFiP8OSObjectS2_S5_mES5_mPS5_
__ZN14IOPMrootDomain27sleepWakeDebugIsWdogEnabledEv
__ZN14IOPMrootDomain28shouldDelayChildNotificationEP9IOService
__ZN14IOPMrootDomain28shouldSleepOnClamshellClosedEv
__ZN14IOPMrootDomain28suspendPMNotificationsForPIDEjb
__ZN14IOPMrootDomain28updatePreventSystemSleepListEP9IOServiceb
__ZN14IOPMrootDomain29acknowledgeSystemWillShutdownEP9IOService
__ZN14IOPMrootDomain29checkSystemCanSustainFullWakeEv
__ZN14IOPMrootDomain29displayWranglerMatchPublishedEPvS0_P9IOServiceP10IONotifier
__ZN14IOPMrootDomain29preventTransitionToUserActiveEb
__ZN14IOPMrootDomain30evaluateSystemSleepPolicyEarlyEv
__ZN14IOPMrootDomain30evaluateSystemSleepPolicyFinalEv
__ZN14IOPMrootDomain31overridePowerChangeForUIServiceEP9IOServiceP11IOPMActionsPmPj
__ZN14IOPMrootDomain31sendClientClamshellNotificationEv
__ZN14IOPMrootDomain32pmStatsRecordApplicationResponseEPK8OSSymbolPKciji
__ZN14IOPMrootDomain33handlePowerChangeDoneForPCIDeviceEP9IOServiceP11IOPMActionsmj
__ZN14IOPMrootDomain33handleSuspendPMNotificationClientEjb
__ZN14IOPMrootDomain34handlePowerChangeStartForPCIDeviceEP9IOServiceP11IOPMActionsmPj
__ZN14IOPMrootDomain38handleActivityTickleForDisplayWranglerEP9IOServiceP11IOPMActions
__ZN14IOPMrootDomain41handleUpdatePowerClientForDisplayWranglerEP9IOServiceP11IOPMActionsPK8OSSymbolmm
__ZN14IOPMrootDomain5startEP9IOService
__ZN14IOPMrootDomain9MetaClassC1Ev
__ZN14IOPMrootDomain9MetaClassC2Ev
__ZN14IOPMrootDomain9constructEv
__ZN14IOPMrootDomain9metaClassE
__ZN14IOPMrootDomainC1EPK11OSMetaClass
__ZN14IOPMrootDomainC1Ev
__ZN14IOPMrootDomainC2EPK11OSMetaClass
__ZN14IOPMrootDomainC2Ev
__ZN14IOPMrootDomainD0Ev
__ZN14IOPMrootDomainD1Ev
__ZN14IOPMrootDomainD2Ev
__ZN14PMEventDetails10gMetaClassE
__ZN14PMEventDetails10superClassE
__ZN14PMEventDetails12eventDetailsEjPKcjj
__ZN14PMEventDetails12eventDetailsEjPKcmS1_hhjj
__ZN14PMEventDetails9MetaClassC1Ev
__ZN14PMEventDetails9MetaClassC2Ev
__ZN14PMEventDetails9metaClassE
__ZN14PMEventDetailsC1EPK11OSMetaClass
__ZN14PMEventDetailsC1Ev
__ZN14PMEventDetailsC2EPK11OSMetaClass
__ZN14PMEventDetailsC2Ev
__ZN14PMEventDetailsD0Ev
__ZN14PMEventDetailsD1Ev
__ZN14PMEventDetailsD2Ev
__ZN15IOConditionLock10gMetaClassE
__ZN15IOConditionLock10superClassE
__ZN15IOConditionLock10unlockWithEi
__ZN15IOConditionLock12setConditionEi
__ZN15IOConditionLock13withConditionEib
__ZN15IOConditionLock17initWithConditionEib
__ZN15IOConditionLock4freeEv
__ZN15IOConditionLock4lockEv
__ZN15IOConditionLock6unlockEv
__ZN15IOConditionLock7tryLockEv
__ZN15IOConditionLock8lockWhenEi
__ZN15IOConditionLock9MetaClassC1Ev
__ZN15IOConditionLock9MetaClassC2Ev
__ZN15IOConditionLock9metaClassE
__ZN15IOConditionLockC1EPK11OSMetaClass
__ZN15IOConditionLockC1Ev
__ZN15IOConditionLockC2EPK11OSMetaClass
__ZN15IOConditionLockC2Ev
__ZN15IOConditionLockD0Ev
__ZN15IOConditionLockD1Ev
__ZN15IOConditionLockD2Ev
__ZN15IODMAController10gMetaClassE
__ZN15IODMAController10superClassE
__ZN15IODMAController13getControllerEP9IOServicej
__ZN15IODMAController16notifyDMACommandEP16IODMAEventSourceP12IODMACommandiyy
__ZN15IODMAController18completeDMACommandEP16IODMAEventSourceP12IODMACommand
__ZN15IODMAController20createControllerNameEj
__ZN15IODMAController21registerDMAControllerEj
__ZN15IODMAController5startEP9IOService
__ZN15IODMAController9MetaClassC1Ev
__ZN15IODMAController9MetaClassC2Ev
__ZN15IODMAController9metaClassE
__ZN15IODMAControllerC2EPK11OSMetaClass
__ZN15IODMAControllerD0Ev
__ZN15IODMAControllerD1Ev
__ZN15IODMAControllerD2Ev
__ZN15IOPMPowerSource10cycleCountEv
__ZN15IOPMPowerSource10gMetaClassE
__ZN15IOPMPowerSource10isChargingEv
__ZN15IOPMPowerSource10setVoltageEj
__ZN15IOPMPowerSource10superClassE
__ZN15IOPMPowerSource11adapterInfoEv
__ZN15IOPMPowerSource11atWarnLevelEv
__ZN15IOPMPowerSource11maxCapacityEv
__ZN15IOPMPowerSource11powerSourceEv
__ZN15IOPMPowerSource11setAmperageEi
__ZN15IOPMPowerSource11setLocationEi
__ZN15IOPMPowerSource12manufacturerEv
__ZN15IOPMPowerSource12updateStatusEv
__ZN15IOPMPowerSource13getPSPropertyEPK8OSSymbol
__ZN15IOPMPowerSource13setCycleCountEj
__ZN15IOPMPowerSource13setIsChargingEb
__ZN15IOPMPowerSource13setPSPropertyEPK8OSSymbolP8OSObject
__ZN15IOPMPowerSource13timeRemainingEv
__ZN15IOPMPowerSource14errorConditionEv
__ZN15IOPMPowerSource14setAdapterInfoEi
__ZN15IOPMPowerSource14setAtWarnLevelEb
__ZN15IOPMPowerSource14setMaxCapacityEj
__ZN15IOPMPowerSource15atCriticalLevelEv
__ZN15IOPMPowerSource15currentCapacityEv
__ZN15IOPMPowerSource15setManufacturerEP8OSSymbol
__ZN15IOPMPowerSource16batteryInstalledEv
__ZN15IOPMPowerSource16setTimeRemainingEi
__ZN15IOPMPowerSource17externalConnectedEv
__ZN15IOPMPowerSource17setErrorConditionEP8OSSymbol
__ZN15IOPMPowerSource18setAtCriticalLevelEb
__ZN15IOPMPowerSource18setCurrentCapacityEj
__ZN15IOPMPowerSource19legacyIOBatteryInfoEv
__ZN15IOPMPowerSource19setBatteryInstalledEb
__ZN15IOPMPowerSource20setExternalConnectedEb
__ZN15IOPMPowerSource21externalChargeCapableEv
__ZN15IOPMPowerSource22setLegacyIOBatteryInfoEP12OSDictionary
__ZN15IOPMPowerSource24capacityPercentRemainingEv
__ZN15IOPMPowerSource24setExternalChargeCapableEb
__ZN15IOPMPowerSource4freeEv
__ZN15IOPMPowerSource4initEv
__ZN15IOPMPowerSource5modelEv
__ZN15IOPMPowerSource6serialEv
__ZN15IOPMPowerSource7voltageEv
__ZN15IOPMPowerSource8amperageEv
__ZN15IOPMPowerSource8locationEv
__ZN15IOPMPowerSource8setModelEP8OSSymbol
__ZN15IOPMPowerSource9MetaClassC1Ev
__ZN15IOPMPowerSource9MetaClassC2Ev
__ZN15IOPMPowerSource9metaClassE
__ZN15IOPMPowerSource9setSerialEP8OSSymbol
__ZN15IOPMPowerSourceC1EPK11OSMetaClass
__ZN15IOPMPowerSourceC1Ev
__ZN15IOPMPowerSourceC2EPK11OSMetaClass
__ZN15IOPMPowerSourceC2Ev
__ZN15IOPMPowerSourceD0Ev
__ZN15IOPMPowerSourceD1Ev
__ZN15IOPMPowerSourceD2Ev
__ZN15IOPanicPlatform10gMetaClassE
__ZN15IOPanicPlatform10superClassE
__ZN15IOPanicPlatform5startEP9IOService
__ZN15IOPanicPlatform9MetaClassC1Ev
__ZN15IOPanicPlatform9MetaClassC2Ev
__ZN15IOPanicPlatform9metaClassE
__ZN15IOPanicPlatformC1EPK11OSMetaClass
__ZN15IOPanicPlatformC1Ev
__ZN15IOPanicPlatformC2EPK11OSMetaClass
__ZN15IOPanicPlatformC2Ev
__ZN15IOPanicPlatformD0Ev
__ZN15IOPanicPlatformD1Ev
__ZN15IOPanicPlatformD2Ev
__ZN15IORegistryEntry10gMetaClassE
__ZN15IORegistryEntry10initializeEv
__ZN15IORegistryEntry10superClassE
__ZN15IORegistryEntry11dealiasPathEPPKcPK15IORegistryPlane
__ZN15IORegistryEntry11detachAboveEPK15IORegistryPlane
__ZN15IORegistryEntry11setLocationEPK8OSSymbolPK15IORegistryPlane
__ZN15IORegistryEntry11setLocationEPKcPK15IORegistryPlane
__ZN15IORegistryEntry11setPropertyEPK8OSStringP8OSObject
__ZN15IORegistryEntry11setPropertyEPK8OSSymbolP8OSObject
__ZN15IORegistryEntry11setPropertyEPKcP8OSObject
__ZN15IORegistryEntry11setPropertyEPKcPvj
__ZN15IORegistryEntry11setPropertyEPKcS1_
__ZN15IORegistryEntry11setPropertyEPKcb
__ZN15IORegistryEntry11setPropertyEPKcyj
__ZN15IORegistryEntry13attachToChildEPS_PK15IORegistryPlane
__ZN15IORegistryEntry13childFromPathEPKcPK15IORegistryPlanePcPi
__ZN15IORegistryEntry13setPropertiesEP8OSObject
__ZN15IORegistryEntry14attachToParentEPS_PK15IORegistryPlane
__ZN15IORegistryEntry14removePropertyEPK8OSString
__ZN15IORegistryEntry14removePropertyEPK8OSSymbol
__ZN15IORegistryEntry14removePropertyEPKc
__ZN15IORegistryEntry15detachFromChildEPS_PK15IORegistryPlane
__ZN15IORegistryEntry15getRegistryRootEv
__ZN15IORegistryEntry16detachFromParentEPS_PK15IORegistryPlane
__ZN15IORegistryEntry16setPropertyTableEP12OSDictionary
__ZN15IORegistryEntry17matchPathLocationEPKcPK15IORegistryPlane
__ZN15IORegistryEntry17runPropertyActionEPFiP8OSObjectPvS2_S2_S2_ES1_S2_S2_S2_S2_
__ZN15IORegistryEntry18getGenerationCountEv
__ZN15IORegistryEntry18getRegistryEntryIDEv
__ZN15IORegistryEntry21getChildFromComponentEPPKcPK15IORegistryPlane
__ZN15IORegistryEntry25_RESERVEDIORegistryEntry0Ev
__ZN15IORegistryEntry25_RESERVEDIORegistryEntry1Ev
__ZN15IORegistryEntry25_RESERVEDIORegistryEntry2Ev
__ZN15IORegistryEntry25_RESERVEDIORegistryEntry3Ev
__ZN15IORegistryEntry25_RESERVEDIORegistryEntry4Ev
__ZN15IORegistryEntry25_RESERVEDIORegistryEntry5Ev
__ZN15IORegistryEntry25_RESERVEDIORegistryEntry6Ev
__ZN15IORegistryEntry25_RESERVEDIORegistryEntry7Ev
__ZN15IORegistryEntry25_RESERVEDIORegistryEntry8Ev
__ZN15IORegistryEntry25_RESERVEDIORegistryEntry9Ev
__ZN15IORegistryEntry26_RESERVEDIORegistryEntry10Ev
__ZN15IORegistryEntry26_RESERVEDIORegistryEntry11Ev
__ZN15IORegistryEntry26_RESERVEDIORegistryEntry12Ev
__ZN15IORegistryEntry26_RESERVEDIORegistryEntry13Ev
__ZN15IORegistryEntry26_RESERVEDIORegistryEntry14Ev
__ZN15IORegistryEntry26_RESERVEDIORegistryEntry15Ev
__ZN15IORegistryEntry26_RESERVEDIORegistryEntry16Ev
__ZN15IORegistryEntry26_RESERVEDIORegistryEntry17Ev
__ZN15IORegistryEntry26_RESERVEDIORegistryEntry18Ev
__ZN15IORegistryEntry26_RESERVEDIORegistryEntry19Ev
__ZN15IORegistryEntry26_RESERVEDIORegistryEntry20Ev
__ZN15IORegistryEntry26_RESERVEDIORegistryEntry21Ev
__ZN15IORegistryEntry26_RESERVEDIORegistryEntry22Ev
__ZN15IORegistryEntry26_RESERVEDIORegistryEntry23Ev
__ZN15IORegistryEntry26_RESERVEDIORegistryEntry24Ev
__ZN15IORegistryEntry26_RESERVEDIORegistryEntry25Ev
__ZN15IORegistryEntry26_RESERVEDIORegistryEntry26Ev
__ZN15IORegistryEntry26_RESERVEDIORegistryEntry27Ev
__ZN15IORegistryEntry26_RESERVEDIORegistryEntry28Ev
__ZN15IORegistryEntry26_RESERVEDIORegistryEntry29Ev
__ZN15IORegistryEntry26_RESERVEDIORegistryEntry30Ev
__ZN15IORegistryEntry26_RESERVEDIORegistryEntry31Ev
__ZN15IORegistryEntry4freeEv
__ZN15IORegistryEntry4initEP12OSDictionary
__ZN15IORegistryEntry4initEPS_PK15IORegistryPlane
__ZN15IORegistryEntry7setNameEPK8OSSymbolPK15IORegistryPlane
__ZN15IORegistryEntry7setNameEPKcPK15IORegistryPlane
__ZN15IORegistryEntry8fromPathEPKcPK15IORegistryPlanePcPiPS_
__ZN15IORegistryEntry8getPlaneEPKc
__ZN15IORegistryEntry9MetaClassC1Ev
__ZN15IORegistryEntry9MetaClassC2Ev
__ZN15IORegistryEntry9detachAllEPK15IORegistryPlane
__ZN15IORegistryEntry9makePlaneEPKc
__ZN15IORegistryEntry9metaClassE
__ZN15IORegistryEntryC1EPK11OSMetaClass
__ZN15IORegistryEntryC1Ev
__ZN15IORegistryEntryC2EPK11OSMetaClass
__ZN15IORegistryEntryC2Ev
__ZN15IORegistryEntryD0Ev
__ZN15IORegistryEntryD1Ev
__ZN15IORegistryEntryD2Ev
__ZN15IORegistryPlane10gMetaClassE
__ZN15IORegistryPlane10superClassE
__ZN15IORegistryPlane9MetaClassC1Ev
__ZN15IORegistryPlane9MetaClassC2Ev
__ZN15IORegistryPlane9metaClassE
__ZN15IORegistryPlaneC1EPK11OSMetaClass
__ZN15IORegistryPlaneC1Ev
__ZN15IORegistryPlaneC2EPK11OSMetaClass
__ZN15IORegistryPlaneC2Ev
__ZN15IORegistryPlaneD0Ev
__ZN15IORegistryPlaneD1Ev
__ZN15IORegistryPlaneD2Ev
__ZN15IOWatchDogTimer10gMetaClassE
__ZN15IOWatchDogTimer10superClassE
__ZN15IOWatchDogTimer13setPropertiesEP8OSObject
__ZN15IOWatchDogTimer25_RESERVEDIOWatchDogTimer0Ev
__ZN15IOWatchDogTimer25_RESERVEDIOWatchDogTimer1Ev
__ZN15IOWatchDogTimer25_RESERVEDIOWatchDogTimer2Ev
__ZN15IOWatchDogTimer25_RESERVEDIOWatchDogTimer3Ev
__ZN15IOWatchDogTimer4stopEP9IOService
__ZN15IOWatchDogTimer5startEP9IOService
__ZN15IOWatchDogTimer9MetaClassC1Ev
__ZN15IOWatchDogTimer9MetaClassC2Ev
__ZN15IOWatchDogTimer9metaClassE
__ZN15IOWatchDogTimerC2EPK11OSMetaClass
__ZN15IOWatchDogTimerD0Ev
__ZN15IOWatchDogTimerD1Ev
__ZN15IOWatchDogTimerD2Ev
__ZN15OSMetaClassBase10initializeEv
__ZN15OSMetaClassBase12safeMetaCastEPKS_PK11OSMetaClass
__ZN15OSMetaClassBase13checkTypeInstEPKS_S1_
__ZN15OSMetaClassBase25_RESERVEDOSMetaClassBase3Ev
__ZN15OSMetaClassBase25_RESERVEDOSMetaClassBase4Ev
__ZN15OSMetaClassBase25_RESERVEDOSMetaClassBase5Ev
__ZN15OSMetaClassBase25_RESERVEDOSMetaClassBase6Ev
__ZN15OSMetaClassBase25_RESERVEDOSMetaClassBase7Ev
__ZN15OSMetaClassBaseC2Ev
__ZN15OSMetaClassBaseD0Ev
__ZN15OSMetaClassBaseD1Ev
__ZN15OSMetaClassBaseD2Ev
__ZN15OSMetaClassMetaC1Ev
__ZN15OSMetaClassMetaC2Ev
__ZN15PMSettingHandle10gMetaClassE
__ZN15PMSettingHandle10superClassE
__ZN15PMSettingHandle4freeEv
__ZN15PMSettingHandle9MetaClassC1Ev
__ZN15PMSettingHandle9MetaClassC2Ev
__ZN15PMSettingHandle9metaClassE
__ZN15PMSettingHandleC1EPK11OSMetaClass
__ZN15PMSettingHandleC1Ev
__ZN15PMSettingHandleC2EPK11OSMetaClass
__ZN15PMSettingHandleC2Ev
__ZN15PMSettingHandleD0Ev
__ZN15PMSettingHandleD1Ev
__ZN15PMSettingHandleD2Ev
__ZN15PMSettingObject10gMetaClassE
__ZN15PMSettingObject10superClassE
__ZN15PMSettingObject14__OSFinalClassEv
__ZN15PMSettingObject15pmSettingObjectEP14IOPMrootDomainPFiP8OSObjectPK8OSSymbolS3_mES3_mjPS6_PS3_
__ZN15PMSettingObject17clientHandleFreedEv
__ZN15PMSettingObject17dispatchPMSettingEPK8OSSymbolP8OSObject
__ZN15PMSettingObject4freeEv
__ZN15PMSettingObject9MetaClassC1Ev
__ZN15PMSettingObject9MetaClassC2Ev
__ZN15PMSettingObject9metaClassE
__ZN15PMSettingObjectC1EPK11OSMetaClass
__ZN15PMSettingObjectC1Ev
__ZN15PMSettingObjectC2EPK11OSMetaClass
__ZN15PMSettingObjectC2Ev
__ZN15PMSettingObjectD0Ev
__ZN15PMSettingObjectD1Ev
__ZN15PMSettingObjectD2Ev
__ZN15_IOConfigThread10gMetaClassE
__ZN15_IOConfigThread10superClassE
__ZN15_IOConfigThread12configThreadEv
__ZN15_IOConfigThread4freeEv
__ZN15_IOConfigThread4mainEPvi
__ZN15_IOConfigThread9MetaClassC1Ev
__ZN15_IOConfigThread9MetaClassC2Ev
__ZN15_IOConfigThread9metaClassE
__ZN15_IOConfigThreadC1EPK11OSMetaClass
__ZN15_IOConfigThreadC1Ev
__ZN15_IOConfigThreadC2EPK11OSMetaClass
__ZN15_IOConfigThreadC2Ev
__ZN15_IOConfigThreadD0Ev
__ZN15_IOConfigThreadD1Ev
__ZN15_IOConfigThreadD2Ev
__ZN16IODMAEventSource10gMetaClassE
__ZN16IODMAEventSource10superClassE
__ZN16IODMAEventSource12checkForWorkEv
__ZN16IODMAEventSource12getFIFODepthEj
__ZN16IODMAEventSource12setDMAConfigEj
__ZN16IODMAEventSource12setFIFODepthEy
__ZN16IODMAEventSource14dmaEventSourceEP8OSObjectP9IOServicePFvS1_PS_P12IODMACommandiyyES8_j
__ZN16IODMAEventSource14stopDMACommandEby
__ZN16IODMAEventSource14validDMAConfigEj
__ZN16IODMAEventSource14validFIFODepthEyj
__ZN16IODMAEventSource15queryDMACommandEPP12IODMACommandPyb
__ZN16IODMAEventSource15startDMACommandEP12IODMACommandjyy
__ZN16IODMAEventSource16notifyDMACommandEP12IODMACommandiyy
__ZN16IODMAEventSource18completeDMACommandEP12IODMACommand
__ZN16IODMAEventSource4freeEv
__ZN16IODMAEventSource4initEP8OSObjectP9IOServicePFvS1_PS_P12IODMACommandiyyES8_j
__ZN16IODMAEventSource9MetaClassC1Ev
__ZN16IODMAEventSource9MetaClassC2Ev
__ZN16IODMAEventSource9metaClassE
__ZN16IODMAEventSourceC1EPK11OSMetaClass
__ZN16IODMAEventSourceC1Ev
__ZN16IODMAEventSourceC2EPK11OSMetaClass
__ZN16IODMAEventSourceC2Ev
__ZN16IODMAEventSourceD0Ev
__ZN16IODMAEventSourceD1Ev
__ZN16IODMAEventSourceD2Ev
__ZN16IOKitDiagnostics10gMetaClassE
__ZN16IOKitDiagnostics10superClassE
__ZN16IOKitDiagnostics11diagnosticsEv
__ZN16IOKitDiagnostics12updateOffsetEP12OSDictionaryjPKc
__ZN16IOKitDiagnostics9MetaClassC1Ev
__ZN16IOKitDiagnostics9MetaClassC2Ev
__ZN16IOKitDiagnostics9metaClassE
__ZN16IOKitDiagnosticsC1EPK11OSMetaClass
__ZN16IOKitDiagnosticsC1Ev
__ZN16IOKitDiagnosticsC2EPK11OSMetaClass
__ZN16IOKitDiagnosticsC2Ev
__ZN16IOKitDiagnosticsD0Ev
__ZN16IOKitDiagnosticsD1Ev
__ZN16IOKitDiagnosticsD2Ev
__ZN16IOPMRequestQueue10gMetaClassE
__ZN16IOPMRequestQueue10superClassE
__ZN16IOPMRequestQueue12checkForWorkEv
__ZN16IOPMRequestQueue14queuePMRequestEP11IOPMRequest
__ZN16IOPMRequestQueue19queuePMRequestChainEPP11IOPMRequestj
__ZN16IOPMRequestQueue4freeEv
__ZN16IOPMRequestQueue4initEP9IOServicePFbS1_P11IOPMRequestPS_E
__ZN16IOPMRequestQueue6createEP9IOServicePFbS1_P11IOPMRequestPS_E
__ZN16IOPMRequestQueue9MetaClassC1Ev
__ZN16IOPMRequestQueue9MetaClassC2Ev
__ZN16IOPMRequestQueue9metaClassE
__ZN16IOPMRequestQueueC1EPK11OSMetaClass
__ZN16IOPMRequestQueueC1Ev
__ZN16IOPMRequestQueueC2EPK11OSMetaClass
__ZN16IOPMRequestQueueC2Ev
__ZN16IOPMRequestQueueD0Ev
__ZN16IOPMRequestQueueD1Ev
__ZN16IOPMRequestQueueD2Ev
__ZN16IOPMinformeeList10gMetaClassE
__ZN16IOPMinformeeList10initializeEv
__ZN16IOPMinformeeList10nextInListEP12IOPMinformee
__ZN16IOPMinformeeList10superClassE
__ZN16IOPMinformeeList11firstInListEv
__ZN16IOPMinformeeList13numberOfItemsEv
__ZN16IOPMinformeeList14removeFromListEP9IOService
__ZN16IOPMinformeeList17appendNewInformeeEP9IOService
__ZN16IOPMinformeeList22getSharedRecursiveLockEv
__ZN16IOPMinformeeList4freeEv
__ZN16IOPMinformeeList8findItemEP9IOService
__ZN16IOPMinformeeList9MetaClassC1Ev
__ZN16IOPMinformeeList9MetaClassC2Ev
__ZN16IOPMinformeeList9addToListEP12IOPMinformee
__ZN16IOPMinformeeList9metaClassE
__ZN16IOPMinformeeListC1EPK11OSMetaClass
__ZN16IOPMinformeeListC1Ev
__ZN16IOPMinformeeListC2EPK11OSMetaClass
__ZN16IOPMinformeeListC2Ev
__ZN16IOPMinformeeListD0Ev
__ZN16IOPMinformeeListD1Ev
__ZN16IOPMinformeeListD2Ev
__ZN16IOPlatformDevice10gMetaClassE
__ZN16IOPlatformDevice10superClassE
__ZN16IOPlatformDevice12getResourcesEv
__ZN16IOPlatformDevice13matchLocationEP9IOService
__ZN16IOPlatformDevice26_RESERVEDIOPlatformDevice0Ev
__ZN16IOPlatformDevice26_RESERVEDIOPlatformDevice1Ev
__ZN16IOPlatformDevice26_RESERVEDIOPlatformDevice2Ev
__ZN16IOPlatformDevice26_RESERVEDIOPlatformDevice3Ev
__ZN16IOPlatformDevice9MetaClassC1Ev
__ZN16IOPlatformDevice9MetaClassC2Ev
__ZN16IOPlatformDevice9metaClassE
__ZN16IOPlatformDeviceC1EPK11OSMetaClass
__ZN16IOPlatformDeviceC1Ev
__ZN16IOPlatformDeviceC2EPK11OSMetaClass
__ZN16IOPlatformDeviceC2Ev
__ZN16IOPlatformDeviceD0Ev
__ZN16IOPlatformDeviceD1Ev
__ZN16IOPlatformDeviceD2Ev
__ZN16IOPlatformExpert10gMetaClassE
__ZN16IOPlatformExpert10superClassE
__ZN16IOPlatformExpert11haltRestartEj
__ZN16IOPlatformExpert11sleepKernelEv
__ZN16IOPlatformExpert12CheckSubTreeEP7OSArrayP9IOServiceS3_P12OSDictionary
__ZN16IOPlatformExpert12getModelNameEPci
__ZN16IOPlatformExpert12hasPMFeatureEm
__ZN16IOPlatformExpert13savePanicInfoEPhy
__ZN16IOPlatformExpert14getBootROMTypeEv
__ZN16IOPlatformExpert14getChipSetTypeEv
__ZN16IOPlatformExpert14getConsoleInfoEP8PE_Video
__ZN16IOPlatformExpert14getMachineNameEPci
__ZN16IOPlatformExpert14getMachineTypeEv
__ZN16IOPlatformExpert14setBootROMTypeEl
__ZN16IOPlatformExpert14setChipSetTypeEl
__ZN16IOPlatformExpert14setConsoleInfoEP8PE_Videoj
__ZN16IOPlatformExpert14setMachineTypeEl
__ZN16IOPlatformExpert15getGMTTimeOfDayEv
__ZN16IOPlatformExpert15getNubResourcesEP9IOService
__ZN16IOPlatformExpert15setGMTTimeOfDayEl
__ZN16IOPlatformExpert16PMRegisterDeviceEP9IOServiceS1_
__ZN16IOPlatformExpert16atInterruptLevelEv
__ZN16IOPlatformExpert16hasPrivPMFeatureEm
__ZN16IOPlatformExpert20callPlatformFunctionEPK8OSSymbolbPvS3_S3_S3_
__ZN16IOPlatformExpert21RegisterServiceInTreeEP9IOServiceP12OSDictionaryS3_S1_
__ZN16IOPlatformExpert21numBatteriesSupportedEv
__ZN16IOPlatformExpert21platformAdjustServiceEP9IOService
__ZN16IOPlatformExpert23registerNVRAMControllerEP17IONVRAMController
__ZN16IOPlatformExpert25PMInstantiatePowerDomainsEv
__ZN16IOPlatformExpert25getPhysicalRangeAllocatorEv
__ZN16IOPlatformExpert25lookUpInterruptControllerEP8OSSymbol
__ZN16IOPlatformExpert25setCPUInterruptPropertiesEP9IOService
__ZN16IOPlatformExpert26_RESERVEDIOPlatformExpert2Ev
__ZN16IOPlatformExpert26_RESERVEDIOPlatformExpert3Ev
__ZN16IOPlatformExpert26_RESERVEDIOPlatformExpert4Ev
__ZN16IOPlatformExpert26_RESERVEDIOPlatformExpert5Ev
__ZN16IOPlatformExpert26_RESERVEDIOPlatformExpert6Ev
__ZN16IOPlatformExpert26_RESERVEDIOPlatformExpert7Ev
__ZN16IOPlatformExpert26_RESERVEDIOPlatformExpert8Ev
__ZN16IOPlatformExpert26_RESERVEDIOPlatformExpert9Ev
__ZN16IOPlatformExpert27_RESERVEDIOPlatformExpert10Ev
__ZN16IOPlatformExpert27_RESERVEDIOPlatformExpert11Ev
__ZN16IOPlatformExpert27registerInterruptControllerEP8OSSymbolP21IOInterruptController
__ZN16IOPlatformExpert30createSystemSerialNumberStringEP6OSData
__ZN16IOPlatformExpert5PMLogEPKcmmm
__ZN16IOPlatformExpert5startEP9IOService
__ZN16IOPlatformExpert6attachEP9IOService
__ZN16IOPlatformExpert9MetaClassC1Ev
__ZN16IOPlatformExpert9MetaClassC2Ev
__ZN16IOPlatformExpert9configureEP9IOService
__ZN16IOPlatformExpert9createNubEP12OSDictionary
__ZN16IOPlatformExpert9metaClassE
__ZN16IOPlatformExpertC1EPK11OSMetaClass
__ZN16IOPlatformExpertC1Ev
__ZN16IOPlatformExpertC2EPK11OSMetaClass
__ZN16IOPlatformExpertC2Ev
__ZN16IOPlatformExpertD0Ev
__ZN16IOPlatformExpertD1Ev
__ZN16IOPlatformExpertD2Ev
__ZN16IORangeAllocator10deallocateEyy
__ZN16IORangeAllocator10gMetaClassE
__ZN16IORangeAllocator10superClassE
__ZN16IORangeAllocator12allocElementEj
__ZN16IORangeAllocator12getFreeCountEv
__ZN16IORangeAllocator13allocateRangeEyy
__ZN16IORangeAllocator14deallocElementEj
__ZN16IORangeAllocator16getFragmentCountEv
__ZN16IORangeAllocator19getFragmentCapacityEv
__ZN16IORangeAllocator28setFragmentCapacityIncrementEj
__ZN16IORangeAllocator4freeEv
__ZN16IORangeAllocator4initEyyjj
__ZN16IORangeAllocator8allocateEyPyy
__ZN16IORangeAllocator9MetaClassC1Ev
__ZN16IORangeAllocator9MetaClassC2Ev
__ZN16IORangeAllocator9metaClassE
__ZN16IORangeAllocator9withRangeEyyjj
__ZN16IORangeAllocatorC1EPK11OSMetaClass
__ZN16IORangeAllocatorC1Ev
__ZN16IORangeAllocatorC2EPK11OSMetaClass
__ZN16IORangeAllocatorC2Ev
__ZN16IORangeAllocatorD0Ev
__ZN16IORangeAllocatorD1Ev
__ZN16IORangeAllocatorD2Ev
__ZN17IOBigMemoryCursor10gMetaClassE
__ZN17IOBigMemoryCursor10superClassE
__ZN17IOBigMemoryCursor13outputSegmentEN14IOMemoryCursor15PhysicalSegmentEPvj
__ZN17IOBigMemoryCursor17withSpecificationEyyy
__ZN17IOBigMemoryCursor21initWithSpecificationEyyy
__ZN17IOBigMemoryCursor9MetaClassC1Ev
__ZN17IOBigMemoryCursor9MetaClassC2Ev
__ZN17IOBigMemoryCursor9metaClassE
__ZN17IOBigMemoryCursorC1EPK11OSMetaClass
__ZN17IOBigMemoryCursorC1Ev
__ZN17IOBigMemoryCursorC2EPK11OSMetaClass
__ZN17IOBigMemoryCursorC2Ev
__ZN17IOBigMemoryCursorD0Ev
__ZN17IOBigMemoryCursorD1Ev
__ZN17IOBigMemoryCursorD2Ev
__ZN17IOPolledInterface10gMetaClassE
__ZN17IOPolledInterface10superClassE
__ZN17IOPolledInterface15checkAllForWorkEv
__ZN17IOPolledInterface27_RESERVEDIOPolledInterface0Ev
__ZN17IOPolledInterface27_RESERVEDIOPolledInterface1Ev
__ZN17IOPolledInterface27_RESERVEDIOPolledInterface2Ev
__ZN17IOPolledInterface27_RESERVEDIOPolledInterface3Ev
__ZN17IOPolledInterface27_RESERVEDIOPolledInterface4Ev
__ZN17IOPolledInterface27_RESERVEDIOPolledInterface5Ev
__ZN17IOPolledInterface27_RESERVEDIOPolledInterface6Ev
__ZN17IOPolledInterface27_RESERVEDIOPolledInterface7Ev
__ZN17IOPolledInterface27_RESERVEDIOPolledInterface8Ev
__ZN17IOPolledInterface27_RESERVEDIOPolledInterface9Ev
__ZN17IOPolledInterface28_RESERVEDIOPolledInterface10Ev
__ZN17IOPolledInterface28_RESERVEDIOPolledInterface11Ev
__ZN17IOPolledInterface28_RESERVEDIOPolledInterface12Ev
__ZN17IOPolledInterface28_RESERVEDIOPolledInterface13Ev
__ZN17IOPolledInterface28_RESERVEDIOPolledInterface14Ev
__ZN17IOPolledInterface28_RESERVEDIOPolledInterface15Ev
__ZN17IOPolledInterface9MetaClassC1Ev
__ZN17IOPolledInterface9MetaClassC2Ev
__ZN17IOPolledInterface9metaClassE
__ZN17IOPolledInterfaceC2EPK11OSMetaClass
__ZN17IOPolledInterfaceD0Ev
__ZN17IOPolledInterfaceD1Ev
__ZN17IOPolledInterfaceD2Ev
__ZN17IOPowerConnection10gMetaClassE
__ZN17IOPowerConnection10superClassE
__ZN17IOPowerConnection12setReadyFlagEb
__ZN17IOPowerConnection14getAwaitingAckEv
__ZN17IOPowerConnection14setAwaitingAckEb
__ZN17IOPowerConnection16parentKnowsStateEv
__ZN17IOPowerConnection19setParentKnowsStateEb
__ZN17IOPowerConnection21getDesiredDomainStateEv
__ZN17IOPowerConnection21setDesiredDomainStateEm
__ZN17IOPowerConnection22childHasRequestedPowerEv
__ZN17IOPowerConnection23getPreventIdleSleepFlagEv
__ZN17IOPowerConnection23parentCurrentPowerFlagsEv
__ZN17IOPowerConnection23setPreventIdleSleepFlagEm
__ZN17IOPowerConnection25getPreventSystemSleepFlagEv
__ZN17IOPowerConnection25setChildHasRequestedPowerEv
__ZN17IOPowerConnection25setPreventSystemSleepFlagEm
__ZN17IOPowerConnection26setParentCurrentPowerFlagsEm
__ZN17IOPowerConnection9MetaClassC1Ev
__ZN17IOPowerConnection9MetaClassC2Ev
__ZN17IOPowerConnection9metaClassE
__ZN17IOPowerConnectionC1EPK11OSMetaClass
__ZN17IOPowerConnectionC1Ev
__ZN17IOPowerConnectionC2EPK11OSMetaClass
__ZN17IOPowerConnectionC2Ev
__ZN17IOPowerConnectionD0Ev
__ZN17IOPowerConnectionD1Ev
__ZN17IOPowerConnectionD2Ev
__ZN17IOSharedDataQueue10gMetaClassE
__ZN17IOSharedDataQueue10superClassE
__ZN17IOSharedDataQueue11withEntriesEjj
__ZN17IOSharedDataQueue12getQueueSizeEv
__ZN17IOSharedDataQueue12setQueueSizeEj
__ZN17IOSharedDataQueue12withCapacityEj
__ZN17IOSharedDataQueue16initWithCapacityEj
__ZN17IOSharedDataQueue19getMemoryDescriptorEv
__ZN17IOSharedDataQueue27_RESERVEDIOSharedDataQueue0Ev
__ZN17IOSharedDataQueue27_RESERVEDIOSharedDataQueue1Ev
__ZN17IOSharedDataQueue27_RESERVEDIOSharedDataQueue2Ev
__ZN17IOSharedDataQueue27_RESERVEDIOSharedDataQueue3Ev
__ZN17IOSharedDataQueue27_RESERVEDIOSharedDataQueue4Ev
__ZN17IOSharedDataQueue27_RESERVEDIOSharedDataQueue5Ev
__ZN17IOSharedDataQueue27_RESERVEDIOSharedDataQueue6Ev
__ZN17IOSharedDataQueue27_RESERVEDIOSharedDataQueue7Ev
__ZN17IOSharedDataQueue4freeEv
__ZN17IOSharedDataQueue4peekEv
__ZN17IOSharedDataQueue7dequeueEPvPj
__ZN17IOSharedDataQueue7enqueueEPvj
__ZN17IOSharedDataQueue9MetaClassC1Ev
__ZN17IOSharedDataQueue9MetaClassC2Ev
__ZN17IOSharedDataQueue9metaClassE
__ZN17IOSharedDataQueueC1EPK11OSMetaClass
__ZN17IOSharedDataQueueC1Ev
__ZN17IOSharedDataQueueC2EPK11OSMetaClass
__ZN17IOSharedDataQueueC2Ev
__ZN17IOSharedDataQueueD0Ev
__ZN17IOSharedDataQueueD1Ev
__ZN17IOSharedDataQueueD2Ev
__ZN17IOWorkLoopCounter14loadTagCompareEP20IOWorkLoopDependencyS1_
__ZN17IOWorkLoopCounter22DependencyTree_RB_FINDEPNS_14DependencyTreeEP20IOWorkLoopDependency
__ZN17IOWorkLoopCounter22DependencyTree_RB_NEXTEP20IOWorkLoopDependency
__ZN17IOWorkLoopCounter24DependencyTree_RB_INSERTEPNS_14DependencyTreeEP20IOWorkLoopDependency
__ZN17IOWorkLoopCounter24DependencyTree_RB_MINMAXEPNS_14DependencyTreeEi
__ZN17IOWorkLoopCounter24DependencyTree_RB_REMOVEEPNS_14DependencyTreeEP20IOWorkLoopDependency
__ZN17IOWorkLoopCounter26DependencyTree_RB_GETCOLOREP20IOWorkLoopDependency
__ZN17IOWorkLoopCounter26DependencyTree_RB_SETCOLOREP20IOWorkLoopDependencyi
__ZN17IOWorkLoopCounter27DependencyTree_RB_GETPARENTEP20IOWorkLoopDependency
__ZN17IOWorkLoopCounter27DependencyTree_RB_SETPARENTEP20IOWorkLoopDependencyS1_
__ZN17IOWorkLoopCounter30DependencyTree_RB_INSERT_COLOREPNS_14DependencyTreeEP20IOWorkLoopDependency
__ZN17IOWorkLoopCounter30DependencyTree_RB_REMOVE_COLOREPNS_14DependencyTreeEP20IOWorkLoopDependencyS3_
__ZN18IODTPlatformExpert10createNubsEP9IOServiceP10OSIterator
__ZN18IODTPlatformExpert10gMetaClassE
__ZN18IODTPlatformExpert10superClassE
__ZN18IODTPlatformExpert10writeXPRAMEyPhy
__ZN18IODTPlatformExpert11haltRestartEj
__ZN18IODTPlatformExpert12getModelNameEPci
__ZN18IODTPlatformExpert13savePanicInfoEPhy
__ZN18IODTPlatformExpert14getMachineNameEPci
__ZN18IODTPlatformExpert15getNubResourcesEP9IOService
__ZN18IODTPlatformExpert15processTopLevelEP15IORegistryEntry
__ZN18IODTPlatformExpert17readNVRAMPropertyEP15IORegistryEntryPPK8OSSymbolPP6OSData
__ZN18IODTPlatformExpert18getNVRAMPartitionsEv
__ZN18IODTPlatformExpert18readNVRAMPartitionEPK8OSSymbolyPhy
__ZN18IODTPlatformExpert18writeNVRAMPropertyEP15IORegistryEntryPK8OSSymbolP6OSData
__ZN18IODTPlatformExpert19writeNVRAMPartitionEPK8OSSymbolyPhy
__ZN18IODTPlatformExpert23registerNVRAMControllerEP17IONVRAMController
__ZN18IODTPlatformExpert28_RESERVEDIODTPlatformExpert0Ev
__ZN18IODTPlatformExpert28_RESERVEDIODTPlatformExpert1Ev
__ZN18IODTPlatformExpert28_RESERVEDIODTPlatformExpert2Ev
__ZN18IODTPlatformExpert28_RESERVEDIODTPlatformExpert3Ev
__ZN18IODTPlatformExpert28_RESERVEDIODTPlatformExpert4Ev
__ZN18IODTPlatformExpert28_RESERVEDIODTPlatformExpert5Ev
__ZN18IODTPlatformExpert28_RESERVEDIODTPlatformExpert6Ev
__ZN18IODTPlatformExpert28_RESERVEDIODTPlatformExpert7Ev
__ZN18IODTPlatformExpert30createSystemSerialNumberStringEP6OSData
__ZN18IODTPlatformExpert5probeEP9IOServicePi
__ZN18IODTPlatformExpert9MetaClassC1Ev
__ZN18IODTPlatformExpert9MetaClassC2Ev
__ZN18IODTPlatformExpert9configureEP9IOService
__ZN18IODTPlatformExpert9createNubEP15IORegistryEntry
__ZN18IODTPlatformExpert9metaClassE
__ZN18IODTPlatformExpert9readXPRAMEyPhy
__ZN18IODTPlatformExpertC2EPK11OSMetaClass
__ZN18IODTPlatformExpertD0Ev
__ZN18IODTPlatformExpertD1Ev
__ZN18IODTPlatformExpertD2Ev
__ZN18IOMemoryDescriptor10addMappingEP11IOMemoryMap
__ZN18IOMemoryDescriptor10gMetaClassE
__ZN18IOMemoryDescriptor10initializeEv
__ZN18IOMemoryDescriptor10setMappingEP4taskyj
__ZN18IOMemoryDescriptor10superClassE
__ZN18IOMemoryDescriptor10writeBytesEyPKvy
__ZN18IOMemoryDescriptor11handleFaultEPvP7_vm_mapyyyj
__ZN18IOMemoryDescriptor11makeMappingEPS_P4taskyjyy
__ZN18IOMemoryDescriptor11withAddressEPvyj
__ZN18IOMemoryDescriptor11withOptionsEPvjjP4taskjP8IOMapper
__ZN18IOMemoryDescriptor12setPurgeableEjPj
__ZN18IOMemoryDescriptor13getPageCountsEPyS0_
__ZN18IOMemoryDescriptor13removeMappingEP11IOMemoryMap
__ZN18IOMemoryDescriptor15initWithOptionsEPvjjP4taskjP8IOMapper
__ZN18IOMemoryDescriptor16getPreparationIDEv
__ZN18IOMemoryDescriptor16performOperationEjyy
__ZN18IOMemoryDescriptor16setPreparationIDEv
__ZN18IOMemoryDescriptor16withAddressRangeEyyjP4task
__ZN18IOMemoryDescriptor17getKernelReservedEv
__ZN18IOMemoryDescriptor17withAddressRangesEP14IOVirtualRangejjP4task
__ZN18IOMemoryDescriptor18getPhysicalAddressEv
__ZN18IOMemoryDescriptor19createMappingInTaskEP4taskyjyy
__ZN18IOMemoryDescriptor19withPhysicalAddressEyyj
__ZN18IOMemoryDescriptor28_RESERVEDIOMemoryDescriptor1Ev
__ZN18IOMemoryDescriptor28_RESERVEDIOMemoryDescriptor2Ev
__ZN18IOMemoryDescriptor28_RESERVEDIOMemoryDescriptor3Ev
__ZN18IOMemoryDescriptor28_RESERVEDIOMemoryDescriptor4Ev
__ZN18IOMemoryDescriptor28_RESERVEDIOMemoryDescriptor5Ev
__ZN18IOMemoryDescriptor28_RESERVEDIOMemoryDescriptor6Ev
__ZN18IOMemoryDescriptor28_RESERVEDIOMemoryDescriptor7Ev
__ZN18IOMemoryDescriptor28_RESERVEDIOMemoryDescriptor8Ev
__ZN18IOMemoryDescriptor28_RESERVEDIOMemoryDescriptor9Ev
__ZN18IOMemoryDescriptor29_RESERVEDIOMemoryDescriptor10Ev
__ZN18IOMemoryDescriptor29_RESERVEDIOMemoryDescriptor11Ev
__ZN18IOMemoryDescriptor29_RESERVEDIOMemoryDescriptor12Ev
__ZN18IOMemoryDescriptor29_RESERVEDIOMemoryDescriptor13Ev
__ZN18IOMemoryDescriptor29_RESERVEDIOMemoryDescriptor14Ev
__ZN18IOMemoryDescriptor29_RESERVEDIOMemoryDescriptor15Ev
__ZN18IOMemoryDescriptor30withPersistentMemoryDescriptorEPS_
__ZN18IOMemoryDescriptor3mapEj
__ZN18IOMemoryDescriptor4freeEv
__ZN18IOMemoryDescriptor5doMapEP7_vm_mapPyjyy
__ZN18IOMemoryDescriptor6dmaMapEP8IOMapperPK21IODMAMapSpecificationyyPyPj
__ZN18IOMemoryDescriptor6getTagEv
__ZN18IOMemoryDescriptor6setTagEj
__ZN18IOMemoryDescriptor7doUnmapEP7_vm_mapyy
__ZN18IOMemoryDescriptor8redirectEP4taskb
__ZN18IOMemoryDescriptor9MetaClassC1Ev
__ZN18IOMemoryDescriptor9MetaClassC2Ev
__ZN18IOMemoryDescriptor9metaClassE
__ZN18IOMemoryDescriptor9readBytesEyPvy
__ZN18IOMemoryDescriptorC2EPK11OSMetaClass
__ZN18IOMemoryDescriptorD0Ev
__ZN18IOMemoryDescriptorD1Ev
__ZN18IOMemoryDescriptorD2Ev
__ZN18IORegistryIterator10enterEntryEPK15IORegistryPlane
__ZN18IORegistryIterator10enterEntryEv
__ZN18IORegistryIterator10gMetaClassE
__ZN18IORegistryIterator10iterateAllEv
__ZN18IORegistryIterator10superClassE
__ZN18IORegistryIterator11iterateOverEP15IORegistryEntryPK15IORegistryPlanej
__ZN18IORegistryIterator11iterateOverEPK15IORegistryPlanej
__ZN18IORegistryIterator13getNextObjectEv
__ZN18IORegistryIterator15getCurrentEntryEv
__ZN18IORegistryIterator17getNextObjectFlatEv
__ZN18IORegistryIterator22getNextObjectRecursiveEv
__ZN18IORegistryIterator4freeEv
__ZN18IORegistryIterator5resetEv
__ZN18IORegistryIterator7isValidEv
__ZN18IORegistryIterator9MetaClassC1Ev
__ZN18IORegistryIterator9MetaClassC2Ev
__ZN18IORegistryIterator9exitEntryEv
__ZN18IORegistryIterator9metaClassE
__ZN18IORegistryIteratorC1EPK11OSMetaClass
__ZN18IORegistryIteratorC1Ev
__ZN18IORegistryIteratorC2EPK11OSMetaClass
__ZN18IORegistryIteratorC2Ev
__ZN18IORegistryIteratorD0Ev
__ZN18IORegistryIteratorD1Ev
__ZN18IORegistryIteratorD2Ev
__ZN18IOTimerEventSource10gMetaClassE
__ZN18IOTimerEventSource10setTimeoutEjj
__ZN18IOTimerEventSource10setTimeoutEy
__ZN18IOTimerEventSource10superClassE
__ZN18IOTimerEventSource10wakeAtTimeEjj
__ZN18IOTimerEventSource10wakeAtTimeEy
__ZN18IOTimerEventSource11setWorkLoopEP10IOWorkLoop
__ZN18IOTimerEventSource12setTimeoutMSEj
__ZN18IOTimerEventSource12setTimeoutUSEj
__ZN18IOTimerEventSource12wakeAtTimeMSEj
__ZN18IOTimerEventSource12wakeAtTimeUSEj
__ZN18IOTimerEventSource13cancelTimeoutEv
__ZN18IOTimerEventSource14setTimeoutFuncEv
__ZN18IOTimerEventSource15setTimeoutTicksEj
__ZN18IOTimerEventSource15wakeAtTimeTicksEj
__ZN18IOTimerEventSource16timerEventSourceEP8OSObjectPFvS1_PS_E
__ZN18IOTimerEventSource17timeoutAndReleaseEPvS0_
__ZN18IOTimerEventSource28_RESERVEDIOTimerEventSource0Ev
__ZN18IOTimerEventSource28_RESERVEDIOTimerEventSource1Ev
__ZN18IOTimerEventSource28_RESERVEDIOTimerEventSource2Ev
__ZN18IOTimerEventSource28_RESERVEDIOTimerEventSource3Ev
__ZN18IOTimerEventSource28_RESERVEDIOTimerEventSource4Ev
__ZN18IOTimerEventSource28_RESERVEDIOTimerEventSource5Ev
__ZN18IOTimerEventSource28_RESERVEDIOTimerEventSource6Ev
__ZN18IOTimerEventSource28_RESERVEDIOTimerEventSource7Ev
__ZN18IOTimerEventSource4freeEv
__ZN18IOTimerEventSource4initEP8OSObjectPFvS1_PS_E
__ZN18IOTimerEventSource6enableEv
__ZN18IOTimerEventSource7disableEv
__ZN18IOTimerEventSource7timeoutEPv
__ZN18IOTimerEventSource9MetaClassC1Ev
__ZN18IOTimerEventSource9MetaClassC2Ev
__ZN18IOTimerEventSource9metaClassE
__ZN18IOTimerEventSourceC1EPK11OSMetaClass
__ZN18IOTimerEventSourceC1Ev
__ZN18IOTimerEventSourceC2EPK11OSMetaClass
__ZN18IOTimerEventSourceC2Ev
__ZN18IOTimerEventSourceD0Ev
__ZN18IOTimerEventSourceD1Ev
__ZN18IOTimerEventSourceD2Ev
__ZN18IOUserNotification10gMetaClassE
__ZN18IOUserNotification10superClassE
__ZN18IOUserNotification15setNotificationEP10IONotifier
__ZN18IOUserNotification4freeEv
__ZN18IOUserNotification4initEv
__ZN18IOUserNotification5resetEv
__ZN18IOUserNotification7isValidEv
__ZN18IOUserNotification9MetaClassC1Ev
__ZN18IOUserNotification9MetaClassC2Ev
__ZN18IOUserNotification9metaClassE
__ZN18IOUserNotificationC2EPK11OSMetaClass
__ZN18IOUserNotificationD0Ev
__ZN18IOUserNotificationD1Ev
__ZN18IOUserNotificationD2Ev
__ZN18_IOServiceNotifier10gMetaClassE
__ZN18_IOServiceNotifier10superClassE
__ZN18_IOServiceNotifier4freeEv
__ZN18_IOServiceNotifier4waitEv
__ZN18_IOServiceNotifier6enableEb
__ZN18_IOServiceNotifier6removeEv
__ZN18_IOServiceNotifier7disableEv
__ZN18_IOServiceNotifier9MetaClassC1Ev
__ZN18_IOServiceNotifier9MetaClassC2Ev
__ZN18_IOServiceNotifier9metaClassE
__ZN18_IOServiceNotifierC1EPK11OSMetaClass
__ZN18_IOServiceNotifierC1Ev
__ZN18_IOServiceNotifierC2EPK11OSMetaClass
__ZN18_IOServiceNotifierC2Ev
__ZN18_IOServiceNotifierD0Ev
__ZN18_IOServiceNotifierD1Ev
__ZN18_IOServiceNotifierD2Ev
__ZN19IOPMCompletionQueue10gMetaClassE
__ZN19IOPMCompletionQueue10superClassE
__ZN19IOPMCompletionQueue12checkForWorkEv
__ZN19IOPMCompletionQueue14queuePMRequestEP11IOPMRequest
__ZN19IOPMCompletionQueue4initEP9IOServicePFbS1_P11IOPMRequestPS_E
__ZN19IOPMCompletionQueue6createEP9IOServicePFbS1_P11IOPMRequestPS_E
__ZN19IOPMCompletionQueue9MetaClassC1Ev
__ZN19IOPMCompletionQueue9MetaClassC2Ev
__ZN19IOPMCompletionQueue9metaClassE
__ZN19IOPMCompletionQueueC1EPK11OSMetaClass
__ZN19IOPMCompletionQueueC1Ev
__ZN19IOPMCompletionQueueC2EPK11OSMetaClass
__ZN19IOPMCompletionQueueC2Ev
__ZN19IOPMCompletionQueueD0Ev
__ZN19IOPMCompletionQueueD1Ev
__ZN19IOPMCompletionQueueD2Ev
__ZN19IOPMPowerSourceList10gMetaClassE
__ZN19IOPMPowerSourceList10initializeEv
__ZN19IOPMPowerSourceList10nextInListEP15IOPMPowerSource
__ZN19IOPMPowerSourceList10superClassE
__ZN19IOPMPowerSourceList11firstInListEv
__ZN19IOPMPowerSourceList13numberOfItemsEv
__ZN19IOPMPowerSourceList14removeFromListEP15IOPMPowerSource
__ZN19IOPMPowerSourceList4freeEv
__ZN19IOPMPowerSourceList9MetaClassC1Ev
__ZN19IOPMPowerSourceList9MetaClassC2Ev
__ZN19IOPMPowerSourceList9addToListEP15IOPMPowerSource
__ZN19IOPMPowerSourceList9metaClassE
__ZN19IOPMPowerSourceListC1EPK11OSMetaClass
__ZN19IOPMPowerSourceListC1Ev
__ZN19IOPMPowerSourceListC2EPK11OSMetaClass
__ZN19IOPMPowerSourceListC2Ev
__ZN19IOPMPowerSourceListD0Ev
__ZN19IOPMPowerSourceListD1Ev
__ZN19IOPMPowerSourceListD2Ev
__ZN19IOPMPowerStateQueue10gMetaClassE
__ZN19IOPMPowerStateQueue10superClassE
__ZN19IOPMPowerStateQueue12checkForWorkEv
__ZN19IOPMPowerStateQueue16submitPowerEventEjPvy
__ZN19IOPMPowerStateQueue17PMPowerStateQueueEP8OSObjectPFvS1_zE
__ZN19IOPMPowerStateQueue4initEP8OSObjectPFvS1_zE
__ZN19IOPMPowerStateQueue9MetaClassC1Ev
__ZN19IOPMPowerStateQueue9MetaClassC2Ev
__ZN19IOPMPowerStateQueue9metaClassE
__ZN19IOPMPowerStateQueueC1EPK11OSMetaClass
__ZN19IOPMPowerStateQueueC1Ev
__ZN19IOPMPowerStateQueueC2EPK11OSMetaClass
__ZN19IOPMPowerStateQueueC2Ev
__ZN19IOPMPowerStateQueueD0Ev
__ZN19IOPMPowerStateQueueD1Ev
__ZN19IOPMPowerStateQueueD2Ev
__ZN19PMAssertionsTracker10gMetaClassE
__ZN19PMAssertionsTracker10superClassE
__ZN19PMAssertionsTracker12detailsForIDEyPi
__ZN19PMAssertionsTracker14__OSFinalClassEv
__ZN19PMAssertionsTracker15createAssertionEyjP9IOServicePKcPy
__ZN19PMAssertionsTracker16releaseAssertionEy
__ZN19PMAssertionsTracker17getAssertionLevelEy
__ZN19PMAssertionsTracker17publishPropertiesEv
__ZN19PMAssertionsTracker17setAssertionLevelEyj
__ZN19PMAssertionsTracker19copyAssertionsArrayEv
__ZN19PMAssertionsTracker19pmAssertionsTrackerEP14IOPMrootDomain
__ZN19PMAssertionsTracker21handleCreateAssertionEP6OSData
__ZN19PMAssertionsTracker22getActivatedAssertionsEv
__ZN19PMAssertionsTracker22handleReleaseAssertionEy
__ZN19PMAssertionsTracker22setUserAssertionLevelsEy
__ZN19PMAssertionsTracker23handleSetAssertionLevelEyj
__ZN19PMAssertionsTracker28handleSetUserAssertionLevelsEPv
__ZN19PMAssertionsTracker8tabulateEv
__ZN19PMAssertionsTracker9MetaClassC1Ev
__ZN19PMAssertionsTracker9MetaClassC2Ev
__ZN19PMAssertionsTracker9metaClassE
__ZN19PMAssertionsTrackerC1EPK11OSMetaClass
__ZN19PMAssertionsTrackerC1Ev
__ZN19PMAssertionsTrackerC2EPK11OSMetaClass
__ZN19PMAssertionsTrackerC2Ev
__ZN19PMAssertionsTrackerD0Ev
__ZN19PMAssertionsTrackerD1Ev
__ZN19PMAssertionsTrackerD2Ev
__ZN20IOLittleMemoryCursor10gMetaClassE
__ZN20IOLittleMemoryCursor10superClassE
__ZN20IOLittleMemoryCursor13outputSegmentEN14IOMemoryCursor15PhysicalSegmentEPvj
__ZN20IOLittleMemoryCursor17withSpecificationEyyy
__ZN20IOLittleMemoryCursor21initWithSpecificationEyyy
__ZN20IOLittleMemoryCursor9MetaClassC1Ev
__ZN20IOLittleMemoryCursor9MetaClassC2Ev
__ZN20IOLittleMemoryCursor9metaClassE
__ZN20IOLittleMemoryCursorC1EPK11OSMetaClass
__ZN20IOLittleMemoryCursorC1Ev
__ZN20IOLittleMemoryCursorC2EPK11OSMetaClass
__ZN20IOLittleMemoryCursorC2Ev
__ZN20IOLittleMemoryCursorD0Ev
__ZN20IOLittleMemoryCursorD1Ev
__ZN20IOLittleMemoryCursorD2Ev
__ZN20OSCollectionIterator10gMetaClassE
__ZN20OSCollectionIterator10superClassE
__ZN20OSCollectionIterator13getNextObjectEv
__ZN20OSCollectionIterator14withCollectionEPK12OSCollection
__ZN20OSCollectionIterator18initWithCollectionEPK12OSCollection
__ZN20OSCollectionIterator4freeEv
__ZN20OSCollectionIterator5resetEv
__ZN20OSCollectionIterator7isValidEv
__ZN20OSCollectionIterator9MetaClassC1Ev
__ZN20OSCollectionIterator9MetaClassC2Ev
__ZN20OSCollectionIterator9metaClassE
__ZN20OSCollectionIteratorC1EPK11OSMetaClass
__ZN20OSCollectionIteratorC1Ev
__ZN20OSCollectionIteratorC2EPK11OSMetaClass
__ZN20OSCollectionIteratorC2Ev
__ZN20OSCollectionIteratorD0Ev
__ZN20OSCollectionIteratorD1Ev
__ZN20OSCollectionIteratorD2Ev
__ZN20RootDomainUserClient10gMetaClassE
__ZN20RootDomainUserClient10superClassE
__ZN20RootDomainUserClient11clientCloseEv
__ZN20RootDomainUserClient12initWithTaskEP4taskPvjP12OSDictionary
__ZN20RootDomainUserClient14externalMethodEjP25IOExternalMethodArgumentsP24IOExternalMethodDispatchP8OSObjectPv
__ZN20RootDomainUserClient15setPreventativeEjj
__ZN20RootDomainUserClient17secureSleepSystemEPj
__ZN20RootDomainUserClient19clientMemoryForTypeEjPjPP18IOMemoryDescriptor
__ZN20RootDomainUserClient23secureSetAggressivenessEmmPi
__ZN20RootDomainUserClient24secureGetSystemSleepTypeEPj
__ZN20RootDomainUserClient24secureSleepSystemOptionsEPKvyPj
__ZN20RootDomainUserClient26getTargetAndMethodForIndexEPP9IOServicej
__ZN20RootDomainUserClient28secureSetUserAssertionLevelsEj
__ZN20RootDomainUserClient32secureSetMaintenanceWakeCalendarEP18IOPMCalendarStructPj
__ZN20RootDomainUserClient5startEP9IOService
__ZN20RootDomainUserClient9MetaClassC1Ev
__ZN20RootDomainUserClient9MetaClassC2Ev
__ZN20RootDomainUserClient9metaClassE
__ZN20RootDomainUserClientC1EPK11OSMetaClass
__ZN20RootDomainUserClientC1Ev
__ZN20RootDomainUserClientC2EPK11OSMetaClass
__ZN20RootDomainUserClientC2Ev
__ZN20RootDomainUserClientD0Ev
__ZN20RootDomainUserClientD1Ev
__ZN20RootDomainUserClientD2Ev
__ZN21IOInterruptController10gMetaClassE
__ZN21IOInterruptController10initVectorEiP17IOInterruptVector
__ZN21IOInterruptController10superClassE
__ZN21IOInterruptController11causeVectorEiP17IOInterruptVector
__ZN21IOInterruptController12enableVectorEiP17IOInterruptVector
__ZN21IOInterruptController13getVectorTypeEiP17IOInterruptVector
__ZN21IOInterruptController14causeInterruptEP9IOServicei
__ZN21IOInterruptController15enableInterruptEP9IOServicei
__ZN21IOInterruptController15handleInterruptEPvP9IOServicei
__ZN21IOInterruptController16disableInterruptEP9IOServicei
__ZN21IOInterruptController16getInterruptTypeEP9IOServiceiPi
__ZN21IOInterruptController17disableVectorHardEiP17IOInterruptVector
__ZN21IOInterruptController17registerInterruptEP9IOServiceiPvPFvS2_S2_S2_iES2_
__ZN21IOInterruptController17vectorCanBeSharedEiP17IOInterruptVector
__ZN21IOInterruptController19unregisterInterruptEP9IOServicei
__ZN21IOInterruptController26getInterruptHandlerAddressEv
__ZN21IOInterruptController31_RESERVEDIOInterruptController0Ev
__ZN21IOInterruptController31_RESERVEDIOInterruptController1Ev
__ZN21IOInterruptController31_RESERVEDIOInterruptController2Ev
__ZN21IOInterruptController31_RESERVEDIOInterruptController3Ev
__ZN21IOInterruptController31_RESERVEDIOInterruptController4Ev
__ZN21IOInterruptController31_RESERVEDIOInterruptController5Ev
__ZN21IOInterruptController9MetaClassC1Ev
__ZN21IOInterruptController9MetaClassC2Ev
__ZN21IOInterruptController9metaClassE
__ZN21IOInterruptControllerC1EPK11OSMetaClass
__ZN21IOInterruptControllerC2EPK11OSMetaClass
__ZN21IOInterruptControllerD0Ev
__ZN21IOInterruptControllerD1Ev
__ZN21IOInterruptControllerD2Ev
__ZN21IONaturalMemoryCursor10gMetaClassE
__ZN21IONaturalMemoryCursor10superClassE
__ZN21IONaturalMemoryCursor13outputSegmentEN14IOMemoryCursor15PhysicalSegmentEPvj
__ZN21IONaturalMemoryCursor17withSpecificationEyyy
__ZN21IONaturalMemoryCursor21initWithSpecificationEyyy
__ZN21IONaturalMemoryCursor9MetaClassC1Ev
__ZN21IONaturalMemoryCursor9MetaClassC2Ev
__ZN21IONaturalMemoryCursor9metaClassE
__ZN21IONaturalMemoryCursorC1EPK11OSMetaClass
__ZN21IONaturalMemoryCursorC1Ev
__ZN21IONaturalMemoryCursorC2EPK11OSMetaClass
__ZN21IONaturalMemoryCursorC2Ev
__ZN21IONaturalMemoryCursorD0Ev
__ZN21IONaturalMemoryCursorD1Ev
__ZN21IONaturalMemoryCursorD2Ev
__ZN21IOSubMemoryDescriptor10gMetaClassE
__ZN21IOSubMemoryDescriptor10superClassE
__ZN21IOSubMemoryDescriptor11makeMappingEP18IOMemoryDescriptorP4taskyjyy
__ZN21IOSubMemoryDescriptor12initSubRangeEP18IOMemoryDescriptoryyj
__ZN21IOSubMemoryDescriptor12setPurgeableEjPj
__ZN21IOSubMemoryDescriptor12withSubRangeEP18IOMemoryDescriptoryyj
__ZN21IOSubMemoryDescriptor16getPreparationIDEv
__ZN21IOSubMemoryDescriptor18getPhysicalSegmentEyPyj
__ZN21IOSubMemoryDescriptor4freeEv
__ZN21IOSubMemoryDescriptor7prepareEj
__ZN21IOSubMemoryDescriptor8completeEj
__ZN21IOSubMemoryDescriptor8redirectEP4taskb
__ZN21IOSubMemoryDescriptor9MetaClassC1Ev
__ZN21IOSubMemoryDescriptor9MetaClassC2Ev
__ZN21IOSubMemoryDescriptor9metaClassE
__ZN21IOSubMemoryDescriptorC1EPK11OSMetaClass
__ZN21IOSubMemoryDescriptorC1Ev
__ZN21IOSubMemoryDescriptorC2EPK11OSMetaClass
__ZN21IOSubMemoryDescriptorC2Ev
__ZN21IOSubMemoryDescriptorD0Ev
__ZN21IOSubMemoryDescriptorD1Ev
__ZN21IOSubMemoryDescriptorD2Ev
__ZN22IOInterruptEventSource10gMetaClassE
__ZN22IOInterruptEventSource10superClassE
__ZN22IOInterruptEventSource11setWorkLoopEP10IOWorkLoop
__ZN22IOInterruptEventSource12checkForWorkEv
__ZN22IOInterruptEventSource17interruptOccurredEPvP9IOServicei
__ZN22IOInterruptEventSource20interruptEventSourceEP8OSObjectPFvS1_PS_iEP9IOServicei
__ZN22IOInterruptEventSource23normalInterruptOccurredEPvP9IOServicei
__ZN22IOInterruptEventSource24disableInterruptOccurredEPvP9IOServicei
__ZN22IOInterruptEventSource24registerInterruptHandlerEP9IOServicei
__ZN22IOInterruptEventSource32_RESERVEDIOInterruptEventSource0Ev
__ZN22IOInterruptEventSource32_RESERVEDIOInterruptEventSource1Ev
__ZN22IOInterruptEventSource32_RESERVEDIOInterruptEventSource2Ev
__ZN22IOInterruptEventSource32_RESERVEDIOInterruptEventSource3Ev
__ZN22IOInterruptEventSource32_RESERVEDIOInterruptEventSource4Ev
__ZN22IOInterruptEventSource32_RESERVEDIOInterruptEventSource5Ev
__ZN22IOInterruptEventSource32_RESERVEDIOInterruptEventSource6Ev
__ZN22IOInterruptEventSource32_RESERVEDIOInterruptEventSource7Ev
__ZN22IOInterruptEventSource4freeEv
__ZN22IOInterruptEventSource4initEP8OSObjectPFvS1_PS_iEP9IOServicei
__ZN22IOInterruptEventSource6enableEv
__ZN22IOInterruptEventSource7disableEv
__ZN22IOInterruptEventSource7warmCPUEy
__ZN22IOInterruptEventSource9MetaClassC1Ev
__ZN22IOInterruptEventSource9MetaClassC2Ev
__ZN22IOInterruptEventSource9metaClassE
__ZN22IOInterruptEventSourceC1EPK11OSMetaClass
__ZN22IOInterruptEventSourceC1Ev
__ZN22IOInterruptEventSourceC2EPK11OSMetaClass
__ZN22IOInterruptEventSourceC2Ev
__ZN22IOInterruptEventSourceD0Ev
__ZN22IOInterruptEventSourceD1Ev
__ZN22IOInterruptEventSourceD2Ev
__ZN22IOPlatformExpertDevice10gMetaClassE
__ZN22IOPlatformExpertDevice10superClassE
__ZN22IOPlatformExpertDevice12initWithArgsEPvS0_S0_S0_
__ZN22IOPlatformExpertDevice13setPropertiesEP8OSObject
__ZN22IOPlatformExpertDevice32_RESERVEDIOPlatformExpertDevice0Ev
__ZN22IOPlatformExpertDevice32_RESERVEDIOPlatformExpertDevice1Ev
__ZN22IOPlatformExpertDevice32_RESERVEDIOPlatformExpertDevice2Ev
__ZN22IOPlatformExpertDevice32_RESERVEDIOPlatformExpertDevice3Ev
__ZN22IOPlatformExpertDevice4freeEv
__ZN22IOPlatformExpertDevice9MetaClassC1Ev
__ZN22IOPlatformExpertDevice9MetaClassC2Ev
__ZN22IOPlatformExpertDevice9metaClassE
__ZN22IOPlatformExpertDeviceC1EPK11OSMetaClass
__ZN22IOPlatformExpertDeviceC1Ev
__ZN22IOPlatformExpertDeviceC2EPK11OSMetaClass
__ZN22IOPlatformExpertDeviceC2Ev
__ZN22IOPlatformExpertDeviceD0Ev
__ZN22IOPlatformExpertDeviceD1Ev
__ZN22IOPlatformExpertDeviceD2Ev
__ZN22_IOOpenServiceIterator10gMetaClassE
__ZN22_IOOpenServiceIterator10superClassE
__ZN22_IOOpenServiceIterator13getNextObjectEv
__ZN22_IOOpenServiceIterator4freeEv
__ZN22_IOOpenServiceIterator5resetEv
__ZN22_IOOpenServiceIterator7isValidEv
__ZN22_IOOpenServiceIterator8iteratorEP10OSIteratorPK9IOServiceS4_
__ZN22_IOOpenServiceIterator9MetaClassC1Ev
__ZN22_IOOpenServiceIterator9MetaClassC2Ev
__ZN22_IOOpenServiceIterator9metaClassE
__ZN22_IOOpenServiceIteratorC1EPK11OSMetaClass
__ZN22_IOOpenServiceIteratorC1Ev
__ZN22_IOOpenServiceIteratorC2EPK11OSMetaClass
__ZN22_IOOpenServiceIteratorC2Ev
__ZN22_IOOpenServiceIteratorD0Ev
__ZN22_IOOpenServiceIteratorD1Ev
__ZN22_IOOpenServiceIteratorD2Ev
__ZN23IOMultiMemoryDescriptor10gMetaClassE
__ZN23IOMultiMemoryDescriptor10superClassE
__ZN23IOMultiMemoryDescriptor15withDescriptorsEPP18IOMemoryDescriptorjjb
__ZN23IOMultiMemoryDescriptor18getPhysicalSegmentEyPyj
__ZN23IOMultiMemoryDescriptor19initWithDescriptorsEPP18IOMemoryDescriptorjjb
__ZN23IOMultiMemoryDescriptor4freeEv
__ZN23IOMultiMemoryDescriptor7prepareEj
__ZN23IOMultiMemoryDescriptor8completeEj
__ZN23IOMultiMemoryDescriptor9MetaClassC1Ev
__ZN23IOMultiMemoryDescriptor9MetaClassC2Ev
__ZN23IOMultiMemoryDescriptor9metaClassE
__ZN23IOMultiMemoryDescriptorC1EPK11OSMetaClass
__ZN23IOMultiMemoryDescriptorC1Ev
__ZN23IOMultiMemoryDescriptorC2EPK11OSMetaClass
__ZN23IOMultiMemoryDescriptorC2Ev
__ZN23IOMultiMemoryDescriptorD0Ev
__ZN23IOMultiMemoryDescriptorD1Ev
__ZN23IOMultiMemoryDescriptorD2Ev
__ZN24IOBufferMemoryDescriptor10gMetaClassE
__ZN24IOBufferMemoryDescriptor10superClassE
__ZN24IOBufferMemoryDescriptor11appendBytesEPKvm
__ZN24IOBufferMemoryDescriptor11withOptionsEjmm
__ZN24IOBufferMemoryDescriptor12setDirectionEj
__ZN24IOBufferMemoryDescriptor12withCapacityEmjb
__ZN24IOBufferMemoryDescriptor14getBytesNoCopyEmm
__ZN24IOBufferMemoryDescriptor14getBytesNoCopyEv
__ZN24IOBufferMemoryDescriptor17inTaskWithOptionsEP4taskjmm
__ZN24IOBufferMemoryDescriptor20initWithPhysicalMaskEP4taskjyyy
__ZN24IOBufferMemoryDescriptor22inTaskWithPhysicalMaskEP4taskjyy
__ZN24IOBufferMemoryDescriptor34_RESERVEDIOBufferMemoryDescriptor0Ev
__ZN24IOBufferMemoryDescriptor34_RESERVEDIOBufferMemoryDescriptor1Ev
__ZN24IOBufferMemoryDescriptor34_RESERVEDIOBufferMemoryDescriptor2Ev
__ZN24IOBufferMemoryDescriptor34_RESERVEDIOBufferMemoryDescriptor3Ev
__ZN24IOBufferMemoryDescriptor34_RESERVEDIOBufferMemoryDescriptor4Ev
__ZN24IOBufferMemoryDescriptor34_RESERVEDIOBufferMemoryDescriptor5Ev
__ZN24IOBufferMemoryDescriptor34_RESERVEDIOBufferMemoryDescriptor6Ev
__ZN24IOBufferMemoryDescriptor34_RESERVEDIOBufferMemoryDescriptor7Ev
__ZN24IOBufferMemoryDescriptor34_RESERVEDIOBufferMemoryDescriptor8Ev
__ZN24IOBufferMemoryDescriptor34_RESERVEDIOBufferMemoryDescriptor9Ev
__ZN24IOBufferMemoryDescriptor35_RESERVEDIOBufferMemoryDescriptor10Ev
__ZN24IOBufferMemoryDescriptor35_RESERVEDIOBufferMemoryDescriptor11Ev
__ZN24IOBufferMemoryDescriptor35_RESERVEDIOBufferMemoryDescriptor12Ev
__ZN24IOBufferMemoryDescriptor35_RESERVEDIOBufferMemoryDescriptor13Ev
__ZN24IOBufferMemoryDescriptor35_RESERVEDIOBufferMemoryDescriptor14Ev
__ZN24IOBufferMemoryDescriptor35_RESERVEDIOBufferMemoryDescriptor15Ev
__ZN24IOBufferMemoryDescriptor4freeEv
__ZN24IOBufferMemoryDescriptor9MetaClassC1Ev
__ZN24IOBufferMemoryDescriptor9MetaClassC2Ev
__ZN24IOBufferMemoryDescriptor9metaClassE
__ZN24IOBufferMemoryDescriptor9setLengthEm
__ZN24IOBufferMemoryDescriptor9withBytesEPKvmjb
__ZN24IOBufferMemoryDescriptorC1EPK11OSMetaClass
__ZN24IOBufferMemoryDescriptorC1Ev
__ZN24IOBufferMemoryDescriptorC2EPK11OSMetaClass
__ZN24IOBufferMemoryDescriptorC2Ev
__ZN24IOBufferMemoryDescriptorD0Ev
__ZN24IOBufferMemoryDescriptorD1Ev
__ZN24IOBufferMemoryDescriptorD2Ev
__ZN24IOCPUInterruptController10gMetaClassE
__ZN24IOCPUInterruptController10superClassE
__ZN24IOCPUInterruptController14causeInterruptEP9IOServicei
__ZN24IOCPUInterruptController15enableInterruptEP9IOServicei
__ZN24IOCPUInterruptController15handleInterruptEPvP9IOServicei
__ZN24IOCPUInterruptController16disableInterruptEP9IOServicei
__ZN24IOCPUInterruptController16getInterruptTypeEP9IOServiceiPi
__ZN24IOCPUInterruptController17registerInterruptEP9IOServiceiPvPFvS2_S2_S2_iES2_
__ZN24IOCPUInterruptController18enableCPUInterruptEP5IOCPU
__ZN24IOCPUInterruptController25setCPUInterruptPropertiesEP9IOService
__ZN24IOCPUInterruptController26initCPUInterruptControllerEi
__ZN24IOCPUInterruptController30registerCPUInterruptControllerEv
__ZN24IOCPUInterruptController34_RESERVEDIOCPUInterruptController0Ev
__ZN24IOCPUInterruptController34_RESERVEDIOCPUInterruptController1Ev
__ZN24IOCPUInterruptController34_RESERVEDIOCPUInterruptController2Ev
__ZN24IOCPUInterruptController34_RESERVEDIOCPUInterruptController3Ev
__ZN24IOCPUInterruptController34_RESERVEDIOCPUInterruptController4Ev
__ZN24IOCPUInterruptController34_RESERVEDIOCPUInterruptController5Ev
__ZN24IOCPUInterruptController9MetaClassC1Ev
__ZN24IOCPUInterruptController9MetaClassC2Ev
__ZN24IOCPUInterruptController9metaClassE
__ZN24IOCPUInterruptControllerC1EPK11OSMetaClass
__ZN24IOCPUInterruptControllerC1Ev
__ZN24IOCPUInterruptControllerC2EPK11OSMetaClass
__ZN24IOCPUInterruptControllerC2Ev
__ZN24IOCPUInterruptControllerD0Ev
__ZN24IOCPUInterruptControllerD1Ev
__ZN24IOCPUInterruptControllerD2Ev
__ZN25IOGeneralMemoryDescriptor10gMetaClassE
__ZN25IOGeneralMemoryDescriptor10superClassE
__ZN25IOGeneralMemoryDescriptor11wireVirtualEj
__ZN25IOGeneralMemoryDescriptor12setPurgeableEjPj
__ZN25IOGeneralMemoryDescriptor15initWithOptionsEPvjjP4taskjP8IOMapper
__ZN25IOGeneralMemoryDescriptor16createNamedEntryEv
__ZN25IOGeneralMemoryDescriptor16getPreparationIDEv
__ZN25IOGeneralMemoryDescriptor17initMemoryEntriesEmP8IOMapper
__ZN25IOGeneralMemoryDescriptor18getPhysicalSegmentEyPyj
__ZN25IOGeneralMemoryDescriptor30withPersistentMemoryDescriptorEPS_
__ZN25IOGeneralMemoryDescriptor4freeEv
__ZN25IOGeneralMemoryDescriptor5doMapEP7_vm_mapPyjyy
__ZN25IOGeneralMemoryDescriptor6dmaMapEP8IOMapperPK21IODMAMapSpecificationyyPyPj
__ZN25IOGeneralMemoryDescriptor7doUnmapEP7_vm_mapyy
__ZN25IOGeneralMemoryDescriptor7prepareEj
__ZN25IOGeneralMemoryDescriptor8completeEj
__ZN25IOGeneralMemoryDescriptor9MetaClassC1Ev
__ZN25IOGeneralMemoryDescriptor9MetaClassC2Ev
__ZN25IOGeneralMemoryDescriptor9metaClassE
__ZN25IOGeneralMemoryDescriptorC1EPK11OSMetaClass
__ZN25IOGeneralMemoryDescriptorC1Ev
__ZN25IOGeneralMemoryDescriptorC2EPK11OSMetaClass
__ZN25IOGeneralMemoryDescriptorC2Ev
__ZN25IOGeneralMemoryDescriptorD0Ev
__ZN25IOGeneralMemoryDescriptorD1Ev
__ZN25IOGeneralMemoryDescriptorD2Ev
__ZN25IOServiceUserNotification10gMetaClassE
__ZN25IOServiceUserNotification10superClassE
__ZN25IOServiceUserNotification13getNextObjectEv
__ZN25IOServiceUserNotification4freeEv
__ZN25IOServiceUserNotification4initEP8ipc_portjPvmb
__ZN25IOServiceUserNotification7handlerEPvP9IOService
__ZN25IOServiceUserNotification8_handlerEPvS0_P9IOServiceP10IONotifier
__ZN25IOServiceUserNotification9MetaClassC1Ev
__ZN25IOServiceUserNotification9MetaClassC2Ev
__ZN25IOServiceUserNotification9metaClassE
__ZN25IOServiceUserNotificationC1EPK11OSMetaClass
__ZN25IOServiceUserNotificationC1Ev
__ZN25IOServiceUserNotificationC2EPK11OSMetaClass
__ZN25IOServiceUserNotificationC2Ev
__ZN25IOServiceUserNotificationD0Ev
__ZN25IOServiceUserNotificationD1Ev
__ZN25IOServiceUserNotificationD2Ev
__ZN26_IOServiceInterestNotifier10gMetaClassE
__ZN26_IOServiceInterestNotifier10superClassE
__ZN26_IOServiceInterestNotifier4freeEv
__ZN26_IOServiceInterestNotifier4waitEv
__ZN26_IOServiceInterestNotifier6enableEb
__ZN26_IOServiceInterestNotifier6removeEv
__ZN26_IOServiceInterestNotifier7disableEv
__ZN26_IOServiceInterestNotifier9MetaClassC1Ev
__ZN26_IOServiceInterestNotifier9MetaClassC2Ev
__ZN26_IOServiceInterestNotifier9metaClassE
__ZN26_IOServiceInterestNotifierC1EPK11OSMetaClass
__ZN26_IOServiceInterestNotifierC1Ev
__ZN26_IOServiceInterestNotifierC2EPK11OSMetaClass
__ZN26_IOServiceInterestNotifierC2Ev
__ZN26_IOServiceInterestNotifierD0Ev
__ZN26_IOServiceInterestNotifierD1Ev
__ZN26_IOServiceInterestNotifierD2Ev
__ZN27IOSharedInterruptController10gMetaClassE
__ZN27IOSharedInterruptController10superClassE
__ZN27IOSharedInterruptController15enableInterruptEP9IOServicei
__ZN27IOSharedInterruptController15handleInterruptEPvP9IOServicei
__ZN27IOSharedInterruptController16disableInterruptEP9IOServicei
__ZN27IOSharedInterruptController16getInterruptTypeEP9IOServiceiPi
__ZN27IOSharedInterruptController17registerInterruptEP9IOServiceiPvPFvS2_S2_S2_iES2_
__ZN27IOSharedInterruptController19unregisterInterruptEP9IOServicei
__ZN27IOSharedInterruptController23initInterruptControllerEP21IOInterruptControllerP6OSData
__ZN27IOSharedInterruptController26getInterruptHandlerAddressEv
__ZN27IOSharedInterruptController37_RESERVEDIOSharedInterruptController0Ev
__ZN27IOSharedInterruptController37_RESERVEDIOSharedInterruptController1Ev
__ZN27IOSharedInterruptController37_RESERVEDIOSharedInterruptController2Ev
__ZN27IOSharedInterruptController37_RESERVEDIOSharedInterruptController3Ev
__ZN27IOSharedInterruptController9MetaClassC1Ev
__ZN27IOSharedInterruptController9MetaClassC2Ev
__ZN27IOSharedInterruptController9metaClassE
__ZN27IOSharedInterruptControllerC1EPK11OSMetaClass
__ZN27IOSharedInterruptControllerC1Ev
__ZN27IOSharedInterruptControllerC2EPK11OSMetaClass
__ZN27IOSharedInterruptControllerC2Ev
__ZN27IOSharedInterruptControllerD0Ev
__ZN27IOSharedInterruptControllerD1Ev
__ZN27IOSharedInterruptControllerD2Ev
__ZN28IOFilterInterruptEventSource10gMetaClassE
__ZN28IOFilterInterruptEventSource10superClassE
__ZN28IOFilterInterruptEventSource15signalInterruptEv
__ZN28IOFilterInterruptEventSource20interruptEventSourceEP8OSObjectPFvS1_P22IOInterruptEventSourceiEP9IOServicei
__ZN28IOFilterInterruptEventSource23normalInterruptOccurredEPvP9IOServicei
__ZN28IOFilterInterruptEventSource24disableInterruptOccurredEPvP9IOServicei
__ZN28IOFilterInterruptEventSource26filterInterruptEventSourceEP8OSObjectPFvS1_P22IOInterruptEventSourceiEPFbS1_PS_EP9IOServicei
__ZN28IOFilterInterruptEventSource38_RESERVEDIOFilterInterruptEventSource0Ev
__ZN28IOFilterInterruptEventSource38_RESERVEDIOFilterInterruptEventSource1Ev
__ZN28IOFilterInterruptEventSource38_RESERVEDIOFilterInterruptEventSource2Ev
__ZN28IOFilterInterruptEventSource38_RESERVEDIOFilterInterruptEventSource3Ev
__ZN28IOFilterInterruptEventSource38_RESERVEDIOFilterInterruptEventSource4Ev
__ZN28IOFilterInterruptEventSource38_RESERVEDIOFilterInterruptEventSource5Ev
__ZN28IOFilterInterruptEventSource38_RESERVEDIOFilterInterruptEventSource6Ev
__ZN28IOFilterInterruptEventSource38_RESERVEDIOFilterInterruptEventSource7Ev
__ZN28IOFilterInterruptEventSource4initEP8OSObjectPFvS1_P22IOInterruptEventSourceiEP9IOServicei
__ZN28IOFilterInterruptEventSource4initEP8OSObjectPFvS1_P22IOInterruptEventSourceiEPFbS1_PS_EP9IOServicei
__ZN28IOFilterInterruptEventSource9MetaClassC1Ev
__ZN28IOFilterInterruptEventSource9MetaClassC2Ev
__ZN28IOFilterInterruptEventSource9metaClassE
__ZN28IOFilterInterruptEventSourceC1EPK11OSMetaClass
__ZN28IOFilterInterruptEventSourceC1Ev
__ZN28IOFilterInterruptEventSourceC2EPK11OSMetaClass
__ZN28IOFilterInterruptEventSourceC2Ev
__ZN28IOFilterInterruptEventSourceD0Ev
__ZN28IOFilterInterruptEventSourceD1Ev
__ZN28IOFilterInterruptEventSourceD2Ev
__ZN29IOInterleavedMemoryDescriptor10gMetaClassE
__ZN29IOInterleavedMemoryDescriptor10superClassE
__ZN29IOInterleavedMemoryDescriptor12withCapacityEyj
__ZN29IOInterleavedMemoryDescriptor16initWithCapacityEyj
__ZN29IOInterleavedMemoryDescriptor18getPhysicalSegmentEyPyj
__ZN29IOInterleavedMemoryDescriptor19setMemoryDescriptorEP18IOMemoryDescriptoryy
__ZN29IOInterleavedMemoryDescriptor22clearMemoryDescriptorsEj
__ZN29IOInterleavedMemoryDescriptor4freeEv
__ZN29IOInterleavedMemoryDescriptor7prepareEj
__ZN29IOInterleavedMemoryDescriptor8completeEj
__ZN29IOInterleavedMemoryDescriptor9MetaClassC1Ev
__ZN29IOInterleavedMemoryDescriptor9MetaClassC2Ev
__ZN29IOInterleavedMemoryDescriptor9metaClassE
__ZN29IOInterleavedMemoryDescriptorC1EPK11OSMetaClass
__ZN29IOInterleavedMemoryDescriptorC1Ev
__ZN29IOInterleavedMemoryDescriptorC2EPK11OSMetaClass
__ZN29IOInterleavedMemoryDescriptorC2Ev
__ZN29IOInterleavedMemoryDescriptorD0Ev
__ZN29IOInterleavedMemoryDescriptorD1Ev
__ZN29IOInterleavedMemoryDescriptorD2Ev
__ZN32IOServiceMessageUserNotification10gMetaClassE
__ZN32IOServiceMessageUserNotification10superClassE
__ZN32IOServiceMessageUserNotification13getNextObjectEv
__ZN32IOServiceMessageUserNotification4freeEv
__ZN32IOServiceMessageUserNotification4initEP8ipc_portjPvmmb
__ZN32IOServiceMessageUserNotification7handlerEPvjP9IOServiceS0_m
__ZN32IOServiceMessageUserNotification8_handlerEPvS0_jP9IOServiceS0_m
__ZN32IOServiceMessageUserNotification9MetaClassC1Ev
__ZN32IOServiceMessageUserNotification9MetaClassC2Ev
__ZN32IOServiceMessageUserNotification9metaClassE
__ZN32IOServiceMessageUserNotificationC1EPK11OSMetaClass
__ZN32IOServiceMessageUserNotificationC1Ev
__ZN32IOServiceMessageUserNotificationC2EPK11OSMetaClass
__ZN32IOServiceMessageUserNotificationC2Ev
__ZN32IOServiceMessageUserNotificationD0Ev
__ZN32IOServiceMessageUserNotificationD1Ev
__ZN32IOServiceMessageUserNotificationD2Ev
__ZN5IOCPU10gMetaClassE
__ZN5IOCPU10superClassE
__ZN5IOCPU11getCPUGroupEv
__ZN5IOCPU11getCPUStateEv
__ZN5IOCPU11setCPUStateEj
__ZN5IOCPU11setPropertyEPK8OSSymbolP8OSObject
__ZN5IOCPU12getCPUNumberEv
__ZN5IOCPU12setCPUNumberEj
__ZN5IOCPU13setPropertiesEP8OSObject
__ZN5IOCPU15_RESERVEDIOCPU0Ev
__ZN5IOCPU15_RESERVEDIOCPU1Ev
__ZN5IOCPU15_RESERVEDIOCPU2Ev
__ZN5IOCPU15_RESERVEDIOCPU3Ev
__ZN5IOCPU15_RESERVEDIOCPU4Ev
__ZN5IOCPU15_RESERVEDIOCPU5Ev
__ZN5IOCPU15_RESERVEDIOCPU6Ev
__ZN5IOCPU15_RESERVEDIOCPU7Ev
__ZN5IOCPU15getCPUGroupSizeEv
__ZN5IOCPU16getMachProcessorEv
__ZN5IOCPU17enableCPUTimeBaseEb
__ZN5IOCPU5startEP9IOService
__ZN5IOCPU8initCPUsEv
__ZN5IOCPU9MetaClassC1Ev
__ZN5IOCPU9MetaClassC2Ev
__ZN5IOCPU9metaClassE
__ZN5IOCPU9signalCPUEPS_
__ZN5IOCPUC2EPK11OSMetaClass
__ZN5IOCPUD0Ev
__ZN5IOCPUD1Ev
__ZN5IOCPUD2Ev
__ZN5OSSet10gMetaClassE
__ZN5OSSet10setOptionsEjjPv
__ZN5OSSet10superClassE
__ZN5OSSet11initWithSetEPKS_j
__ZN5OSSet11withObjectsEPPK8OSObjectjj
__ZN5OSSet12removeObjectEPK15OSMetaClassBase
__ZN5OSSet12withCapacityEj
__ZN5OSSet13initWithArrayEPK7OSArrayj
__ZN5OSSet14copyCollectionEP12OSDictionary
__ZN5OSSet14ensureCapacityEj
__ZN5OSSet15_RESERVEDOSSet0Ev
__ZN5OSSet15_RESERVEDOSSet1Ev
__ZN5OSSet15_RESERVEDOSSet2Ev
__ZN5OSSet15_RESERVEDOSSet3Ev
__ZN5OSSet15_RESERVEDOSSet4Ev
__ZN5OSSet15_RESERVEDOSSet5Ev
__ZN5OSSet15_RESERVEDOSSet6Ev
__ZN5OSSet15_RESERVEDOSSet7Ev
__ZN5OSSet15flushCollectionEv
__ZN5OSSet15initWithObjectsEPPK8OSObjectjj
__ZN5OSSet16initWithCapacityEj
__ZN5OSSet20setCapacityIncrementEj
__ZN5OSSet4freeEv
__ZN5OSSet5mergeEPK7OSArray
__ZN5OSSet5mergeEPKS_
__ZN5OSSet7withSetEPKS_j
__ZN5OSSet9MetaClassC1Ev
__ZN5OSSet9MetaClassC2Ev
__ZN5OSSet9metaClassE
__ZN5OSSet9setObjectEPK15OSMetaClassBase
__ZN5OSSet9withArrayEPK7OSArrayj
__ZN5OSSetC1EPK11OSMetaClass
__ZN5OSSetC1Ev
__ZN5OSSetC2EPK11OSMetaClass
__ZN5OSSetC2Ev
__ZN5OSSetD0Ev
__ZN5OSSetD1Ev
__ZN5OSSetD2Ev
__ZN6OSData10appendByteEhj
__ZN6OSData10gMetaClassE
__ZN6OSData10superClassE
__ZN6OSData11appendBytesEPKS_
__ZN6OSData11appendBytesEPKvj
__ZN6OSData12initWithDataEPKS_
__ZN6OSData12initWithDataEPKS_jj
__ZN6OSData12withCapacityEj
__ZN6OSData13initWithBytesEPKvj
__ZN6OSData14ensureCapacityEj
__ZN6OSData15setSerializableEb
__ZN6OSData15withBytesNoCopyEPvj
__ZN6OSData16_RESERVEDOSData1Ev
__ZN6OSData16_RESERVEDOSData2Ev
__ZN6OSData16_RESERVEDOSData3Ev
__ZN6OSData16_RESERVEDOSData4Ev
__ZN6OSData16_RESERVEDOSData5Ev
__ZN6OSData16_RESERVEDOSData6Ev
__ZN6OSData16_RESERVEDOSData7Ev
__ZN6OSData16initWithCapacityEj
__ZN6OSData18setDeallocFunctionEPFvPvjE
__ZN6OSData19initWithBytesNoCopyEPvj
__ZN6OSData20setCapacityIncrementEj
__ZN6OSData4freeEv
__ZN6OSData8withDataEPKS_
__ZN6OSData8withDataEPKS_jj
__ZN6OSData9MetaClassC1Ev
__ZN6OSData9MetaClassC2Ev
__ZN6OSData9metaClassE
__ZN6OSData9withBytesEPKvj
__ZN6OSDataC1EPK11OSMetaClass
__ZN6OSDataC1Ev
__ZN6OSDataC2EPK11OSMetaClass
__ZN6OSDataC2Ev
__ZN6OSDataD0Ev
__ZN6OSDataD1Ev
__ZN6OSDataD2Ev
__ZN6OSKext10gMetaClassE
__ZN6OSKext10getLoadTagEv
__ZN6OSKext10getVersionEv
__ZN6OSKext10initializeEv
__ZN6OSKext10removeKextEPS_b
__ZN6OSKext10superClassE
__ZN6OSKext11getSizeInfoEPjS0_
__ZN6OSKext11isInterfaceEv
__ZN6OSKext11isPrelinkedEv
__ZN6OSKext11removeClassEP11OSMetaClass
__ZN6OSKext12isExecutableEv
__ZN6OSKext12printSummaryEP20_loaded_kext_summaryPFiPKczE
__ZN6OSKext12willShutdownEv
__ZN6OSKext13cancelRequestEjPPv
__ZN6OSKext13getExecutableEv
__ZN6OSKext13getIdentifierEv
__ZN6OSKext13handleRequestEP4hostjPcjPS2_PjS3_S4_
__ZN6OSKext13loadFromMkextEjPcjPS0_Pj
__ZN6OSKext13setExecutableEP6OSDataS1_b
__ZN6OSKext14autounloadKextEPS_
__ZN6OSKext14getLoadEnabledEv
__ZN6OSKext14getMetaClassesEv
__ZN6OSKext14loadExecutableEv
__ZN6OSKext14setKextdActiveEb
__ZN6OSKext14setLoadEnabledEb
__ZN6OSKext14withBooterDataEP8OSStringP6OSData
__ZN6OSKext14withMkext2InfoEP12OSDictionaryP6OSData
__ZN6OSKext15considerUnloadsEb
__ZN6OSKext15getDependenciesEv
__ZN6OSKext15isInExcludeListEv
__ZN6OSKext15requestResourceEPKcS1_PFvjiPKvjPvES4_Pj
__ZN6OSKext15savePanicStringEb
__ZN6OSKext16dispatchResourceEP12OSDictionary
__ZN6OSKext16getUnloadEnabledEv
__ZN6OSKext16isCPPInitializedEv
__ZN6OSKext16readMkextArchiveEP6OSDataPj
__ZN6OSKext16serializeLogInfoEP7OSArrayPPcPj
__ZN6OSKext16setUnloadEnabledEb
__ZN6OSKext16setVMProtectionsEv
__ZN6OSKext17flushDependenciesEb
__ZN6OSKext17isKernelComponentEv
__ZN6OSKext17readMkext1ArchiveEP6OSDataPj
__ZN6OSKext17readMkext2ArchiveEP6OSDataPP12OSDictionaryPj
__ZN6OSKext17setCPPInitializedEb
__ZN6OSKext18copyLoadedKextInfoEP7OSArrayS1_
__ZN6OSKext18declaresExecutableEv
__ZN6OSKext18extractMkext1EntryEPKvS1_
__ZN6OSKext18getNumDependenciesEv
__ZN6OSKext18initWithBooterDataEP8OSStringP6OSData
__ZN6OSKext18initWithMkext1InfoEP12OSDictionaryP6OSDataS3_
__ZN6OSKext18initWithMkext2InfoEP12OSDictionaryP6OSData
__ZN6OSKext18registerIdentifierEv
__ZN6OSKext18registerWithDTraceEv
__ZN6OSKext19flushNonloadedKextsEb
__ZN6OSKext19printKextPanicListsEPFiPKczE
__ZN6OSKext19removeKextBootstrapEv
__ZN6OSKext19resolveDependenciesEP7OSArray
__ZN6OSKext19setLinkedExecutableEP6OSData
__ZN6OSKext19validateKextMappingEb
__ZN6OSKext20getAutounloadEnabledEv
__ZN6OSKext20getCompatibleVersionEv
__ZN6OSKext20getIdentifierCStringEv
__ZN6OSKext20isLoadableInSafeBootEv
__ZN6OSKext20segmentShouldBeWiredEP18segment_command_64
__ZN6OSKext20setAutounloadEnabledEb
__ZN6OSKext20summaryIsInBacktraceEP20_loaded_kext_summaryPmj
__ZN6OSKext20unregisterWithDTraceEv
__ZN6OSKext20verifySegmentMappingEP18segment_command_64
__ZN6OSKext21countRequestCallbacksEv
__ZN6OSKext21createMkext2FileEntryEP6OSDataP8OSNumberPKc
__ZN6OSKext21extractMkext2FileDataEPhPKcjj
__ZN6OSKext21getUserSpaceLogFilterEv
__ZN6OSKext21invokeRequestCallbackEP12OSDictionaryi
__ZN6OSKext21lookupKextWithAddressEm
__ZN6OSKext21lookupKextWithLoadTagEj
__ZN6OSKext21printKextsInBacktraceEPmjPFiPKczEb
__ZN6OSKext21queueKextNotificationEPKcP8OSString
__ZN6OSKext21removeKextWithLoadTagEjb
__ZN6OSKext21setAutounloadsEnabledEb
__ZN6OSKext21setUserSpaceLogFilterEjb
__ZN6OSKext21withPrelinkedInfoDictEP12OSDictionary
__ZN6OSKext22copyPersonalitiesArrayEv
__ZN6OSKext22getPropertyForHostArchEPKc
__ZN6OSKext22loadKextWithIdentifierEP8OSStringbbhhP7OSArray
__ZN6OSKext22loadKextWithIdentifierEPKcbbhhP7OSArray
__ZN6OSKext23clearUserSpaceLogFilterEv
__ZN6OSKext23hasOSMetaClassInstancesEv
__ZN6OSKext23isCompatibleWithVersionEx
__ZN6OSKext23jettisonLinkeditSegmentEv
__ZN6OSKext23recordIdentifierRequestEP8OSString
__ZN6OSKext23registerKextsWithDTraceEv
__ZN6OSKext23saveLoadedKextPanicListEv
__ZN6OSKext23updateLoadedKextSummaryEP20_loaded_kext_summary
__ZN6OSKext24copyAllKextPersonalitiesEb
__ZN6OSKext24getKernelRequestsEnabledEv
__ZN6OSKext24lookupKextWithIdentifierEP8OSString
__ZN6OSKext24lookupKextWithIdentifierEPKc
__ZN6OSKext24removeKextWithIdentifierEPKcb
__ZN6OSKext24setDeferredLoadSucceededEb
__ZN6OSKext24setInfoDictionaryAndPathEP12OSDictionaryP8OSString
__ZN6OSKext24setKernelRequestsEnabledEb
__ZN6OSKext24slidePrelinkedExecutableEv
__ZN6OSKext25initWithPrelinkedInfoDictEP12OSDictionary
__ZN6OSKext25updateLoadedKextSummariesEv
__ZN6OSKext26isKextWithIdentifierLoadedEPKc
__ZN6OSKext26reportOSMetaClassInstancesEPKcj
__ZN6OSKext26reportOSMetaClassInstancesEj
__ZN6OSKext26sendPersonalitiesToCatalogEbP7OSArray
__ZN6OSKext27addBleedthroughDependenciesEP7OSArray
__ZN6OSKext27canUnloadKextWithIdentifierEP8OSStringb
__ZN6OSKext27uniquePersonalityPropertiesEP12OSDictionary
__ZN6OSKext28dequeueCallbackForRequestTagEP8OSNumberPP12OSDictionary
__ZN6OSKext28dequeueCallbackForRequestTagEjPP12OSDictionary
__ZN6OSKext28saveLoadedKextPanicListTypedEPKciiPcjPj
__ZN6OSKext29considerDestroyingLinkContextEv
__ZN6OSKext30invokeOrCancelRequestCallbacksEib
__ZN6OSKext30removePersonalitiesFromCatalogEv
__ZN6OSKext31createExcludeListFromBooterDataEP12OSDictionaryP20OSCollectionIterator
__ZN6OSKext32considerRebuildOfPrelinkedKernelEv
__ZN6OSKext32createExcludeListFromPrelinkInfoEP7OSArray
__ZN6OSKext33sendAllKextPersonalitiesToCatalogEb
__ZN6OSKext4freeEv
__ZN6OSKext4loadEhhP7OSArray
__ZN6OSKext4stopEv
__ZN6OSKext5startEb
__ZN6OSKext6unloadEv
__ZN6OSKext8addClassEP11OSMetaClassj
__ZN6OSKext8copyInfoEP7OSArray
__ZN6OSKext8copyUUIDEv
__ZN6OSKext8isKernelEv
__ZN6OSKext8isLoadedEv
__ZN6OSKext9MetaClassC1Ev
__ZN6OSKext9MetaClassC2Ev
__ZN6OSKext9copyKextsEv
__ZN6OSKext9isLibraryEv
__ZN6OSKext9isStartedEv
__ZN6OSKext9metaClassE
__ZN6OSKext9pingKextdEv
__ZN6OSKextC1EPK11OSMetaClass
__ZN6OSKextC1Ev
__ZN6OSKextC2EPK11OSMetaClass
__ZN6OSKextC2Ev
__ZN6OSKextD0Ev
__ZN6OSKextD1Ev
__ZN6OSKextD2Ev
__ZN7OSArray10gMetaClassE
__ZN7OSArray10setOptionsEjjPv
__ZN7OSArray10superClassE
__ZN7OSArray11withObjectsEPPK8OSObjectjj
__ZN7OSArray12removeObjectEj
__ZN7OSArray12withCapacityEj
__ZN7OSArray13initWithArrayEPKS_j
__ZN7OSArray13replaceObjectEjPK15OSMetaClassBase
__ZN7OSArray14copyCollectionEP12OSDictionary
__ZN7OSArray14ensureCapacityEj
__ZN7OSArray15flushCollectionEv
__ZN7OSArray15initWithObjectsEPPK8OSObjectjj
__ZN7OSArray16initWithCapacityEj
__ZN7OSArray17_RESERVEDOSArray0Ev
__ZN7OSArray17_RESERVEDOSArray1Ev
__ZN7OSArray17_RESERVEDOSArray2Ev
__ZN7OSArray17_RESERVEDOSArray3Ev
__ZN7OSArray17_RESERVEDOSArray4Ev
__ZN7OSArray17_RESERVEDOSArray5Ev
__ZN7OSArray17_RESERVEDOSArray6Ev
__ZN7OSArray17_RESERVEDOSArray7Ev
__ZN7OSArray20setCapacityIncrementEj
__ZN7OSArray4freeEv
__ZN7OSArray5mergeEPKS_
__ZN7OSArray9MetaClassC1Ev
__ZN7OSArray9MetaClassC2Ev
__ZN7OSArray9metaClassE
__ZN7OSArray9setObjectEPK15OSMetaClassBase
__ZN7OSArray9setObjectEjPK15OSMetaClassBase
__ZN7OSArray9withArrayEPKS_j
__ZN7OSArrayC1EPK11OSMetaClass
__ZN7OSArrayC1Ev
__ZN7OSArrayC2EPK11OSMetaClass
__ZN7OSArrayC2Ev
__ZN7OSArrayD0Ev
__ZN7OSArrayD1Ev
__ZN7OSArrayD2Ev
__ZN8IOMapper10allocTableEy
__ZN8IOMapper10gMetaClassE
__ZN8IOMapper10iovmInsertEjjP13upl_page_infoj
__ZN8IOMapper10iovmInsertEjjPjj
__ZN8IOMapper10superClassE
__ZN8IOMapper11NewARTTableEyPPvPj
__ZN8IOMapper12FreeARTTableEP6OSDatay
__ZN8IOMapper13iovmMapMemoryEP8OSObjectjjjP13upl_page_infoPK21IODMAMapSpecification
__ZN8IOMapper17setMapperRequiredEb
__ZN8IOMapper18_RESERVEDIOMapper4Ev
__ZN8IOMapper18_RESERVEDIOMapper5Ev
__ZN8IOMapper18_RESERVEDIOMapper6Ev
__ZN8IOMapper18_RESERVEDIOMapper7Ev
__ZN8IOMapper18_RESERVEDIOMapper8Ev
__ZN8IOMapper18_RESERVEDIOMapper9Ev
__ZN8IOMapper18iovmFreeDMACommandEP12IODMACommandjj
__ZN8IOMapper19_RESERVEDIOMapper10Ev
__ZN8IOMapper19_RESERVEDIOMapper11Ev
__ZN8IOMapper19_RESERVEDIOMapper12Ev
__ZN8IOMapper19_RESERVEDIOMapper13Ev
__ZN8IOMapper19_RESERVEDIOMapper14Ev
__ZN8IOMapper19_RESERVEDIOMapper15Ev
__ZN8IOMapper19copyMapperForDeviceEP9IOService
__ZN8IOMapper19iovmAllocDMACommandEP12IODMACommandj
__ZN8IOMapper19waitForSystemMapperEv
__ZN8IOMapper28copyMapperForDeviceWithIndexEP9IOServicej
__ZN8IOMapper4freeEv
__ZN8IOMapper5startEP9IOService
__ZN8IOMapper7gSystemE
__ZN8IOMapper9MetaClassC1Ev
__ZN8IOMapper9MetaClassC2Ev
__ZN8IOMapper9metaClassE
__ZN8IOMapperC2EPK11OSMetaClass
__ZN8IOMapperD0Ev
__ZN8IOMapperD1Ev
__ZN8IOMapperD2Ev
__ZN8IOSyncer10gMetaClassE
__ZN8IOSyncer10superClassE
__ZN8IOSyncer13privateSignalEv
__ZN8IOSyncer4freeEv
__ZN8IOSyncer4initEb
__ZN8IOSyncer4waitEb
__ZN8IOSyncer6createEb
__ZN8IOSyncer6reinitEv
__ZN8IOSyncer6signalEib
__ZN8IOSyncer9MetaClassC1Ev
__ZN8IOSyncer9MetaClassC2Ev
__ZN8IOSyncer9metaClassE
__ZN8IOSyncerC1EPK11OSMetaClass
__ZN8IOSyncerC1Ev
__ZN8IOSyncerC2EPK11OSMetaClass
__ZN8IOSyncerC2Ev
__ZN8IOSyncerD0Ev
__ZN8IOSyncerD1Ev
__ZN8IOSyncerD2Ev
__ZN8OSNumber10gMetaClassE
__ZN8OSNumber10superClassE
__ZN8OSNumber10withNumberEPKcj
__ZN8OSNumber10withNumberEyj
__ZN8OSNumber18_RESERVEDOSNumber0Ev
__ZN8OSNumber18_RESERVEDOSNumber1Ev
__ZN8OSNumber18_RESERVEDOSNumber2Ev
__ZN8OSNumber18_RESERVEDOSNumber3Ev
__ZN8OSNumber18_RESERVEDOSNumber4Ev
__ZN8OSNumber18_RESERVEDOSNumber5Ev
__ZN8OSNumber18_RESERVEDOSNumber6Ev
__ZN8OSNumber18_RESERVEDOSNumber7Ev
__ZN8OSNumber4freeEv
__ZN8OSNumber4initEPKcj
__ZN8OSNumber4initEyj
__ZN8OSNumber8addValueEx
__ZN8OSNumber8setValueEy
__ZN8OSNumber9MetaClassC1Ev
__ZN8OSNumber9MetaClassC2Ev
__ZN8OSNumber9metaClassE
__ZN8OSNumberC1EPK11OSMetaClass
__ZN8OSNumberC1Ev
__ZN8OSNumberC2EPK11OSMetaClass
__ZN8OSNumberC2Ev
__ZN8OSNumberD0Ev
__ZN8OSNumberD1Ev
__ZN8OSNumberD2Ev
__ZN8OSObject10gMetaClassE
__ZN8OSObject10superClassE
__ZN8OSObject18_RESERVEDOSObject0Ev
__ZN8OSObject18_RESERVEDOSObject1Ev
__ZN8OSObject18_RESERVEDOSObject2Ev
__ZN8OSObject18_RESERVEDOSObject3Ev
__ZN8OSObject18_RESERVEDOSObject4Ev
__ZN8OSObject18_RESERVEDOSObject5Ev
__ZN8OSObject18_RESERVEDOSObject6Ev
__ZN8OSObject18_RESERVEDOSObject7Ev
__ZN8OSObject18_RESERVEDOSObject8Ev
__ZN8OSObject18_RESERVEDOSObject9Ev
__ZN8OSObject19_RESERVEDOSObject10Ev
__ZN8OSObject19_RESERVEDOSObject11Ev
__ZN8OSObject19_RESERVEDOSObject12Ev
__ZN8OSObject19_RESERVEDOSObject13Ev
__ZN8OSObject19_RESERVEDOSObject14Ev
__ZN8OSObject19_RESERVEDOSObject15Ev
__ZN8OSObject4freeEv
__ZN8OSObject4initEv
__ZN8OSObject9MetaClassC1Ev
__ZN8OSObject9MetaClassC2Ev
__ZN8OSObject9metaClassE
__ZN8OSObjectC1EPK11OSMetaClass
__ZN8OSObjectC1Ev
__ZN8OSObjectC2EPK11OSMetaClass
__ZN8OSObjectC2Ev
__ZN8OSObjectD0Ev
__ZN8OSObjectD1Ev
__ZN8OSObjectD2Ev
__ZN8OSObjectdlEPvm
__ZN8OSObjectnwEm
__ZN8OSString10gMetaClassE
__ZN8OSString10superClassE
__ZN8OSString10withStringEPKS_
__ZN8OSString11withCStringEPKc
__ZN8OSString14initWithStringEPKS_
__ZN8OSString15initWithCStringEPKc
__ZN8OSString17withCStringNoCopyEPKc
__ZN8OSString18_RESERVEDOSString0Ev
__ZN8OSString18_RESERVEDOSString1Ev
__ZN8OSString18_RESERVEDOSString2Ev
__ZN8OSString18_RESERVEDOSString3Ev
__ZN8OSString18_RESERVEDOSString4Ev
__ZN8OSString18_RESERVEDOSString5Ev
__ZN8OSString18_RESERVEDOSString6Ev
__ZN8OSString18_RESERVEDOSString7Ev
__ZN8OSString18_RESERVEDOSString8Ev
__ZN8OSString18_RESERVEDOSString9Ev
__ZN8OSString19_RESERVEDOSString10Ev
__ZN8OSString19_RESERVEDOSString11Ev
__ZN8OSString19_RESERVEDOSString12Ev
__ZN8OSString19_RESERVEDOSString13Ev
__ZN8OSString19_RESERVEDOSString14Ev
__ZN8OSString19_RESERVEDOSString15Ev
__ZN8OSString21initWithCStringNoCopyEPKc
__ZN8OSString4freeEv
__ZN8OSString7setCharEcj
__ZN8OSString9MetaClassC1Ev
__ZN8OSString9MetaClassC2Ev
__ZN8OSString9metaClassE
__ZN8OSStringC1EPK11OSMetaClass
__ZN8OSStringC1Ev
__ZN8OSStringC2EPK11OSMetaClass
__ZN8OSStringC2Ev
__ZN8OSStringD0Ev
__ZN8OSStringD1Ev
__ZN8OSStringD2Ev
__ZN8OSSymbol10gMetaClassE
__ZN8OSSymbol10initializeEv
__ZN8OSSymbol10superClassE
__ZN8OSSymbol10withStringEPK8OSString
__ZN8OSSymbol11withCStringEPKc
__ZN8OSSymbol14initWithStringEPK8OSString
__ZN8OSSymbol15initWithCStringEPKc
__ZN8OSSymbol17withCStringNoCopyEPKc
__ZN8OSSymbol18_RESERVEDOSSymbol0Ev
__ZN8OSSymbol18_RESERVEDOSSymbol1Ev
__ZN8OSSymbol18_RESERVEDOSSymbol2Ev
__ZN8OSSymbol18_RESERVEDOSSymbol3Ev
__ZN8OSSymbol18_RESERVEDOSSymbol4Ev
__ZN8OSSymbol18_RESERVEDOSSymbol5Ev
__ZN8OSSymbol18_RESERVEDOSSymbol6Ev
__ZN8OSSymbol18_RESERVEDOSSymbol7Ev
__ZN8OSSymbol18checkForPageUnloadEPvS0_
__ZN8OSSymbol21initWithCStringNoCopyEPKc
__ZN8OSSymbol4freeEv
__ZN8OSSymbol7bsearchEPKvS1_jm
__ZN8OSSymbol9MetaClassC1Ev
__ZN8OSSymbol9MetaClassC2Ev
__ZN8OSSymbol9metaClassE
__ZN8OSSymbolC1EPK11OSMetaClass
__ZN8OSSymbolC1Ev
__ZN8OSSymbolC2EPK11OSMetaClass
__ZN8OSSymbolC2Ev
__ZN8OSSymbolD0Ev
__ZN8OSSymbolD1Ev
__ZN8OSSymbolD2Ev
__ZN9IOCommand10gMetaClassE
__ZN9IOCommand10superClassE
__ZN9IOCommand4initEv
__ZN9IOCommand9MetaClassC1Ev
__ZN9IOCommand9MetaClassC2Ev
__ZN9IOCommand9metaClassE
__ZN9IOCommandC1EPK11OSMetaClass
__ZN9IOCommandC1Ev
__ZN9IOCommandC2EPK11OSMetaClass
__ZN9IOCommandC2Ev
__ZN9IOCommandD0Ev
__ZN9IOCommandD1Ev
__ZN9IOCommandD2Ev
__ZN9IODTNVRAM10gMetaClassE
__ZN9IODTNVRAM10safeToSyncEv
__ZN9IODTNVRAM10superClassE
__ZN9IODTNVRAM10writeXPRAMEyPhy
__ZN9IODTNVRAM11setPropertyEPK8OSSymbolP8OSObject
__ZN9IODTNVRAM13initProxyDataEv
__ZN9IODTNVRAM13savePanicInfoEPhy
__ZN9IODTNVRAM13setPropertiesEP8OSObject
__ZN9IODTNVRAM14initNVRAMImageEv
__ZN9IODTNVRAM14removePropertyEPK8OSSymbol
__ZN9IODTNVRAM15initOFVariablesEv
__ZN9IODTNVRAM15syncOFVariablesEv
__ZN9IODTNVRAM16escapeDataToDataEP6OSData
__ZN9IODTNVRAM16updateOWBootArgsEPK8OSSymbolP8OSObject
__ZN9IODTNVRAM17getOWVariableInfoEjPPK8OSSymbolPjS4_
__ZN9IODTNVRAM17readNVRAMPropertyEP15IORegistryEntryPPK8OSSymbolPP6OSData
__ZN9IODTNVRAM18generateOWChecksumEPh
__ZN9IODTNVRAM18getNVRAMPartitionsEv
__ZN9IODTNVRAM18readNVRAMPartitionEPK8OSSymbolyPhy
__ZN9IODTNVRAM18validateOWChecksumEPh
__ZN9IODTNVRAM18writeNVRAMPropertyEP15IORegistryEntryPK8OSSymbolP6OSData
__ZN9IODTNVRAM19convertObjectToPropEPhPjPK8OSSymbolP8OSObject
__ZN9IODTNVRAM19convertPropToObjectEPhjS0_jPPK8OSSymbolPP8OSObject
__ZN9IODTNVRAM19searchNVRAMPropertyEP17IONVRAMDescriptorPj
__ZN9IODTNVRAM19unescapeBytesToDataEPKhj
__ZN9IODTNVRAM19writeNVRAMPartitionEPK8OSSymbolyPhy
__ZN9IODTNVRAM22readNVRAMPropertyType0EP15IORegistryEntryPPK8OSSymbolPP6OSData
__ZN9IODTNVRAM22readNVRAMPropertyType1EP15IORegistryEntryPPK8OSSymbolPP6OSData
__ZN9IODTNVRAM23registerNVRAMControllerEP17IONVRAMController
__ZN9IODTNVRAM23writeNVRAMPropertyType0EP15IORegistryEntryPK8OSSymbolP6OSData
__ZN9IODTNVRAM23writeNVRAMPropertyType1EP15IORegistryEntryPK8OSSymbolP6OSData
__ZN9IODTNVRAM26calculatePartitionChecksumEPh
__ZN9IODTNVRAM4initEP15IORegistryEntryPK15IORegistryPlane
__ZN9IODTNVRAM4syncEv
__ZN9IODTNVRAM9MetaClassC1Ev
__ZN9IODTNVRAM9MetaClassC2Ev
__ZN9IODTNVRAM9metaClassE
__ZN9IODTNVRAM9readXPRAMEyPhy
__ZN9IODTNVRAMC1EPK11OSMetaClass
__ZN9IODTNVRAMC1Ev
__ZN9IODTNVRAMC2EPK11OSMetaClass
__ZN9IODTNVRAMC2Ev
__ZN9IODTNVRAMD0Ev
__ZN9IODTNVRAMD1Ev
__ZN9IODTNVRAMD2Ev
__ZN9IOService10actionStopEPS_S0_PvS1_S1_
__ZN9IOService10adjustBusyEi
__ZN9IOService10gMetaClassE
__ZN9IOService10handleOpenEPS_jPv
__ZN9IOService10initializeEv
__ZN9IOService10joinPMtreeEPS_
__ZN9IOService10makeUsableEv
__ZN9IOService10superClassE
__ZN9IOService11_adjustBusyEi
__ZN9IOService11addLocationEP12OSDictionary
__ZN9IOService11getPlatformEv
__ZN9IOService11handleCloseEPS_j
__ZN9IOService11isPMBlockedEP11IOPMRequesti
__ZN9IOService11notifyChildEP17IOPowerConnection
__ZN9IOService11setPlatformEP16IOPlatformExpert
__ZN9IOService11tellClientsEi
__ZN9IOService12OurSyncStartEv
__ZN9IOService12ackTimerTickEv
__ZN9IOService12checkForDoneEv
__ZN9IOService12didTerminateEPS_jPb
__ZN9IOService12getBusyStateEv
__ZN9IOService12getResourcesEv
__ZN9IOService12handlePMstopEP11IOPMRequest
__ZN9IOService12matchPassiveEP12OSDictionaryj
__ZN9IOService12nameMatchingEPK8OSStringP12OSDictionary
__ZN9IOService12nameMatchingEPKcP12OSDictionary
__ZN9IOService12passiveMatchEP12OSDictionaryb
__ZN9IOService12requestProbeEj
__ZN9IOService12scheduleStopEPS_
__ZN9IOService12tellChangeUpEm
__ZN9IOService12updateReportEP19IOReportChannelListjPvS2_
__ZN9IOService12waitForStateEjjP13mach_timespec
__ZN9IOService12waitForStateEjjy
__ZN9IOService13addPowerChildEPS_
__ZN9IOService13askChangeDownEm
__ZN9IOService13checkResourceEP8OSObject
__ZN9IOService13getPMworkloopEv
__ZN9IOService13getPowerStateEv
__ZN9IOService13instanceMatchEPK8OSObjectPv
__ZN9IOService13invokeNotiferEP18_IOServiceNotifier
__ZN9IOService13matchInternalEP12OSDictionaryjPj
__ZN9IOService13matchLocationEPS_
__ZN9IOService13messageClientEjP8OSObjectPvm
__ZN9IOService13newUserClientEP4taskPvjP12OSDictionaryPP12IOUserClient
__ZN9IOService13newUserClientEP4taskPvjPP12IOUserClient
__ZN9IOService13responseValidEji
__ZN9IOService13setParentInfoEmP17IOPowerConnectionb
__ZN9IOService13setPowerStateEmPS_
__ZN9IOService13startMatchingEj
__ZN9IOService13waitMatchIdleEj
__ZN9IOService13willTerminateEPS_j
__ZN9IOService14OurChangeStartEv
__ZN9IOService14actionFinalizeEPS_jPvS1_S1_
__ZN9IOService14activityTickleEmm
__ZN9IOService14addPowerChild1EP11IOPMRequest
__ZN9IOService14addPowerChild2EP11IOPMRequest
__ZN9IOService14addPowerChild3EP11IOPMRequest
__ZN9IOService14applyToClientsEPFvPS_PvES1_
__ZN9IOService14causeInterruptEi
__ZN9IOService14checkResourcesEv
__ZN9IOService14doServiceMatchEj
__ZN9IOService14getServiceRootEv
__ZN9IOService14messageClientsEjPvm
__ZN9IOService14notifyChildrenEv
__ZN9IOService14startCandidateEPS_
__ZN9IOService14stop_ack_timerEv
__ZN9IOService14tellChangeDownEm
__ZN9IOService14waitForServiceEP12OSDictionaryP13mach_timespec
__ZN9IOService15OurChangeFinishEv
__ZN9IOService15addNotificationEPK8OSSymbolP12OSDictionaryPFbPvS5_PS_ES5_S5_i
__ZN9IOService15comparePropertyEP12OSDictionaryPK8OSString
__ZN9IOService15comparePropertyEP12OSDictionaryPKc
__ZN9IOService15configureReportEP19IOReportChannelListjPvS2_
__ZN9IOService15enableInterruptEi
__ZN9IOService15errnoFromReturnEi
__ZN9IOService15getDeviceMemoryEv
__ZN9IOService15getPMRootDomainEv
__ZN9IOService15lookupInterruptEibPP21IOInterruptController
__ZN9IOService15nextIdleTimeoutEyyj
__ZN9IOService15pmDriverCalloutEPS_
__ZN9IOService15powerChangeDoneEm
__ZN9IOService15probeCandidatesEP12OSOrderedSet
__ZN9IOService15publishResourceEPK8OSSymbolP8OSObject
__ZN9IOService15publishResourceEPKcP8OSObject
__ZN9IOService15registerServiceEj
__ZN9IOService15retirePMRequestEP11IOPMRequestP13IOPMWorkQueue
__ZN9IOService15serviceMatchingEPK8OSStringP12OSDictionary
__ZN9IOService15serviceMatchingEPKcP12OSDictionary
__ZN9IOService15setDeviceMemoryEP7OSArray
__ZN9IOService15setNotificationEPK8OSSymbolP12OSDictionaryPFbPvS5_PS_P10IONotifierES5_S5_i
__ZN9IOService15setPMRootDomainEP14IOPMrootDomain
__ZN9IOService15start_ack_timerEjj
__ZN9IOService15start_ack_timerEv
__ZN9IOService15submitPMRequestEP11IOPMRequest
__ZN9IOService15submitPMRequestEPP11IOPMRequestj
__ZN9IOService15tellChangeDown1Em
__ZN9IOService15tellChangeDown2Em
__ZN9IOService15terminateClientEPS_j
__ZN9IOService15terminatePhase1Ej
__ZN9IOService15terminateThreadEPvi
__ZN9IOService15terminateWorkerEj
__ZN9IOService16acquirePMRequestEPS_jP11IOPMRequest
__ZN9IOService16adjustPowerStateEj
__ZN9IOService16allowPowerChangeEm
__ZN9IOService16applyToProvidersEPFvPS_PvES1_
__ZN9IOService16consoleLockTimerEPvS0_
__ZN9IOService16disableInterruptEi
__ZN9IOService16executePMRequestEP11IOPMRequest
__ZN9IOService16getCPUSnoopDelayEv
__ZN9IOService16getInterruptTypeEiPi
__ZN9IOService16idleTimerExpiredEv
__ZN9IOService16notifyRootDomainEv
__ZN9IOService16propertyMatchingEPK8OSSymbolPK8OSObjectP12OSDictionary
__ZN9IOService16registerInterestEPK8OSSymbolPFiPvS3_jPS_S3_mES3_S3_
__ZN9IOService16releasePMRequestEP11IOPMRequest
__ZN9IOService16removePowerChildEP17IOPowerConnection
__ZN9IOService16requestTerminateEPS_j
__ZN9IOService16resolveInterruptEPS_i
__ZN9IOService16resourceMatchingEPK8OSStringP12OSDictionary
__ZN9IOService16resourceMatchingEPKcP12OSDictionary
__ZN9IOService16restartIdleTimerEv
__ZN9IOService16scheduleFinalizeEv
__ZN9IOService16servicePMRequestEP11IOPMRequestP13IOPMWorkQueue
__ZN9IOService16setCPUSnoopDelayEj
__ZN9IOService16startPowerChangeEjmmP17IOPowerConnectionm
__ZN9IOService16startSettleTimerEv
__ZN9IOService16stringFromReturnEi
__ZN9IOService16tellNoChangeDownEm
__ZN9IOService17ParentChangeStartEv
__ZN9IOService17ack_timer_expiredEPvS0_
__ZN9IOService17addNeededResourceEPKc
__ZN9IOService17applyToInterestedEPK8OSSymbolPFvP8OSObjectPvES5_
__ZN9IOService17cancelPowerChangeEm
__ZN9IOService17catalogNewDriversEP12OSOrderedSet
__ZN9IOService17comparePropertiesEP12OSDictionaryP12OSCollection
__ZN9IOService17currentCapabilityEv
__ZN9IOService17getAggressivenessEmPm
__ZN9IOService17registerInterruptEiP8OSObjectPFvS1_PvPS_iES2_
__ZN9IOService17removePowerClientEPK8OSSymbol
__ZN9IOService17requestPowerStateEPK8OSSymbolj
__ZN9IOService17setAggressivenessEmm
__ZN9IOService17setTerminateDeferEPS_b
__ZN9IOService17updatePowerClientEPK8OSSymbolj
__ZN9IOService18actionDidTerminateEPS_jPvS1_S1_
__ZN9IOService18assertPMDriverCallEP19IOPMDriverCallEntryjP12IOPMinformee
__ZN9IOService18changePowerStateToEm
__ZN9IOService18doServiceTerminateEj
__ZN9IOService18getIOMessageStringEj
__ZN9IOService18getResourceServiceEv
__ZN9IOService18lockForArbitrationEb
__ZN9IOService18matchPropertyTableEP12OSDictionary
__ZN9IOService18matchPropertyTableEP12OSDictionaryPi
__ZN9IOService18requestDomainPowerEmj
__ZN9IOService18requireMaxBusStallEj
__ZN9IOService18servicePMFreeQueueEP11IOPMRequestP19IOPMCompletionQueue
__ZN9IOService18setIdleTimerPeriodEm
__ZN9IOService18setIgnoreIdleTimerEb
__ZN9IOService18settleTimerExpiredEv
__ZN9IOService18systemWillShutdownEj
__ZN9IOService18updateConsoleUsersEP7OSArrayj
__ZN9IOService19_RESERVEDIOService2Ev
__ZN9IOService19_RESERVEDIOService3Ev
__ZN9IOService19_RESERVEDIOService4Ev
__ZN9IOService19_RESERVEDIOService5Ev
__ZN9IOService19_RESERVEDIOService6Ev
__ZN9IOService19_RESERVEDIOService7Ev
__ZN9IOService19_RESERVEDIOService8Ev
__ZN9IOService19_RESERVEDIOService9Ev
__ZN9IOService19actionWillTerminateEPS_jP7OSArrayPvS3_
__ZN9IOService19computeDesiredStateEmb
__ZN9IOService19copyMatchingServiceEP12OSDictionary
__ZN9IOService19deliverNotificationEPK8OSSymboljj
__ZN9IOService19driverSetPowerStateEv
__ZN9IOService19getMatchingServicesEP12OSDictionary
__ZN9IOService19installNotificationEPK8OSSymbolP12OSDictionaryPFbPvS5_PS_P10IONotifierES5_S5_iPP10OSIterator
__ZN9IOService19powerOverrideOnPrivEv
__ZN9IOService19registerPowerDriverEPS_P14IOPMPowerStatem
__ZN9IOService19servicePMReplyQueueEP11IOPMRequestP16IOPMRequestQueue
__ZN9IOService19start_PM_idle_timerEv
__ZN9IOService19stop_watchdog_timerEv
__ZN9IOService19unregisterInterruptEi
__ZN9IOService19waitForPMDriverCallEPS_
__ZN9IOService20_RESERVEDIOService10Ev
__ZN9IOService20_RESERVEDIOService11Ev
__ZN9IOService20_RESERVEDIOService12Ev
__ZN9IOService20_RESERVEDIOService13Ev
__ZN9IOService20_RESERVEDIOService14Ev
__ZN9IOService20_RESERVEDIOService15Ev
__ZN9IOService20_RESERVEDIOService16Ev
__ZN9IOService20_RESERVEDIOService17Ev
__ZN9IOService20_RESERVEDIOService18Ev
__ZN9IOService20_RESERVEDIOService19Ev
__ZN9IOService20_RESERVEDIOService20Ev
__ZN9IOService20_RESERVEDIOService21Ev
__ZN9IOService20_RESERVEDIOService22Ev
__ZN9IOService20_RESERVEDIOService23Ev
__ZN9IOService20_RESERVEDIOService24Ev
__ZN9IOService20_RESERVEDIOService25Ev
__ZN9IOService20_RESERVEDIOService26Ev
__ZN9IOService20_RESERVEDIOService27Ev
__ZN9IOService20_RESERVEDIOService28Ev
__ZN9IOService20_RESERVEDIOService29Ev
__ZN9IOService20_RESERVEDIOService30Ev
__ZN9IOService20_RESERVEDIOService31Ev
__ZN9IOService20_RESERVEDIOService32Ev
__ZN9IOService20_RESERVEDIOService33Ev
__ZN9IOService20_RESERVEDIOService34Ev
__ZN9IOService20_RESERVEDIOService35Ev
__ZN9IOService20_RESERVEDIOService36Ev
__ZN9IOService20_RESERVEDIOService37Ev
__ZN9IOService20_RESERVEDIOService38Ev
__ZN9IOService20_RESERVEDIOService39Ev
__ZN9IOService20_RESERVEDIOService40Ev
__ZN9IOService20_RESERVEDIOService41Ev
__ZN9IOService20_RESERVEDIOService42Ev
__ZN9IOService20_RESERVEDIOService43Ev
__ZN9IOService20_RESERVEDIOService44Ev
__ZN9IOService20_RESERVEDIOService45Ev
__ZN9IOService20_RESERVEDIOService46Ev
__ZN9IOService20_RESERVEDIOService47Ev
__ZN9IOService20callPlatformFunctionEPK8OSSymbolbPvS3_S3_S3_
__ZN9IOService20callPlatformFunctionEPKcbPvS2_S2_S2_
__ZN9IOService20cleanClientResponsesEb
__ZN9IOService20copyExistingServicesEP12OSDictionaryjj
__ZN9IOService20deassertPMDriverCallEP19IOPMDriverCallEntry
__ZN9IOService20getDeviceMemoryCountEv
__ZN9IOService20handleActivityTickleEP11IOPMRequest
__ZN9IOService20notifyRootDomainDoneEv
__ZN9IOService20powerOverrideOffPrivEv
__ZN9IOService20reset_watchdog_timerEv
__ZN9IOService20start_watchdog_timerEv
__ZN9IOService20synchronizePowerTreeEjPS_
__ZN9IOService20unlockForArbitrationEv
__ZN9IOService21actionAckTimerExpiredEP8OSObjectPvS2_S2_S2_
__ZN9IOService21doInstallNotificationEPK8OSSymbolP12OSDictionaryPFbPvS5_PS_P10IONotifierES5_S5_iPP10OSIterator
__ZN9IOService21getClientWithCategoryEPK8OSSymbol
__ZN9IOService21handleInterestChangedEP11IOPMRequest
__ZN9IOService21notifyChildrenDelayedEv
__ZN9IOService21notifyChildrenOrderedEv
__ZN9IOService21pmTellAppWithResponseEP8OSObjectPv
__ZN9IOService21powerStateDidChangeToEmmPS_
__ZN9IOService21servicePMRequestQueueEP11IOPMRequestP16IOPMRequestQueue
__ZN9IOService21temporaryPowerClampOnEv
__ZN9IOService21unregisterAllInterestEv
__ZN9IOService22OurChangeSetPowerStateEv
__ZN9IOService22acknowledgePowerChangeEPS_
__ZN9IOService22changePowerStateToPrivEm
__ZN9IOService22copyClientWithCategoryEPK8OSSymbol
__ZN9IOService22getAccumulatedBusyTimeEv
__ZN9IOService22getPowerStateForClientEPK8OSSymbol
__ZN9IOService22powerStateWillChangeToEmmPS_
__ZN9IOService22waitForMatchingServiceEP12OSDictionaryy
__ZN9IOService22watchdog_timer_expiredEPvS0_
__ZN9IOService23acknowledgeNotificationEPvj
__ZN9IOService23actionDriverCalloutDoneEP8OSObjectPvS2_S2_S2_
__ZN9IOService23addMatchingNotificationEPK8OSSymbolP12OSDictionaryPFbPvS5_PS_P10IONotifierES5_S5_i
__ZN9IOService23currentPowerConsumptionEv
__ZN9IOService23driverInformPowerChangeEv
__ZN9IOService23handleRequestPowerStateEP11IOPMRequest
__ZN9IOService23notifyControllingDriverEv
__ZN9IOService23notifyInterestedDriversEv
__ZN9IOService23registryEntryIDMatchingEyP12OSDictionary
__ZN9IOService23requestPowerDomainStateEmP17IOPowerConnectionm
__ZN9IOService23scheduleTerminatePhase2Ej
__ZN9IOService23setAdvisoryTickleEnableEb
__ZN9IOService23syncNotificationHandlerEPvS0_PS_P10IONotifier
__ZN9IOService23tellClientsWithResponseEi
__ZN9IOService23updatePowerStatesReportEjPvS0_
__ZN9IOService23updateSimplePowerReportEjPvS0_
__ZN9IOService24acknowledgeSetPowerStateEv
__ZN9IOService24getDeviceMemoryWithIndexEj
__ZN9IOService24mapDeviceMemoryWithIndexEjj
__ZN9IOService24pmTellClientWithResponseEP8OSObjectPv
__ZN9IOService24powerStateForDomainStateEm
__ZN9IOService24registerInterestedDriverEPS_
__ZN9IOService24requireMaxInterruptDelayEj
__ZN9IOService25ParentChangeSetPowerStateEv
__ZN9IOService25handleRegisterPowerDriverEP11IOPMRequest
__ZN9IOService26ParentChangeRootChangeDownEv
__ZN9IOService26configurePowerStatesReportEjPv
__ZN9IOService26configureSimplePowerReportEjPv
__ZN9IOService26deRegisterInterestedDriverEPS_
__ZN9IOService26handlePowerOverrideChangedEP11IOPMRequest
__ZN9IOService26handleSynchronizePowerTreeEP11IOPMRequest
__ZN9IOService26tellSystemCapabilityChangeEj
__ZN9IOService26trackSystemSleepPreventersEmmj
__ZN9IOService27OurChangeWaitForPowerSettleEv
__ZN9IOService27getPowerStateForDomainFlagsEm
__ZN9IOService27maxCapabilityForDomainStateEm
__ZN9IOService27notifyControllingDriverDoneEv
__ZN9IOService27notifyInterestedDriversDoneEv
__ZN9IOService28handleAcknowledgePowerChangeEP11IOPMRequest
__ZN9IOService28handlePowerDomainDidChangeToEP11IOPMRequest
__ZN9IOService29OurChangeTellClientsPowerDownEv
__ZN9IOService29changePowerStateForRootDomainEm
__ZN9IOService29handlePowerDomainWillChangeToEP11IOPMRequest
__ZN9IOService30ParentChangeWaitForPowerSettleEv
__ZN9IOService30changePowerStateWithOverrideToEmj
__ZN9IOService31initialPowerStateForDomainStateEm
__ZN9IOService31pmTellCapabilityAppWithResponseEP8OSObjectPv
__ZN9IOService32OurChangeTellCapabilityDidChangeEv
__ZN9IOService33OurChangeTellCapabilityWillChangeEv
__ZN9IOService34OurChangeTellUserPMPolicyPowerDownEv
__ZN9IOService34ParentChangeAcknowledgePowerChangeEv
__ZN9IOService34pmTellCapabilityClientWithResponseEP8OSObjectPv
__ZN9IOService35ParentChangeTellCapabilityDidChangeEv
__ZN9IOService36ParentChangeTellCapabilityWillChangeEv
__ZN9IOService37OurChangeTellPriorityClientsPowerDownEv
__ZN9IOService40ParentChangeTellPriorityClientsPowerDownEv
__ZN9IOService41OurChangeNotifyInterestedDriversDidChangeEv
__ZN9IOService42OurChangeNotifyInterestedDriversWillChangeEv
__ZN9IOService44ParentChangeNotifyInterestedDriversDidChangeEv
__ZN9IOService45ParentChangeNotifyInterestedDriversWillChangeEv
__ZN9IOService4freeEv
__ZN9IOService4openEPS_jPv
__ZN9IOService4stopEPS_
__ZN9IOService5closeEPS_j
__ZN9IOService5probeEPS_Pi
__ZN9IOService5startEPS_
__ZN9IOService6PMfreeEv
__ZN9IOService6PMinitEv
__ZN9IOService6PMstopEv
__ZN9IOService6attachEPS_
__ZN9IOService6detachEPS_
__ZN9IOService7PMDebugEjmm
__ZN9IOService7messageEjPS_Pv
__ZN9IOService8all_doneEv
__ZN9IOService8finalizeEj
__ZN9IOService9MetaClassC1Ev
__ZN9IOService9MetaClassC2Ev
__ZN9IOService9metaClassE
__ZN9IOService9notifyAllEj
__ZN9IOService9terminateEj
__ZN9IOService9waitQuietEP13mach_timespec
__ZN9IOService9waitQuietEy
__ZN9IOServiceC1EPK11OSMetaClass
__ZN9IOServiceC1Ev
__ZN9IOServiceC2EPK11OSMetaClass
__ZN9IOServiceC2Ev
__ZN9IOServiceD0Ev
__ZN9IOServiceD1Ev
__ZN9IOServiceD2Ev
__ZN9OSBoolean10gMetaClassE
__ZN9OSBoolean10initializeEv
__ZN9OSBoolean10superClassE
__ZN9OSBoolean11withBooleanEb
__ZN9OSBoolean19_RESERVEDOSBoolean0Ev
__ZN9OSBoolean19_RESERVEDOSBoolean1Ev
__ZN9OSBoolean19_RESERVEDOSBoolean2Ev
__ZN9OSBoolean19_RESERVEDOSBoolean3Ev
__ZN9OSBoolean19_RESERVEDOSBoolean4Ev
__ZN9OSBoolean19_RESERVEDOSBoolean5Ev
__ZN9OSBoolean19_RESERVEDOSBoolean6Ev
__ZN9OSBoolean19_RESERVEDOSBoolean7Ev
__ZN9OSBoolean4freeEv
__ZN9OSBoolean9MetaClassC1Ev
__ZN9OSBoolean9MetaClassC2Ev
__ZN9OSBoolean9metaClassE
__ZN9OSBooleanC1EPK11OSMetaClass
__ZN9OSBooleanC1Ev
__ZN9OSBooleanC2EPK11OSMetaClass
__ZN9OSBooleanC2Ev
__ZN9OSBooleanD0Ev
__ZN9OSBooleanD1Ev
__ZN9OSBooleanD2Ev
__ZNK10IOMachPort12getMetaClassEv
__ZNK10IOMachPort9MetaClass5allocEv
__ZNK10IONotifier12getMetaClassEv
__ZNK10IONotifier9MetaClass5allocEv
__ZNK10IOWorkLoop12getMetaClassEv
__ZNK10IOWorkLoop19enableAllInterruptsEv
__ZNK10IOWorkLoop20disableAllInterruptsEv
__ZNK10IOWorkLoop21enableAllEventSourcesEv
__ZNK10IOWorkLoop22disableAllEventSourcesEv
__ZNK10IOWorkLoop6inGateEv
__ZNK10IOWorkLoop8onThreadEv
__ZNK10IOWorkLoop9MetaClass5allocEv
__ZNK10IOWorkLoop9getThreadEv
__ZNK10OSIterator12getMetaClassEv
__ZNK10OSIterator9MetaClass5allocEv
__ZNK11IOCatalogue12getMetaClassEv
__ZNK11IOCatalogue12unloadModuleEP8OSString
__ZNK11IOCatalogue13serializeDataEjP11OSSerialize
__ZNK11IOCatalogue14isModuleLoadedEP12OSDictionary
__ZNK11IOCatalogue14isModuleLoadedEP8OSString
__ZNK11IOCatalogue14isModuleLoadedEPKc
__ZNK11IOCatalogue18getGenerationCountEv
__ZNK11IOCatalogue9MetaClass5allocEv
__ZNK11IOCatalogue9serializeEP11OSSerialize
__ZNK11IODataQueue12getMetaClassEv
__ZNK11IODataQueue9MetaClass5allocEv
__ZNK11IOMemoryMap12getMetaClassEv
__ZNK11IOMemoryMap13taggedReleaseEPKv
__ZNK11IOMemoryMap9MetaClass5allocEv
__ZNK11IOPMRequest12getMetaClassEv
__ZNK11IOPMRequest9MetaClass5allocEv
__ZNK11IOResources11getWorkLoopEv
__ZNK11IOResources12getMetaClassEv
__ZNK11IOResources9MetaClass5allocEv
__ZNK11IOServicePM12getMetaClassEv
__ZNK11IOServicePM14gatedSerializeEP11OSSerialize
__ZNK11IOServicePM7pmPrintEjmm
__ZNK11IOServicePM7pmTraceEjmm
__ZNK11IOServicePM9MetaClass5allocEv
__ZNK11IOServicePM9serializeEP11OSSerialize
__ZNK11OSMetaClass11addInstanceEPK8OSObjectb
__ZNK11OSMetaClass11getKmodNameEv
__ZNK11OSMetaClass12getClassNameEv
__ZNK11OSMetaClass12getClassSizeEv
__ZNK11OSMetaClass12getMetaClassEv
__ZNK11OSMetaClass12taggedRetainEPKv
__ZNK11OSMetaClass13checkMetaCastEPK15OSMetaClassBase
__ZNK11OSMetaClass13getSuperClassEv
__ZNK11OSMetaClass13taggedReleaseEPKv
__ZNK11OSMetaClass13taggedReleaseEPKvi
__ZNK11OSMetaClass14getRetainCountEv
__ZNK11OSMetaClass14removeInstanceEPK8OSObjectb
__ZNK11OSMetaClass14reservedCalledEi
__ZNK11OSMetaClass16applyToInstancesEPFbPK8OSObjectPvES3_
__ZNK11OSMetaClass16getInstanceCountEv
__ZNK11OSMetaClass18getClassNameSymbolEv
__ZNK11OSMetaClass18instanceDestructedEv
__ZNK11OSMetaClass19instanceConstructedEv
__ZNK11OSMetaClass6retainEv
__ZNK11OSMetaClass7releaseEi
__ZNK11OSMetaClass7releaseEv
__ZNK11OSMetaClass9serializeEP11OSSerialize
__ZNK11OSSerialize11getCapacityEv
__ZNK11OSSerialize12getMetaClassEv
__ZNK11OSSerialize20getCapacityIncrementEv
__ZNK11OSSerialize4textEv
__ZNK11OSSerialize9MetaClass5allocEv
__ZNK11OSSerialize9getLengthEv
__ZNK12IODMACommand12getMetaClassEv
__ZNK12IODMACommand19getMemoryDescriptorEv
__ZNK12IODMACommand9MetaClass5allocEv
__ZNK12IOPMTimeline12getMetaClassEv
__ZNK12IOPMTimeline9MetaClass5allocEv
__ZNK12IOPMinformee12getMetaClassEv
__ZNK12IOPMinformee9MetaClass5allocEv
__ZNK12IORootParent12copyPropertyEPKc
__ZNK12IORootParent12getMetaClassEv
__ZNK12IORootParent9MetaClass5allocEv
__ZNK12IOUserClient12getMetaClassEv
__ZNK12IOUserClient9MetaClass5allocEv
__ZNK12OSCollection12getMetaClassEv
__ZNK12OSCollection9MetaClass5allocEv
__ZNK12OSDictionary11getCapacityEv
__ZNK12OSDictionary12getMetaClassEv
__ZNK12OSDictionary12initIteratorEPv
__ZNK12OSDictionary12iteratorSizeEv
__ZNK12OSDictionary20getCapacityIncrementEv
__ZNK12OSDictionary24getNextObjectForIteratorEPvPP8OSObject
__ZNK12OSDictionary8getCountEv
__ZNK12OSDictionary9MetaClass5allocEv
__ZNK12OSDictionary9getObjectEPK8OSString
__ZNK12OSDictionary9getObjectEPK8OSSymbol
__ZNK12OSDictionary9getObjectEPKc
__ZNK12OSDictionary9isEqualToEPK15OSMetaClassBase
__ZNK12OSDictionary9isEqualToEPKS_
__ZNK12OSDictionary9isEqualToEPKS_PK12OSCollection
__ZNK12OSDictionary9serializeEP11OSSerialize
__ZNK12OSOrderedSet11getCapacityEv
__ZNK12OSOrderedSet12getMetaClassEv
__ZNK12OSOrderedSet12initIteratorEPv
__ZNK12OSOrderedSet12iteratorSizeEv
__ZNK12OSOrderedSet13getLastObjectEv
__ZNK12OSOrderedSet14containsObjectEPK15OSMetaClassBase
__ZNK12OSOrderedSet14getFirstObjectEv
__ZNK12OSOrderedSet20getCapacityIncrementEv
__ZNK12OSOrderedSet24getNextObjectForIteratorEPvPP8OSObject
__ZNK12OSOrderedSet6memberEPK15OSMetaClassBase
__ZNK12OSOrderedSet8getCountEv
__ZNK12OSOrderedSet9MetaClass5allocEv
__ZNK12OSOrderedSet9getObjectEj
__ZNK12OSOrderedSet9isEqualToEPK15OSMetaClassBase
__ZNK12OSOrderedSet9isEqualToEPKS_
__ZNK12OSSerializer12getMetaClassEv
__ZNK12OSSerializer9MetaClass5allocEv
__ZNK12OSSerializer9serializeEP11OSSerialize
__ZNK12OSSymbolPool10findSymbolEPKc
__ZNK12PMHaltWorker12getMetaClassEv
__ZNK12PMHaltWorker9MetaClass5allocEv
__ZNK13IOCommandGate12getMetaClassEv
__ZNK13IOCommandGate9MetaClass5allocEv
__ZNK13IOCommandPool12getMetaClassEv
__ZNK13IOCommandPool9MetaClass5allocEv
__ZNK13IOEventSource11getWorkLoopEv
__ZNK13IOEventSource12getMetaClassEv
__ZNK13IOEventSource7getNextEv
__ZNK13IOEventSource8onThreadEv
__ZNK13IOEventSource9MetaClass5allocEv
__ZNK13IOEventSource9getActionEv
__ZNK13IOEventSource9isEnabledEv
__ZNK13IOPMWorkQueue12getMetaClassEv
__ZNK13IOPMWorkQueue9MetaClass5allocEv
__ZNK13PMTraceWorker12getMetaClassEv
__ZNK13PMTraceWorker9MetaClass5allocEv
__ZNK13PMTraceWorker9serializeEP11OSSerialize
__ZNK13_IOServiceJob12getMetaClassEv
__ZNK13_IOServiceJob9MetaClass5allocEv
__ZNK14IOMemoryCursor12getMetaClassEv
__ZNK14IOMemoryCursor9MetaClass5allocEv
__ZNK14IOPMrootDomain12copyPropertyEPKc
__ZNK14IOPMrootDomain12getMetaClassEv
__ZNK14IOPMrootDomain19serializePropertiesEP11OSSerialize
__ZNK14IOPMrootDomain9MetaClass5allocEv
__ZNK14PMEventDetails12getMetaClassEv
__ZNK14PMEventDetails9MetaClass5allocEv
__ZNK15IOConditionLock12getConditionEv
__ZNK15IOConditionLock12getMetaClassEv
__ZNK15IOConditionLock16getInterruptibleEv
__ZNK15IOConditionLock9MetaClass5allocEv
__ZNK15IODMAController12getMetaClassEv
__ZNK15IODMAController9MetaClass5allocEv
__ZNK15IOPMPowerSource12getMetaClassEv
__ZNK15IOPMPowerSource9MetaClass5allocEv
__ZNK15IOPanicPlatform12getMetaClassEv
__ZNK15IOPanicPlatform9MetaClass5allocEv
__ZNK15IORegistryEntry11compareNameEP8OSStringPS1_
__ZNK15IORegistryEntry11getLocationEPK15IORegistryPlane
__ZNK15IORegistryEntry11getPropertyEPK8OSString
__ZNK15IORegistryEntry11getPropertyEPK8OSStringPK15IORegistryPlanej
__ZNK15IORegistryEntry11getPropertyEPK8OSSymbol
__ZNK15IORegistryEntry11getPropertyEPK8OSSymbolPK15IORegistryPlanej
__ZNK15IORegistryEntry11getPropertyEPKc
__ZNK15IORegistryEntry11getPropertyEPKcPK15IORegistryPlanej
__ZNK15IORegistryEntry12compareNamesEP8OSObjectPP8OSString
__ZNK15IORegistryEntry12copyLocationEPK15IORegistryPlane
__ZNK15IORegistryEntry12copyPropertyEPK8OSString
__ZNK15IORegistryEntry12copyPropertyEPK8OSStringPK15IORegistryPlanej
__ZNK15IORegistryEntry12copyPropertyEPK8OSSymbol
__ZNK15IORegistryEntry12copyPropertyEPK8OSSymbolPK15IORegistryPlanej
__ZNK15IORegistryEntry12copyPropertyEPKc
__ZNK15IORegistryEntry12copyPropertyEPKcPK15IORegistryPlanej
__ZNK15IORegistryEntry12getMetaClassEv
__ZNK15IORegistryEntry13getChildEntryEPK15IORegistryPlane
__ZNK15IORegistryEntry14applyToParentsEPFvPS_PvES1_PK15IORegistryPlane
__ZNK15IORegistryEntry14copyChildEntryEPK15IORegistryPlane
__ZNK15IORegistryEntry14getParentEntryEPK15IORegistryPlane
__ZNK15IORegistryEntry15applyToChildrenEPFvPS_PvES1_PK15IORegistryPlane
__ZNK15IORegistryEntry15copyParentEntryEPK15IORegistryPlane
__ZNK15IORegistryEntry16getChildIteratorEPK15IORegistryPlane
__ZNK15IORegistryEntry16getPathComponentEPcPiPK15IORegistryPlane
__ZNK15IORegistryEntry16getPropertyTableEv
__ZNK15IORegistryEntry17getParentIteratorEPK15IORegistryPlane
__ZNK15IORegistryEntry19serializePropertiesEP11OSSerialize
__ZNK15IORegistryEntry20getChildSetReferenceEPK15IORegistryPlane
__ZNK15IORegistryEntry21getParentSetReferenceEPK15IORegistryPlane
__ZNK15IORegistryEntry24dictionaryWithPropertiesEv
__ZNK15IORegistryEntry7getNameEPK15IORegistryPlane
__ZNK15IORegistryEntry7getPathEPcPiPK15IORegistryPlane
__ZNK15IORegistryEntry7inPlaneEPK15IORegistryPlane
__ZNK15IORegistryEntry7isChildEPS_PK15IORegistryPlaneb
__ZNK15IORegistryEntry8copyNameEPK15IORegistryPlane
__ZNK15IORegistryEntry8getDepthEPK15IORegistryPlane
__ZNK15IORegistryEntry8hasAliasEPK15IORegistryPlanePcPi
__ZNK15IORegistryEntry8isParentEPS_PK15IORegistryPlaneb
__ZNK15IORegistryEntry8makeLinkEPS_jPK15IORegistryPlane
__ZNK15IORegistryEntry9MetaClass5allocEv
__ZNK15IORegistryEntry9breakLinkEPS_jPK15IORegistryPlane
__ZNK15IORegistryPlane12getMetaClassEv
__ZNK15IORegistryPlane9MetaClass5allocEv
__ZNK15IORegistryPlane9serializeEP11OSSerialize
__ZNK15IOWatchDogTimer12getMetaClassEv
__ZNK15IOWatchDogTimer9MetaClass5allocEv
__ZNK15OSMetaClassBase8metaCastEPK11OSMetaClass
__ZNK15OSMetaClassBase8metaCastEPK8OSString
__ZNK15OSMetaClassBase8metaCastEPK8OSSymbol
__ZNK15OSMetaClassBase8metaCastEPKc
__ZNK15OSMetaClassBase9isEqualToEPKS_
__ZNK15OSMetaClassMeta5allocEv
__ZNK15PMSettingHandle12getMetaClassEv
__ZNK15PMSettingHandle9MetaClass5allocEv
__ZNK15PMSettingObject12getMetaClassEv
__ZNK15PMSettingObject9MetaClass5allocEv
__ZNK15_IOConfigThread12getMetaClassEv
__ZNK15_IOConfigThread9MetaClass5allocEv
__ZNK16IODMAEventSource12getMetaClassEv
__ZNK16IODMAEventSource9MetaClass5allocEv
__ZNK16IOKitDiagnostics12getMetaClassEv
__ZNK16IOKitDiagnostics9MetaClass5allocEv
__ZNK16IOKitDiagnostics9serializeEP11OSSerialize
__ZNK16IOPMRequestQueue12getMetaClassEv
__ZNK16IOPMRequestQueue9MetaClass5allocEv
__ZNK16IOPMinformeeList12getMetaClassEv
__ZNK16IOPMinformeeList9MetaClass5allocEv
__ZNK16IOPlatformDevice11compareNameEP8OSStringPS1_
__ZNK16IOPlatformDevice12getMetaClassEv
__ZNK16IOPlatformDevice9MetaClass5allocEv
__ZNK16IOPlatformExpert12getMetaClassEv
__ZNK16IOPlatformExpert14compareNubNameEPK9IOServiceP8OSStringPS4_
__ZNK16IOPlatformExpert9MetaClass5allocEv
__ZNK16IORangeAllocator12getMetaClassEv
__ZNK16IORangeAllocator9MetaClass5allocEv
__ZNK16IORangeAllocator9serializeEP11OSSerialize
__ZNK17IOBigMemoryCursor12getMetaClassEv
__ZNK17IOBigMemoryCursor9MetaClass5allocEv
__ZNK17IOPolledInterface12getMetaClassEv
__ZNK17IOPolledInterface9MetaClass5allocEv
__ZNK17IOPowerConnection12getMetaClassEv
__ZNK17IOPowerConnection12getReadyFlagEv
__ZNK17IOPowerConnection9MetaClass5allocEv
__ZNK17IOSharedDataQueue12getMetaClassEv
__ZNK17IOSharedDataQueue9MetaClass5allocEv
__ZNK18IODTPlatformExpert12getMetaClassEv
__ZNK18IODTPlatformExpert14compareNubNameEPK9IOServiceP8OSStringPS4_
__ZNK18IODTPlatformExpert9MetaClass5allocEv
__ZNK18IOMemoryDescriptor12getDirectionEv
__ZNK18IOMemoryDescriptor12getMetaClassEv
__ZNK18IOMemoryDescriptor19dmaCommandOperationEjPvj
__ZNK18IOMemoryDescriptor9MetaClass5allocEv
__ZNK18IOMemoryDescriptor9getLengthEv
__ZNK18IORegistryIterator12getMetaClassEv
__ZNK18IORegistryIterator9MetaClass5allocEv
__ZNK18IOTimerEventSource12getMetaClassEv
__ZNK18IOTimerEventSource9MetaClass5allocEv
__ZNK18IOUserNotification12getMetaClassEv
__ZNK18IOUserNotification9MetaClass5allocEv
__ZNK18_IOServiceNotifier12getMetaClassEv
__ZNK18_IOServiceNotifier9MetaClass5allocEv
__ZNK19IOPMCompletionQueue12getMetaClassEv
__ZNK19IOPMCompletionQueue9MetaClass5allocEv
__ZNK19IOPMPowerSourceList12getMetaClassEv
__ZNK19IOPMPowerSourceList9MetaClass5allocEv
__ZNK19IOPMPowerStateQueue12getMetaClassEv
__ZNK19IOPMPowerStateQueue9MetaClass5allocEv
__ZNK19PMAssertionsTracker12getMetaClassEv
__ZNK19PMAssertionsTracker9MetaClass5allocEv
__ZNK20IOLittleMemoryCursor12getMetaClassEv
__ZNK20IOLittleMemoryCursor9MetaClass5allocEv
__ZNK20OSCollectionIterator12getMetaClassEv
__ZNK20OSCollectionIterator9MetaClass5allocEv
__ZNK20RootDomainUserClient12getMetaClassEv
__ZNK20RootDomainUserClient9MetaClass5allocEv
__ZNK21IOInterruptController12getMetaClassEv
__ZNK21IOInterruptController9MetaClass5allocEv
__ZNK21IONaturalMemoryCursor12getMetaClassEv
__ZNK21IONaturalMemoryCursor9MetaClass5allocEv
__ZNK21IOSubMemoryDescriptor12getMetaClassEv
__ZNK21IOSubMemoryDescriptor9MetaClass5allocEv
__ZNK22IOInterruptEventSource11getIntIndexEv
__ZNK22IOInterruptEventSource11getProviderEv
__ZNK22IOInterruptEventSource12getMetaClassEv
__ZNK22IOInterruptEventSource14getAutoDisableEv
__ZNK22IOInterruptEventSource9MetaClass5allocEv
__ZNK22IOPlatformExpertDevice11compareNameEP8OSStringPS1_
__ZNK22IOPlatformExpertDevice11getWorkLoopEv
__ZNK22IOPlatformExpertDevice12getMetaClassEv
__ZNK22IOPlatformExpertDevice9MetaClass5allocEv
__ZNK22_IOOpenServiceIterator12getMetaClassEv
__ZNK22_IOOpenServiceIterator9MetaClass5allocEv
__ZNK23IOMultiMemoryDescriptor12getMetaClassEv
__ZNK23IOMultiMemoryDescriptor9MetaClass5allocEv
__ZNK24IOBufferMemoryDescriptor11getCapacityEv
__ZNK24IOBufferMemoryDescriptor12getMetaClassEv
__ZNK24IOBufferMemoryDescriptor9MetaClass5allocEv
__ZNK24IOCPUInterruptController12getMetaClassEv
__ZNK24IOCPUInterruptController9MetaClass5allocEv
__ZNK25IOGeneralMemoryDescriptor12getMetaClassEv
__ZNK25IOGeneralMemoryDescriptor19dmaCommandOperationEjPvj
__ZNK25IOGeneralMemoryDescriptor9MetaClass5allocEv
__ZNK25IOGeneralMemoryDescriptor9serializeEP11OSSerialize
__ZNK25IOServiceUserNotification12getMetaClassEv
__ZNK25IOServiceUserNotification9MetaClass5allocEv
__ZNK26_IOServiceInterestNotifier12getMetaClassEv
__ZNK26_IOServiceInterestNotifier9MetaClass5allocEv
__ZNK27IOSharedInterruptController12getMetaClassEv
__ZNK27IOSharedInterruptController9MetaClass5allocEv
__ZNK28IOFilterInterruptEventSource12getMetaClassEv
__ZNK28IOFilterInterruptEventSource15getFilterActionEv
__ZNK28IOFilterInterruptEventSource9MetaClass5allocEv
__ZNK29IOInterleavedMemoryDescriptor12getMetaClassEv
__ZNK29IOInterleavedMemoryDescriptor9MetaClass5allocEv
__ZNK32IOServiceMessageUserNotification12getMetaClassEv
__ZNK32IOServiceMessageUserNotification9MetaClass5allocEv
__ZNK5IOCPU11getPropertyEPK8OSSymbol
__ZNK5IOCPU12getMetaClassEv
__ZNK5IOCPU19serializePropertiesEP11OSSerialize
__ZNK5IOCPU9MetaClass5allocEv
__ZNK5OSSet11getCapacityEv
__ZNK5OSSet12getAnyObjectEv
__ZNK5OSSet12getMetaClassEv
__ZNK5OSSet12initIteratorEPv
__ZNK5OSSet12iteratorSizeEv
__ZNK5OSSet14containsObjectEPK15OSMetaClassBase
__ZNK5OSSet20getCapacityIncrementEv
__ZNK5OSSet24getNextObjectForIteratorEPvPP8OSObject
__ZNK5OSSet6memberEPK15OSMetaClassBase
__ZNK5OSSet8getCountEv
__ZNK5OSSet9MetaClass5allocEv
__ZNK5OSSet9isEqualToEPK15OSMetaClassBase
__ZNK5OSSet9isEqualToEPKS_
__ZNK5OSSet9serializeEP11OSSerialize
__ZNK6OSData11getCapacityEv
__ZNK6OSData12getMetaClassEv
__ZNK6OSData14getBytesNoCopyEjj
__ZNK6OSData14getBytesNoCopyEv
__ZNK6OSData20getCapacityIncrementEv
__ZNK6OSData9MetaClass5allocEv
__ZNK6OSData9getLengthEv
__ZNK6OSData9isEqualToEPK15OSMetaClassBase
__ZNK6OSData9isEqualToEPK8OSString
__ZNK6OSData9isEqualToEPKS_
__ZNK6OSData9isEqualToEPKvj
__ZNK6OSData9serializeEP11OSSerialize
__ZNK6OSKext12getMetaClassEv
__ZNK6OSKext9MetaClass5allocEv
__ZNK7OSArray11getCapacityEv
__ZNK7OSArray12getMetaClassEv
__ZNK7OSArray12initIteratorEPv
__ZNK7OSArray12iteratorSizeEv
__ZNK7OSArray13getLastObjectEv
__ZNK7OSArray20getCapacityIncrementEv
__ZNK7OSArray20getNextIndexOfObjectEPK15OSMetaClassBasej
__ZNK7OSArray24getNextObjectForIteratorEPvPP8OSObject
__ZNK7OSArray8getCountEv
__ZNK7OSArray9MetaClass5allocEv
__ZNK7OSArray9getObjectEj
__ZNK7OSArray9isEqualToEPK15OSMetaClassBase
__ZNK7OSArray9isEqualToEPKS_
__ZNK7OSArray9serializeEP11OSSerialize
__ZNK8IOMapper12getMetaClassEv
__ZNK8IOMapper13getBypassMaskEPy
__ZNK8IOMapper9MetaClass5allocEv
__ZNK8IOSyncer12getMetaClassEv
__ZNK8IOSyncer9MetaClass5allocEv
__ZNK8OSNumber12getMetaClassEv
__ZNK8OSNumber12numberOfBitsEv
__ZNK8OSNumber13numberOfBytesEv
__ZNK8OSNumber17unsigned8BitValueEv
__ZNK8OSNumber18unsigned16BitValueEv
__ZNK8OSNumber18unsigned32BitValueEv
__ZNK8OSNumber18unsigned64BitValueEv
__ZNK8OSNumber9MetaClass5allocEv
__ZNK8OSNumber9isEqualToEPK15OSMetaClassBase
__ZNK8OSNumber9isEqualToEPKS_
__ZNK8OSNumber9serializeEP11OSSerialize
__ZNK8OSObject12getMetaClassEv
__ZNK8OSObject12taggedRetainEPKv
__ZNK8OSObject13taggedReleaseEPKv
__ZNK8OSObject13taggedReleaseEPKvi
__ZNK8OSObject14getRetainCountEv
__ZNK8OSObject6retainEv
__ZNK8OSObject7releaseEi
__ZNK8OSObject7releaseEv
__ZNK8OSObject9MetaClass5allocEv
__ZNK8OSObject9serializeEP11OSSerialize
__ZNK8OSString12getMetaClassEv
__ZNK8OSString16getCStringNoCopyEv
__ZNK8OSString7getCharEj
__ZNK8OSString9MetaClass5allocEv
__ZNK8OSString9getLengthEv
__ZNK8OSString9isEqualToEPK15OSMetaClassBase
__ZNK8OSString9isEqualToEPK6OSData
__ZNK8OSString9isEqualToEPKS_
__ZNK8OSString9isEqualToEPKc
__ZNK8OSString9serializeEP11OSSerialize
__ZNK8OSSymbol12getMetaClassEv
__ZNK8OSSymbol13taggedReleaseEPKv
__ZNK8OSSymbol13taggedReleaseEPKvi
__ZNK8OSSymbol9MetaClass5allocEv
__ZNK8OSSymbol9isEqualToEPK15OSMetaClassBase
__ZNK8OSSymbol9isEqualToEPKS_
__ZNK8OSSymbol9isEqualToEPKc
__ZNK9IOCommand12getMetaClassEv
__ZNK9IOCommand9MetaClass5allocEv
__ZNK9IODTNVRAM11getPropertyEPK8OSSymbol
__ZNK9IODTNVRAM11getPropertyEPKc
__ZNK9IODTNVRAM12getMetaClassEv
__ZNK9IODTNVRAM17getOFVariablePermEPK8OSSymbol
__ZNK9IODTNVRAM17getOFVariableTypeEPK8OSSymbol
__ZNK9IODTNVRAM19serializePropertiesEP11OSSerialize
__ZNK9IODTNVRAM9MetaClass5allocEv
__ZNK9IOService10isInactiveEv
__ZNK9IOService11getProviderEv
__ZNK9IOService11getWorkLoopEv
__ZNK9IOService12getMetaClassEv
__ZNK9IOService12handleIsOpenEPKS_
__ZNK9IOService17getClientIteratorEv
__ZNK9IOService19getProviderIteratorEv
__ZNK9IOService19serializePropertiesEP11OSSerialize
__ZNK9IOService21getOpenClientIteratorEv
__ZNK9IOService23getOpenProviderIteratorEv
__ZNK9IOService6isOpenEPKS_
__ZNK9IOService8getStateEv
__ZNK9IOService9MetaClass5allocEv
__ZNK9IOService9getClientEv
__ZNK9OSBoolean12getMetaClassEv
__ZNK9OSBoolean12taggedRetainEPKv
__ZNK9OSBoolean13taggedReleaseEPKvi
__ZNK9OSBoolean6isTrueEv
__ZNK9OSBoolean7isFalseEv
__ZNK9OSBoolean8getValueEv
__ZNK9OSBoolean9MetaClass5allocEv
__ZNK9OSBoolean9isEqualToEPK15OSMetaClassBase
__ZNK9OSBoolean9isEqualToEPKS_
__ZNK9OSBoolean9serializeEP11OSSerialize
__ZSt20__throw_length_errorPKc
__ZTV10IOMachPort
__ZTV10IONotifier
__ZTV10IOWorkLoop
__ZTV10OSIterator
__ZTV11IOCatalogue
__ZTV11IODataQueue
__ZTV11IOMemoryMap
__ZTV11IOPMRequest
__ZTV11IOResources
__ZTV11IOServicePM
__ZTV11OSMetaClass
__ZTV11OSSerialize
__ZTV12IODMACommand
__ZTV12IOPMTimeline
__ZTV12IOPMinformee
__ZTV12IORootParent
__ZTV12IOUserClient
__ZTV12OSCollection
__ZTV12OSDictionary
__ZTV12OSOrderedSet
__ZTV12OSSerializer
__ZTV12OSSymbolPool
__ZTV12PMHaltWorker
__ZTV13IOCommandGate
__ZTV13IOCommandPool
__ZTV13IOEventSource
__ZTV13IOPMWorkQueue
__ZTV13PMTraceWorker
__ZTV13_IOServiceJob
__ZTV14IOMemoryCursor
__ZTV14IOPMrootDomain
__ZTV14PMEventDetails
__ZTV15IOConditionLock
__ZTV15IODMAController
__ZTV15IOPMPowerSource
__ZTV15IOPanicPlatform
__ZTV15IORegistryEntry
__ZTV15IORegistryPlane
__ZTV15IOWatchDogTimer
__ZTV15OSMetaClassBase
__ZTV15OSMetaClassMeta
__ZTV15PMSettingHandle
__ZTV15PMSettingObject
__ZTV15_IOConfigThread
__ZTV16IODMAEventSource
__ZTV16IOKitDiagnostics
__ZTV16IOPMRequestQueue
__ZTV16IOPMinformeeList
__ZTV16IOPlatformDevice
__ZTV16IOPlatformExpert
__ZTV16IORangeAllocator
__ZTV17IOBigMemoryCursor
__ZTV17IOPolledInterface
__ZTV17IOPowerConnection
__ZTV17IOSharedDataQueue
__ZTV18IODTPlatformExpert
__ZTV18IOMemoryDescriptor
__ZTV18IORegistryIterator
__ZTV18IOTimerEventSource
__ZTV18IOUserNotification
__ZTV18_IOServiceNotifier
__ZTV19IOPMCompletionQueue
__ZTV19IOPMPowerSourceList
__ZTV19IOPMPowerStateQueue
__ZTV19PMAssertionsTracker
__ZTV20IOLittleMemoryCursor
__ZTV20OSCollectionIterator
__ZTV20RootDomainUserClient
__ZTV21IOInterruptController
__ZTV21IONaturalMemoryCursor
__ZTV21IOSubMemoryDescriptor
__ZTV22IOInterruptEventSource
__ZTV22IOPlatformExpertDevice
__ZTV22_IOOpenServiceIterator
__ZTV23IOMultiMemoryDescriptor
__ZTV24IOBufferMemoryDescriptor
__ZTV24IOCPUInterruptController
__ZTV25IOGeneralMemoryDescriptor
__ZTV25IOServiceUserNotification
__ZTV26_IOServiceInterestNotifier
__ZTV27IOSharedInterruptController
__ZTV28IOFilterInterruptEventSource
__ZTV29IOInterleavedMemoryDescriptor
__ZTV32IOServiceMessageUserNotification
__ZTV5IOCPU
__ZTV5OSSet
__ZTV6OSData
__ZTV6OSKext
__ZTV7OSArray
__ZTV8IOMapper
__ZTV8IOSyncer
__ZTV8OSNumber
__ZTV8OSObject
__ZTV8OSString
__ZTV8OSSymbol
__ZTV9IOCommand
__ZTV9IODTNVRAM
__ZTV9IOService
__ZTV9OSBoolean
__ZTVN10IOMachPort9MetaClassE
__ZTVN10IONotifier9MetaClassE
__ZTVN10IOWorkLoop9MetaClassE
__ZTVN10OSIterator9MetaClassE
__ZTVN11IOCatalogue9MetaClassE
__ZTVN11IODataQueue9MetaClassE
__ZTVN11IOMemoryMap9MetaClassE
__ZTVN11IOPMRequest9MetaClassE
__ZTVN11IOResources9MetaClassE
__ZTVN11IOServicePM9MetaClassE
__ZTVN11OSSerialize9MetaClassE
__ZTVN12IODMACommand9MetaClassE
__ZTVN12IOPMTimeline9MetaClassE
__ZTVN12IOPMinformee9MetaClassE
__ZTVN12IORootParent9MetaClassE
__ZTVN12IOUserClient9MetaClassE
__ZTVN12OSCollection9MetaClassE
__ZTVN12OSDictionary9MetaClassE
__ZTVN12OSOrderedSet9MetaClassE
__ZTVN12OSSerializer9MetaClassE
__ZTVN12PMHaltWorker9MetaClassE
__ZTVN13IOCommandGate9MetaClassE
__ZTVN13IOCommandPool9MetaClassE
__ZTVN13IOEventSource9MetaClassE
__ZTVN13IOPMWorkQueue9MetaClassE
__ZTVN13PMTraceWorker9MetaClassE
__ZTVN13_IOServiceJob9MetaClassE
__ZTVN14IOMemoryCursor9MetaClassE
__ZTVN14IOPMrootDomain9MetaClassE
__ZTVN14PMEventDetails9MetaClassE
__ZTVN15IOConditionLock9MetaClassE
__ZTVN15IODMAController9MetaClassE
__ZTVN15IOPMPowerSource9MetaClassE
__ZTVN15IOPanicPlatform9MetaClassE
__ZTVN15IORegistryEntry9MetaClassE
__ZTVN15IORegistryPlane9MetaClassE
__ZTVN15IOWatchDogTimer9MetaClassE
__ZTVN15PMSettingHandle9MetaClassE
__ZTVN15PMSettingObject9MetaClassE
__ZTVN15_IOConfigThread9MetaClassE
__ZTVN16IODMAEventSource9MetaClassE
__ZTVN16IOKitDiagnostics9MetaClassE
__ZTVN16IOPMRequestQueue9MetaClassE
__ZTVN16IOPMinformeeList9MetaClassE
__ZTVN16IOPlatformDevice9MetaClassE
__ZTVN16IOPlatformExpert9MetaClassE
__ZTVN16IORangeAllocator9MetaClassE
__ZTVN17IOBigMemoryCursor9MetaClassE
__ZTVN17IOPolledInterface9MetaClassE
__ZTVN17IOPowerConnection9MetaClassE
__ZTVN17IOSharedDataQueue9MetaClassE
__ZTVN18IODTPlatformExpert9MetaClassE
__ZTVN18IOMemoryDescriptor9MetaClassE
__ZTVN18IORegistryIterator9MetaClassE
__ZTVN18IOTimerEventSource9MetaClassE
__ZTVN18IOUserNotification9MetaClassE
__ZTVN18_IOServiceNotifier9MetaClassE
__ZTVN19IOPMCompletionQueue9MetaClassE
__ZTVN19IOPMPowerSourceList9MetaClassE
__ZTVN19IOPMPowerStateQueue9MetaClassE
__ZTVN19PMAssertionsTracker9MetaClassE
__ZTVN20IOLittleMemoryCursor9MetaClassE
__ZTVN20OSCollectionIterator9MetaClassE
__ZTVN20RootDomainUserClient9MetaClassE
__ZTVN21IOInterruptController9MetaClassE
__ZTVN21IONaturalMemoryCursor9MetaClassE
__ZTVN21IOSubMemoryDescriptor9MetaClassE
__ZTVN22IOInterruptEventSource9MetaClassE
__ZTVN22IOPlatformExpertDevice9MetaClassE
__ZTVN22_IOOpenServiceIterator9MetaClassE
__ZTVN23IOMultiMemoryDescriptor9MetaClassE
__ZTVN24IOBufferMemoryDescriptor9MetaClassE
__ZTVN24IOCPUInterruptController9MetaClassE
__ZTVN25IOGeneralMemoryDescriptor9MetaClassE
__ZTVN25IOServiceUserNotification9MetaClassE
__ZTVN26_IOServiceInterestNotifier9MetaClassE
__ZTVN27IOSharedInterruptController9MetaClassE
__ZTVN28IOFilterInterruptEventSource9MetaClassE
__ZTVN29IOInterleavedMemoryDescriptor9MetaClassE
__ZTVN32IOServiceMessageUserNotification9MetaClassE
__ZTVN5IOCPU9MetaClassE
__ZTVN5OSSet9MetaClassE
__ZTVN6OSData9MetaClassE
__ZTVN6OSKext9MetaClassE
__ZTVN7OSArray9MetaClassE
__ZTVN8IOMapper9MetaClassE
__ZTVN8IOSyncer9MetaClassE
__ZTVN8OSNumber9MetaClassE
__ZTVN8OSObject9MetaClassE
__ZTVN8OSString9MetaClassE
__ZTVN8OSSymbol9MetaClassE
__ZTVN9IOCommand9MetaClassE
__ZTVN9IODTNVRAM9MetaClassE
__ZTVN9IOService9MetaClassE
__ZTVN9OSBoolean9MetaClassE
__ZdaPv
__ZdlPv
__Znam
__Znwm
___bzero
___cxa_pure_virtual
___disable_threadsignal
___doprnt
___mac_execve
___mac_get_fd
___mac_get_file
___mac_get_lcid
___mac_get_lctx
___mac_get_link
___mac_get_mount
___mac_get_pid
___mac_get_proc
___mac_getfsstat
___mac_mount
___mac_set_fd
___mac_set_file
___mac_set_lctx
___mac_set_link
___mac_set_proc
___mac_syscall
___old_semwait_signal
___old_semwait_signal_nocancel
___packed
___posix_sem_syscall_return
___pthread_canceled
___pthread_chdir
___pthread_fchdir
___pthread_kill
___pthread_markcancel
___pthread_sigmask
___pthread_testcancel
___semwait_signal
___semwait_signal_nocancel
___set___sysctl_set_sym_sysctl__audit
___set___sysctl_set_sym_sysctl__audit_session
___set___sysctl_set_sym_sysctl__audit_session_member_clear_sflags_mask
___set___sysctl_set_sym_sysctl__audit_session_member_set_sflags_mask
___set___sysctl_set_sym_sysctl__audit_session_superuser_clear_sflags_mask
___set___sysctl_set_sym_sysctl__audit_session_superuser_set_sflags_mask
___set___sysctl_set_sym_sysctl__debug
___set___sysctl_set_sym_sysctl__debug_bpf_bufsize
___set___sysctl_set_sym_sysctl__debug_bpf_maxbufsize
___set___sysctl_set_sym_sysctl__debug_bpf_maxdevices
___set___sysctl_set_sym_sysctl__debug_darkwake
___set___sysctl_set_sym_sysctl__debug_iokit
___set___sysctl_set_sym_sysctl__debug_iokit_statistics
___set___sysctl_set_sym_sysctl__debug_iokit_statistics_general
___set___sysctl_set_sym_sysctl__debug_iokit_statistics_userclient
___set___sysctl_set_sym_sysctl__debug_iokit_statistics_workloop
___set___sysctl_set_sym_sysctl__debug_iotrace
___set___sysctl_set_sym_sysctl__debug_kextlog
___set___sysctl_set_sym_sysctl__debug_lowpri_throttle_enabled
___set___sysctl_set_sym_sysctl__debug_lowpri_throttle_max_iosize
___set___sysctl_set_sym_sysctl__debug_lowpri_throttle_tier1_io_period_msecs
___set___sysctl_set_sym_sysctl__debug_lowpri_throttle_tier1_io_period_ssd_msecs
___set___sysctl_set_sym_sysctl__debug_lowpri_throttle_tier1_window_msecs
___set___sysctl_set_sym_sysctl__debug_lowpri_throttle_tier2_io_period_msecs
___set___sysctl_set_sym_sysctl__debug_lowpri_throttle_tier2_io_period_ssd_msecs
___set___sysctl_set_sym_sysctl__debug_lowpri_throttle_tier2_window_msecs
___set___sysctl_set_sym_sysctl__debug_lowpri_throttle_tier3_io_period_msecs
___set___sysctl_set_sym_sysctl__debug_lowpri_throttle_tier3_io_period_ssd_msecs
___set___sysctl_set_sym_sysctl__debug_lowpri_throttle_tier3_window_msecs
___set___sysctl_set_sym_sysctl__debug_toggle_address_reuse
___set___sysctl_set_sym_sysctl__hw
___set___sysctl_set_sym_sysctl__hw_activecpu
___set___sysctl_set_sym_sysctl__hw_busfrequency
___set___sysctl_set_sym_sysctl__hw_busfrequency_compat
___set___sysctl_set_sym_sysctl__hw_busfrequency_max
___set___sysctl_set_sym_sysctl__hw_busfrequency_min
___set___sysctl_set_sym_sysctl__hw_byteorder
___set___sysctl_set_sym_sysctl__hw_cacheconfig
___set___sysctl_set_sym_sysctl__hw_cachelinesize
___set___sysctl_set_sym_sysctl__hw_cachelinesize_compat
___set___sysctl_set_sym_sysctl__hw_cachesize
___set___sysctl_set_sym_sysctl__hw_cpu64bit_capable
___set___sysctl_set_sym_sysctl__hw_cpufamily
___set___sysctl_set_sym_sysctl__hw_cpufrequency
___set___sysctl_set_sym_sysctl__hw_cpufrequency_compat
___set___sysctl_set_sym_sysctl__hw_cpufrequency_max
___set___sysctl_set_sym_sysctl__hw_cpufrequency_min
___set___sysctl_set_sym_sysctl__hw_cpusubtype
___set___sysctl_set_sym_sysctl__hw_cputhreadtype
___set___sysctl_set_sym_sysctl__hw_cputype
___set___sysctl_set_sym_sysctl__hw_epoch
___set___sysctl_set_sym_sysctl__hw_l1dcachesize
___set___sysctl_set_sym_sysctl__hw_l1dcachesize_compat
___set___sysctl_set_sym_sysctl__hw_l1icachesize
___set___sysctl_set_sym_sysctl__hw_l1icachesize_compat
___set___sysctl_set_sym_sysctl__hw_l2cachesize
___set___sysctl_set_sym_sysctl__hw_l2cachesize_compat
___set___sysctl_set_sym_sysctl__hw_l2settings
___set___sysctl_set_sym_sysctl__hw_l3cachesize
___set___sysctl_set_sym_sysctl__hw_l3cachesize_compat
___set___sysctl_set_sym_sysctl__hw_l3settings
___set___sysctl_set_sym_sysctl__hw_logicalcpu
___set___sysctl_set_sym_sysctl__hw_logicalcpu_max
___set___sysctl_set_sym_sysctl__hw_machine
___set___sysctl_set_sym_sysctl__hw_memsize
___set___sysctl_set_sym_sysctl__hw_model
___set___sysctl_set_sym_sysctl__hw_ncpu
___set___sysctl_set_sym_sysctl__hw_optional
___set___sysctl_set_sym_sysctl__hw_optional_aes
___set___sysctl_set_sym_sysctl__hw_optional_avx1_0
___set___sysctl_set_sym_sysctl__hw_optional_avx2_0
___set___sysctl_set_sym_sysctl__hw_optional_bmi1
___set___sysctl_set_sym_sysctl__hw_optional_bmi2
___set___sysctl_set_sym_sysctl__hw_optional_enfstrg
___set___sysctl_set_sym_sysctl__hw_optional_f16c
___set___sysctl_set_sym_sysctl__hw_optional_floatingpoint
___set___sysctl_set_sym_sysctl__hw_optional_fma
___set___sysctl_set_sym_sysctl__hw_optional_hle
___set___sysctl_set_sym_sysctl__hw_optional_mmx
___set___sysctl_set_sym_sysctl__hw_optional_rdrand
___set___sysctl_set_sym_sysctl__hw_optional_rtm
___set___sysctl_set_sym_sysctl__hw_optional_sse
___set___sysctl_set_sym_sysctl__hw_optional_sse2
___set___sysctl_set_sym_sysctl__hw_optional_sse3
___set___sysctl_set_sym_sysctl__hw_optional_sse4_1
___set___sysctl_set_sym_sysctl__hw_optional_sse4_2
___set___sysctl_set_sym_sysctl__hw_optional_supplementalsse3
___set___sysctl_set_sym_sysctl__hw_optional_x86_64
___set___sysctl_set_sym_sysctl__hw_packages
___set___sysctl_set_sym_sysctl__hw_pagesize
___set___sysctl_set_sym_sysctl__hw_pagesize_compat
___set___sysctl_set_sym_sysctl__hw_physicalcpu
___set___sysctl_set_sym_sysctl__hw_physicalcpu_max
___set___sysctl_set_sym_sysctl__hw_physmem
___set___sysctl_set_sym_sysctl__hw_tbfrequency
___set___sysctl_set_sym_sysctl__hw_tbfrequency_compat
___set___sysctl_set_sym_sysctl__hw_usermem
___set___sysctl_set_sym_sysctl__hw_vectorunit
___set___sysctl_set_sym_sysctl__kern
___set___sysctl_set_sym_sysctl__kern_affinity
___set___sysctl_set_sym_sysctl__kern_affinity_sets_enabled
___set___sysctl_set_sym_sysctl__kern_affinity_sets_mapping
___set___sysctl_set_sym_sysctl__kern_aiomax
___set___sysctl_set_sym_sysctl__kern_aioprocmax
___set___sysctl_set_sym_sysctl__kern_aiothreads
___set___sysctl_set_sym_sysctl__kern_argmax
___set___sysctl_set_sym_sysctl__kern_bootargs
___set___sysctl_set_sym_sysctl__kern_bootsessionuuid
___set___sysctl_set_sym_sysctl__kern_bootsignature
___set___sysctl_set_sym_sysctl__kern_boottime
___set___sysctl_set_sym_sysctl__kern_check_openevt
___set___sysctl_set_sym_sysctl__kern_clockrate
___set___sysctl_set_sym_sysctl__kern_coredump
___set___sysctl_set_sym_sysctl__kern_corefile
___set___sysctl_set_sym_sysctl__kern_delayterm
___set___sysctl_set_sym_sysctl__kern_ds_supgroups_supported
___set___sysctl_set_sym_sysctl__kern_flush_cache_on_write
___set___sysctl_set_sym_sysctl__kern_hibernatefile
___set___sysctl_set_sym_sysctl__kern_hibernategraphicsready
___set___sysctl_set_sym_sysctl__kern_hibernatehidready
___set___sysctl_set_sym_sysctl__kern_hibernatelockscreenready
___set___sysctl_set_sym_sysctl__kern_hibernatemode
___set___sysctl_set_sym_sysctl__kern_hibernatestatistics
___set___sysctl_set_sym_sysctl__kern_hibernatewakenotification
___set___sysctl_set_sym_sysctl__kern_hostid
___set___sysctl_set_sym_sysctl__kern_hostname
___set___sysctl_set_sym_sysctl__kern_ignore_is_ssd
___set___sysctl_set_sym_sysctl__kern_imgsrcdev
___set___sysctl_set_sym_sysctl__kern_imgsrcinfo
___set___sysctl_set_sym_sysctl__kern_interrupt_timer_coalescing_enabled
___set___sysctl_set_sym_sysctl__kern_ipc
___set___sysctl_set_sym_sysctl__kern_ipc_io_policy
___set___sysctl_set_sym_sysctl__kern_ipc_io_policy_log
___set___sysctl_set_sym_sysctl__kern_ipc_io_policy_throttled
___set___sysctl_set_sym_sysctl__kern_ipc_io_policy_uuid
___set___sysctl_set_sym_sysctl__kern_ipc_maxsockbuf
___set___sysctl_set_sym_sysctl__kern_ipc_maxsockets
___set___sysctl_set_sym_sysctl__kern_ipc_mb_normalized
___set___sysctl_set_sym_sysctl__kern_ipc_mb_stat
___set___sysctl_set_sym_sysctl__kern_ipc_mb_watchdog
___set___sysctl_set_sym_sysctl__kern_ipc_mbstat
___set___sysctl_set_sym_sysctl__kern_ipc_mleak_sample_factor
___set___sysctl_set_sym_sysctl__kern_ipc_mleak_table
___set___sysctl_set_sym_sysctl__kern_ipc_mleak_top_trace
___set___sysctl_set_sym_sysctl__kern_ipc_njcl
___set___sysctl_set_sym_sysctl__kern_ipc_njclbytes
___set___sysctl_set_sym_sysctl__kern_ipc_nmbclusters
___set___sysctl_set_sym_sysctl__kern_ipc_portbt
___set___sysctl_set_sym_sysctl__kern_ipc_sockbuf_waste_factor
___set___sysctl_set_sym_sysctl__kern_ipc_sodefunctlog
___set___sysctl_set_sym_sysctl__kern_ipc_somaxconn
___set___sysctl_set_sym_sysctl__kern_ipc_soqlencomp
___set___sysctl_set_sym_sysctl__kern_ipc_soqlimitcompat
___set___sysctl_set_sym_sysctl__kern_ipc_sorecvmincopy
___set___sysctl_set_sym_sysctl__kern_ipc_sorestrictrecv
___set___sysctl_set_sym_sysctl__kern_ipc_sosendjcl
___set___sysctl_set_sym_sysctl__kern_ipc_sosendjcl_ignore_capab
___set___sysctl_set_sym_sysctl__kern_ipc_sosendminchain
___set___sysctl_set_sym_sysctl__kern_ipc_sotcdb
___set___sysctl_set_sym_sysctl__kern_ipc_sothrottlelog
___set___sysctl_set_sym_sysctl__kern_jnl_trim_flush
___set___sysctl_set_sym_sysctl__kern_job_control
___set___sysctl_set_sym_sysctl__kern_kdebug
___set___sysctl_set_sym_sysctl__kern_kdebug_thread_block
___set___sysctl_set_sym_sysctl__kern_lctx
___set___sysctl_set_sym_sysctl__kern_lctx_all
___set___sysctl_set_sym_sysctl__kern_lctx_count
___set___sysctl_set_sym_sysctl__kern_lctx_last
___set___sysctl_set_sym_sysctl__kern_lctx_lcid
___set___sysctl_set_sym_sysctl__kern_lctx_max
___set___sysctl_set_sym_sysctl__kern_maxfiles
___set___sysctl_set_sym_sysctl__kern_maxfilesperproc
___set___sysctl_set_sym_sysctl__kern_maxnbuf
___set___sysctl_set_sym_sysctl__kern_maxproc
___set___sysctl_set_sym_sysctl__kern_maxprocperuid
___set___sysctl_set_sym_sysctl__kern_maxvnodes
___set___sysctl_set_sym_sysctl__kern_memorypressure_manual_trigger
___set___sysctl_set_sym_sysctl__kern_memorystatus_purge_on_critical
___set___sysctl_set_sym_sysctl__kern_memorystatus_purge_on_urgent
___set___sysctl_set_sym_sysctl__kern_memorystatus_purge_on_warning
___set___sysctl_set_sym_sysctl__kern_memorystatus_vm_pressure_level
___set___sysctl_set_sym_sysctl__kern_msgbuf
___set___sysctl_set_sym_sysctl__kern_namecache_disabled
___set___sysctl_set_sym_sysctl__kern_nbuf
___set___sysctl_set_sym_sysctl__kern_netboot
___set___sysctl_set_sym_sysctl__kern_ngroups
___set___sysctl_set_sym_sysctl__kern_nisdomainname
___set___sysctl_set_sym_sysctl__kern_num_files
___set___sysctl_set_sym_sysctl__kern_num_tasks
___set___sysctl_set_sym_sysctl__kern_num_taskthreads
___set___sysctl_set_sym_sysctl__kern_num_threads
___set___sysctl_set_sym_sysctl__kern_num_vnodes
___set___sysctl_set_sym_sysctl__kern_nx
___set___sysctl_set_sym_sysctl__kern_osrelease
___set___sysctl_set_sym_sysctl__kern_osrevision
___set___sysctl_set_sym_sysctl__kern_ostype
___set___sysctl_set_sym_sysctl__kern_osversion
___set___sysctl_set_sym_sysctl__kern_posix
___set___sysctl_set_sym_sysctl__kern_posix1version
___set___sysctl_set_sym_sysctl__kern_posix_sem
___set___sysctl_set_sym_sysctl__kern_posix_sem_max
___set___sysctl_set_sym_sysctl__kern_preheat_pages_max
___set___sysctl_set_sym_sysctl__kern_preheat_pages_min
___set___sysctl_set_sym_sysctl__kern_proc
___set___sysctl_set_sym_sysctl__kern_proc_all
___set___sysctl_set_sym_sysctl__kern_proc_lcid
___set___sysctl_set_sym_sysctl__kern_proc_pgrp
___set___sysctl_set_sym_sysctl__kern_proc_pid
___set___sysctl_set_sym_sysctl__kern_proc_ruid
___set___sysctl_set_sym_sysctl__kern_proc_tty
___set___sysctl_set_sym_sysctl__kern_proc_uid
___set___sysctl_set_sym_sysctl__kern_procargs
___set___sysctl_set_sym_sysctl__kern_procargs2
___set___sysctl_set_sym_sysctl__kern_procname
___set___sysctl_set_sym_sysctl__kern_progressmeter
___set___sysctl_set_sym_sysctl__kern_progressmeterenable
___set___sysctl_set_sym_sysctl__kern_rage_vnode
___set___sysctl_set_sym_sysctl__kern_safeboot
___set___sysctl_set_sym_sysctl__kern_saved_ids
___set___sysctl_set_sym_sysctl__kern_sched
___set___sysctl_set_sym_sysctl__kern_sched_stats
___set___sysctl_set_sym_sysctl__kern_sched_stats_enable
___set___sysctl_set_sym_sysctl__kern_secure_kernel
___set___sysctl_set_sym_sysctl__kern_securelevel
___set___sysctl_set_sym_sysctl__kern_setthread_cpupercent
___set___sysctl_set_sym_sysctl__kern_shreg_private
___set___sysctl_set_sym_sysctl__kern_singleuser
___set___sysctl_set_sym_sysctl__kern_sleeptime
___set___sysctl_set_sym_sysctl__kern_slide
___set___sysctl_set_sym_sysctl__kern_speculative_prefetch_max
___set___sysctl_set_sym_sysctl__kern_speculative_prefetch_max_iosize
___set___sysctl_set_sym_sysctl__kern_speculative_reads_disabled
___set___sysctl_set_sym_sysctl__kern_stack_depth_max
___set___sysctl_set_sym_sysctl__kern_stack_size
___set___sysctl_set_sym_sysctl__kern_sugid_coredump
___set___sysctl_set_sym_sysctl__kern_sugid_scripts
___set___sysctl_set_sym_sysctl__kern_symfile
___set___sysctl_set_sym_sysctl__kern_sysv
___set___sysctl_set_sym_sysctl__kern_sysv_ipcs
___set___sysctl_set_sym_sysctl__kern_sysv_ipcs_msg
___set___sysctl_set_sym_sysctl__kern_sysv_ipcs_sem
___set___sysctl_set_sym_sysctl__kern_sysv_ipcs_shm
___set___sysctl_set_sym_sysctl__kern_sysv_semmni
___set___sysctl_set_sym_sysctl__kern_sysv_semmns
___set___sysctl_set_sym_sysctl__kern_sysv_semmnu
___set___sysctl_set_sym_sysctl__kern_sysv_semmsl
___set___sysctl_set_sym_sysctl__kern_sysv_semume
___set___sysctl_set_sym_sysctl__kern_sysv_shmall
___set___sysctl_set_sym_sysctl__kern_sysv_shmmax
___set___sysctl_set_sym_sysctl__kern_sysv_shmmin
___set___sysctl_set_sym_sysctl__kern_sysv_shmmni
___set___sysctl_set_sym_sysctl__kern_sysv_shmseg
___set___sysctl_set_sym_sysctl__kern_tfp
___set___sysctl_set_sym_sysctl__kern_tfp_policy
___set___sysctl_set_sym_sysctl__kern_threadname
___set___sysctl_set_sym_sysctl__kern_timer
___set___sysctl_set_sym_sysctl__kern_timer_coalesce_bg_ns_max
___set___sysctl_set_sym_sysctl__kern_timer_coalesce_bg_scale
___set___sysctl_set_sym_sysctl__kern_timer_coalesce_fp_ns_max
___set___sysctl_set_sym_sysctl__kern_timer_coalesce_fp_scale
___set___sysctl_set_sym_sysctl__kern_timer_coalesce_idle_entry_hard_deadline_max
___set___sysctl_set_sym_sysctl__kern_timer_coalesce_kt_ns_max
___set___sysctl_set_sym_sysctl__kern_timer_coalesce_kt_scale
___set___sysctl_set_sym_sysctl__kern_timer_coalesce_tier0_ns_max
___set___sysctl_set_sym_sysctl__kern_timer_coalesce_tier0_scale
___set___sysctl_set_sym_sysctl__kern_timer_coalesce_tier1_ns_max
___set___sysctl_set_sym_sysctl__kern_timer_coalesce_tier1_scale
___set___sysctl_set_sym_sysctl__kern_timer_coalesce_tier2_ns_max
___set___sysctl_set_sym_sysctl__kern_timer_coalesce_tier2_scale
___set___sysctl_set_sym_sysctl__kern_timer_coalesce_tier3_ns_max
___set___sysctl_set_sym_sysctl__kern_timer_coalesce_tier3_scale
___set___sysctl_set_sym_sysctl__kern_timer_coalesce_tier4_ns_max
___set___sysctl_set_sym_sysctl__kern_timer_coalesce_tier4_scale
___set___sysctl_set_sym_sysctl__kern_timer_coalesce_tier5_ns_max
___set___sysctl_set_sym_sysctl__kern_timer_coalesce_tier5_scale
___set___sysctl_set_sym_sysctl__kern_timer_coalesce_ts_ns_max
___set___sysctl_set_sym_sysctl__kern_timer_coalesce_ts_scale
___set___sysctl_set_sym_sysctl__kern_timer_coalescing_enabled
___set___sysctl_set_sym_sysctl__kern_timer_deadline_tracking_bin_1
___set___sysctl_set_sym_sysctl__kern_timer_deadline_tracking_bin_2
___set___sysctl_set_sym_sysctl__kern_timer_longterm
___set___sysctl_set_sym_sysctl__kern_timer_longterm_qlen
___set___sysctl_set_sym_sysctl__kern_timer_longterm_threshold
___set___sysctl_set_sym_sysctl__kern_translate
___set___sysctl_set_sym_sysctl__kern_tty
___set___sysctl_set_sym_sysctl__kern_tty_ptmx_max
___set___sysctl_set_sym_sysctl__kern_usrstack
___set___sysctl_set_sym_sysctl__kern_usrstack64
___set___sysctl_set_sym_sysctl__kern_uuid
___set___sysctl_set_sym_sysctl__kern_version
___set___sysctl_set_sym_sysctl__kern_vm_max_batch
___set___sysctl_set_sym_sysctl__kern_vm_max_delayed_work_limit
___set___sysctl_set_sym_sysctl__kern_vm_page_free_min
___set___sysctl_set_sym_sysctl__kern_vm_page_free_reserved
___set___sysctl_set_sym_sysctl__kern_vm_page_free_target
___set___sysctl_set_sym_sysctl__kern_vm_page_speculative_percentage
___set___sysctl_set_sym_sysctl__kern_vm_page_speculative_q_age_ms
___set___sysctl_set_sym_sysctl__kern_vnode
___set___sysctl_set_sym_sysctl__kern_waketime
___set___sysctl_set_sym_sysctl__kern_willshutdown
___set___sysctl_set_sym_sysctl__kern_zleak
___set___sysctl_set_sym_sysctl__kern_zleak_active
___set___sysctl_set_sym_sysctl__kern_zleak_global_threshold
___set___sysctl_set_sym_sysctl__kern_zleak_max_zonemap_size
___set___sysctl_set_sym_sysctl__kern_zleak_zone_threshold
___set___sysctl_set_sym_sysctl__kpc
___set___sysctl_set_sym_sysctl__kpc_actionid
___set___sysctl_set_sym_sysctl__kpc_classes
___set___sysctl_set_sym_sysctl__kpc_config
___set___sysctl_set_sym_sysctl__kpc_config_count
___set___sysctl_set_sym_sysctl__kpc_counter_count
___set___sysctl_set_sym_sysctl__kpc_counters
___set___sysctl_set_sym_sysctl__kpc_counting
___set___sysctl_set_sym_sysctl__kpc_period
___set___sysctl_set_sym_sysctl__kpc_shadow_counters
___set___sysctl_set_sym_sysctl__kpc_thread_counters
___set___sysctl_set_sym_sysctl__kpc_thread_counting
___set___sysctl_set_sym_sysctl__kperf
___set___sysctl_set_sym_sysctl__kperf_action
___set___sysctl_set_sym_sysctl__kperf_action_count
___set___sysctl_set_sym_sysctl__kperf_action_filter_by_pid
___set___sysctl_set_sym_sysctl__kperf_action_filter_by_task
___set___sysctl_set_sym_sysctl__kperf_action_samplers
___set___sysctl_set_sym_sysctl__kperf_action_userdata
___set___sysctl_set_sym_sysctl__kperf_blessed_pid
___set___sysctl_set_sym_sysctl__kperf_blessed_preempt
___set___sysctl_set_sym_sysctl__kperf_debug_level
___set___sysctl_set_sym_sysctl__kperf_kdbg_callstacks
___set___sysctl_set_sym_sysctl__kperf_kdbg_cswitch
___set___sysctl_set_sym_sysctl__kperf_pet_idle_rate
___set___sysctl_set_sym_sysctl__kperf_sampling
___set___sysctl_set_sym_sysctl__kperf_timer
___set___sysctl_set_sym_sysctl__kperf_timer_action
___set___sysctl_set_sym_sysctl__kperf_timer_count
___set___sysctl_set_sym_sysctl__kperf_timer_period
___set___sysctl_set_sym_sysctl__kperf_timer_pet_timer
___set___sysctl_set_sym_sysctl__machdep
___set___sysctl_set_sym_sysctl__machdep_cpu
___set___sysctl_set_sym_sysctl__machdep_cpu_address_bits
___set___sysctl_set_sym_sysctl__machdep_cpu_address_bits_physical
___set___sysctl_set_sym_sysctl__machdep_cpu_address_bits_virtual
___set___sysctl_set_sym_sysctl__machdep_cpu_arch_perf
___set___sysctl_set_sym_sysctl__machdep_cpu_arch_perf_events
___set___sysctl_set_sym_sysctl__machdep_cpu_arch_perf_events_number
___set___sysctl_set_sym_sysctl__machdep_cpu_arch_perf_fixed_number
___set___sysctl_set_sym_sysctl__machdep_cpu_arch_perf_fixed_width
___set___sysctl_set_sym_sysctl__machdep_cpu_arch_perf_number
___set___sysctl_set_sym_sysctl__machdep_cpu_arch_perf_version
___set___sysctl_set_sym_sysctl__machdep_cpu_arch_perf_width
___set___sysctl_set_sym_sysctl__machdep_cpu_brand
___set___sysctl_set_sym_sysctl__machdep_cpu_brand_string
___set___sysctl_set_sym_sysctl__machdep_cpu_cache
___set___sysctl_set_sym_sysctl__machdep_cpu_cache_L2_associativity
___set___sysctl_set_sym_sysctl__machdep_cpu_cache_linesize
___set___sysctl_set_sym_sysctl__machdep_cpu_cache_size
___set___sysctl_set_sym_sysctl__machdep_cpu_core_count
___set___sysctl_set_sym_sysctl__machdep_cpu_cores_per_package
___set___sysctl_set_sym_sysctl__machdep_cpu_extfamily
___set___sysctl_set_sym_sysctl__machdep_cpu_extfeature_bits
___set___sysctl_set_sym_sysctl__machdep_cpu_extfeatures
___set___sysctl_set_sym_sysctl__machdep_cpu_extmodel
___set___sysctl_set_sym_sysctl__machdep_cpu_family
___set___sysctl_set_sym_sysctl__machdep_cpu_feature_bits
___set___sysctl_set_sym_sysctl__machdep_cpu_features
___set___sysctl_set_sym_sysctl__machdep_cpu_flex_ratio
___set___sysctl_set_sym_sysctl__machdep_cpu_flex_ratio_desired
___set___sysctl_set_sym_sysctl__machdep_cpu_flex_ratio_max
___set___sysctl_set_sym_sysctl__machdep_cpu_flex_ratio_min
___set___sysctl_set_sym_sysctl__machdep_cpu_leaf7_feature_bits
___set___sysctl_set_sym_sysctl__machdep_cpu_leaf7_features
___set___sysctl_set_sym_sysctl__machdep_cpu_logical_per_package
___set___sysctl_set_sym_sysctl__machdep_cpu_max_basic
___set___sysctl_set_sym_sysctl__machdep_cpu_max_ext
___set___sysctl_set_sym_sysctl__machdep_cpu_microcode_version
___set___sysctl_set_sym_sysctl__machdep_cpu_model
___set___sysctl_set_sym_sysctl__machdep_cpu_mwait
___set___sysctl_set_sym_sysctl__machdep_cpu_mwait_extensions
___set___sysctl_set_sym_sysctl__machdep_cpu_mwait_linesize_max
___set___sysctl_set_sym_sysctl__machdep_cpu_mwait_linesize_min
___set___sysctl_set_sym_sysctl__machdep_cpu_mwait_sub_Cstates
___set___sysctl_set_sym_sysctl__machdep_cpu_processor_flag
___set___sysctl_set_sym_sysctl__machdep_cpu_signature
___set___sysctl_set_sym_sysctl__machdep_cpu_stepping
___set___sysctl_set_sym_sysctl__machdep_cpu_thermal
___set___sysctl_set_sym_sysctl__machdep_cpu_thermal_ACNT_MCNT
___set___sysctl_set_sym_sysctl__machdep_cpu_thermal_core_power_limits
___set___sysctl_set_sym_sysctl__machdep_cpu_thermal_dynamic_acceleration
___set___sysctl_set_sym_sysctl__machdep_cpu_thermal_energy_policy
___set___sysctl_set_sym_sysctl__machdep_cpu_thermal_fine_grain_clock_mod
___set___sysctl_set_sym_sysctl__machdep_cpu_thermal_hardware_feedback
___set___sysctl_set_sym_sysctl__machdep_cpu_thermal_invariant_APIC_timer
___set___sysctl_set_sym_sysctl__machdep_cpu_thermal_package_thermal_intr
___set___sysctl_set_sym_sysctl__machdep_cpu_thermal_sensor
___set___sysctl_set_sym_sysctl__machdep_cpu_thermal_thresholds
___set___sysctl_set_sym_sysctl__machdep_cpu_thread_count
___set___sysctl_set_sym_sysctl__machdep_cpu_tlb
___set___sysctl_set_sym_sysctl__machdep_cpu_tlb_data
___set___sysctl_set_sym_sysctl__machdep_cpu_tlb_data_large
___set___sysctl_set_sym_sysctl__machdep_cpu_tlb_data_large_level1
___set___sysctl_set_sym_sysctl__machdep_cpu_tlb_data_small
___set___sysctl_set_sym_sysctl__machdep_cpu_tlb_data_small_level1
___set___sysctl_set_sym_sysctl__machdep_cpu_tlb_inst
___set___sysctl_set_sym_sysctl__machdep_cpu_tlb_inst_large
___set___sysctl_set_sym_sysctl__machdep_cpu_tlb_inst_small
___set___sysctl_set_sym_sysctl__machdep_cpu_tlb_shared
___set___sysctl_set_sym_sysctl__machdep_cpu_ucupdate
___set___sysctl_set_sym_sysctl__machdep_cpu_vendor
___set___sysctl_set_sym_sysctl__machdep_cpu_xsave
___set___sysctl_set_sym_sysctl__machdep_cpu_xsave_extended_state
___set___sysctl_set_sym_sysctl__machdep_eager_timer_evaluation_max
___set___sysctl_set_sym_sysctl__machdep_eager_timer_evaluations
___set___sysctl_set_sym_sysctl__machdep_memmap
___set___sysctl_set_sym_sysctl__machdep_memmap_ACPINVS
___set___sysctl_set_sym_sysctl__machdep_memmap_ACPIReclaim
___set___sysctl_set_sym_sysctl__machdep_memmap_Conventional
___set___sysctl_set_sym_sysctl__machdep_memmap_Other
___set___sysctl_set_sym_sysctl__machdep_memmap_PalCode
___set___sysctl_set_sym_sysctl__machdep_memmap_Reserved
___set___sysctl_set_sym_sysctl__machdep_memmap_RuntimeServices
___set___sysctl_set_sym_sysctl__machdep_memmap_Unusable
___set___sysctl_set_sym_sysctl__machdep_misc
___set___sysctl_set_sym_sysctl__machdep_misc_interrupt_latency_max
___set___sysctl_set_sym_sysctl__machdep_misc_machine_check_panic
___set___sysctl_set_sym_sysctl__machdep_misc_nmis
___set___sysctl_set_sym_sysctl__machdep_misc_panic_restart_timeout
___set___sysctl_set_sym_sysctl__machdep_misc_timer_queue_trace
___set___sysctl_set_sym_sysctl__machdep_pmap
___set___sysctl_set_sym_sysctl__machdep_pmap_hashcnts
___set___sysctl_set_sym_sysctl__machdep_pmap_hashmax
___set___sysctl_set_sym_sysctl__machdep_pmap_hashwalks
___set___sysctl_set_sym_sysctl__machdep_pmap_kern_pv_reserve
___set___sysctl_set_sym_sysctl__machdep_pmap_kernel_text_ps
___set___sysctl_set_sym_sysctl__machdep_tsc
___set___sysctl_set_sym_sysctl__machdep_tsc_deep_idle_rebase
___set___sysctl_set_sym_sysctl__machdep_tsc_frequency
___set___sysctl_set_sym_sysctl__machdep_tsc_nanotime
___set___sysctl_set_sym_sysctl__machdep_tsc_nanotime_generation
___set___sysctl_set_sym_sysctl__machdep_tsc_nanotime_ns_base
___set___sysctl_set_sym_sysctl__machdep_tsc_nanotime_scale
___set___sysctl_set_sym_sysctl__machdep_tsc_nanotime_shift
___set___sysctl_set_sym_sysctl__machdep_tsc_nanotime_tsc_base
___set___sysctl_set_sym_sysctl__machdep_user_idle_level
___set___sysctl_set_sym_sysctl__machdep_vectors
___set___sysctl_set_sym_sysctl__machdep_vectors_IPI
___set___sysctl_set_sym_sysctl__machdep_vectors_timer
___set___sysctl_set_sym_sysctl__net
___set___sysctl_set_sym_sysctl__net_classq
___set___sysctl_set_sym_sysctl__net_classq_sfb
___set___sysctl_set_sym_sysctl__net_classq_sfb_allocation
___set___sysctl_set_sym_sysctl__net_classq_sfb_decrement
___set___sysctl_set_sym_sysctl__net_classq_sfb_hinterval
___set___sysctl_set_sym_sysctl__net_classq_sfb_holdtime
___set___sysctl_set_sym_sysctl__net_classq_sfb_increment
___set___sysctl_set_sym_sysctl__net_classq_sfb_pboxtime
___set___sysctl_set_sym_sysctl__net_classq_sfb_ratelimit
___set___sysctl_set_sym_sysctl__net_classq_verbose
___set___sysctl_set_sym_sysctl__net_inet
___set___sysctl_set_sym_sysctl__net_inet6
___set___sysctl_set_sym_sysctl__net_inet6_icmp6
___set___sysctl_set_sym_sysctl__net_inet6_icmp6_errppslimit
___set___sysctl_set_sym_sysctl__net_inet6_icmp6_nd6_accept_6to4
___set___sysctl_set_sym_sysctl__net_inet6_icmp6_nd6_debug
___set___sysctl_set_sym_sysctl__net_inet6_icmp6_nd6_delay
___set___sysctl_set_sym_sysctl__net_inet6_icmp6_nd6_drlist
___set___sysctl_set_sym_sysctl__net_inet6_icmp6_nd6_llreach_base
___set___sysctl_set_sym_sysctl__net_inet6_icmp6_nd6_maxproxiedsol
___set___sysctl_set_sym_sysctl__net_inet6_icmp6_nd6_maxsolstgt
___set___sysctl_set_sym_sysctl__net_inet6_icmp6_nd6_mmaxtries
___set___sysctl_set_sym_sysctl__net_inet6_icmp6_nd6_onlink_ns_rfc4861
___set___sysctl_set_sym_sysctl__net_inet6_icmp6_nd6_optimistic_dad
___set___sysctl_set_sym_sysctl__net_inet6_icmp6_nd6_prlist
___set___sysctl_set_sym_sysctl__net_inet6_icmp6_nd6_prune
___set___sysctl_set_sym_sysctl__net_inet6_icmp6_nd6_prune_lazy
___set___sysctl_set_sym_sysctl__net_inet6_icmp6_nd6_umaxtries
___set___sysctl_set_sym_sysctl__net_inet6_icmp6_nd6_useloopback
___set___sysctl_set_sym_sysctl__net_inet6_icmp6_nodeinfo
___set___sysctl_set_sym_sysctl__net_inet6_icmp6_prproxy_cnt
___set___sysctl_set_sym_sysctl__net_inet6_icmp6_rediraccept
___set___sysctl_set_sym_sysctl__net_inet6_icmp6_redirtimeout
___set___sysctl_set_sym_sysctl__net_inet6_icmp6_stats
___set___sysctl_set_sym_sysctl__net_inet6_ip6
___set___sysctl_set_sym_sysctl__net_inet6_ip6_accept_rtadv
___set___sysctl_set_sym_sysctl__net_inet6_ip6_addrctlpolicy
___set___sysctl_set_sym_sysctl__net_inet6_ip6_adj_clear_hwcksum
___set___sysctl_set_sym_sysctl__net_inet6_ip6_auto_flowlabel
___set___sysctl_set_sym_sysctl__net_inet6_ip6_auto_linklocal
___set___sysctl_set_sym_sysctl__net_inet6_ip6_dad_count
___set___sysctl_set_sym_sysctl__net_inet6_ip6_defmcasthlim
___set___sysctl_set_sym_sysctl__net_inet6_ip6_forwarding
___set___sysctl_set_sym_sysctl__net_inet6_ip6_fragpackets
___set___sysctl_set_sym_sysctl__net_inet6_ip6_fw
___set___sysctl_set_sym_sysctl__net_inet6_ip6_fw_debug
___set___sysctl_set_sym_sysctl__net_inet6_ip6_fw_enable
___set___sysctl_set_sym_sysctl__net_inet6_ip6_fw_verbose
___set___sysctl_set_sym_sysctl__net_inet6_ip6_fw_verbose_limit
___set___sysctl_set_sym_sysctl__net_inet6_ip6_gifhlim
___set___sysctl_set_sym_sysctl__net_inet6_ip6_hdrnestlimit
___set___sysctl_set_sym_sysctl__net_inet6_ip6_hlim
___set___sysctl_set_sym_sysctl__net_inet6_ip6_kame_version
___set___sysctl_set_sym_sysctl__net_inet6_ip6_keepfaith
___set___sysctl_set_sym_sysctl__net_inet6_ip6_log_interval
___set___sysctl_set_sym_sysctl__net_inet6_ip6_maxchainsent
___set___sysctl_set_sym_sysctl__net_inet6_ip6_maxdynroutes
___set___sysctl_set_sym_sysctl__net_inet6_ip6_maxfragpackets
___set___sysctl_set_sym_sysctl__net_inet6_ip6_maxfrags
___set___sysctl_set_sym_sysctl__net_inet6_ip6_maxifdefrouters
___set___sysctl_set_sym_sysctl__net_inet6_ip6_maxifprefixes
___set___sysctl_set_sym_sysctl__net_inet6_ip6_mcast
___set___sysctl_set_sym_sysctl__net_inet6_ip6_mcast_filters
___set___sysctl_set_sym_sysctl__net_inet6_ip6_mcast_loop
___set___sysctl_set_sym_sysctl__net_inet6_ip6_mcast_maxgrpsrc
___set___sysctl_set_sym_sysctl__net_inet6_ip6_mcast_maxsocksrc
___set___sysctl_set_sym_sysctl__net_inet6_ip6_mcast_pmtu
___set___sysctl_set_sym_sysctl__net_inet6_ip6_neighborgcthresh
___set___sysctl_set_sym_sysctl__net_inet6_ip6_only_allow_rfc4193_prefixes
___set___sysctl_set_sym_sysctl__net_inet6_ip6_prefer_tempaddr
___set___sysctl_set_sym_sysctl__net_inet6_ip6_redirect
___set___sysctl_set_sym_sysctl__net_inet6_ip6_rip6stats
___set___sysctl_set_sym_sysctl__net_inet6_ip6_rr_prune
___set___sysctl_set_sym_sysctl__net_inet6_ip6_rtexpire
___set___sysctl_set_sym_sysctl__net_inet6_ip6_rtmaxcache
___set___sysctl_set_sym_sysctl__net_inet6_ip6_rtminexpire
___set___sysctl_set_sym_sysctl__net_inet6_ip6_scopedroute
___set___sysctl_set_sym_sysctl__net_inet6_ip6_select_srcif_debug
___set___sysctl_set_sym_sysctl__net_inet6_ip6_stats
___set___sysctl_set_sym_sysctl__net_inet6_ip6_temppltime
___set___sysctl_set_sym_sysctl__net_inet6_ip6_tempvltime
___set___sysctl_set_sym_sysctl__net_inet6_ip6_use_defaultzone
___set___sysctl_set_sym_sysctl__net_inet6_ip6_use_deprecated
___set___sysctl_set_sym_sysctl__net_inet6_ip6_use_tempaddr
___set___sysctl_set_sym_sysctl__net_inet6_ip6_v6only
___set___sysctl_set_sym_sysctl__net_inet6_ipsec6
___set___sysctl_set_sym_sysctl__net_inet6_ipsec6_ah_net_deflev
___set___sysctl_set_sym_sysctl__net_inet6_ipsec6_ah_trans_deflev
___set___sysctl_set_sym_sysctl__net_inet6_ipsec6_debug
___set___sysctl_set_sym_sysctl__net_inet6_ipsec6_def_policy
___set___sysctl_set_sym_sysctl__net_inet6_ipsec6_ecn
___set___sysctl_set_sym_sysctl__net_inet6_ipsec6_esp_net_deflev
___set___sysctl_set_sym_sysctl__net_inet6_ipsec6_esp_randpad
___set___sysctl_set_sym_sysctl__net_inet6_ipsec6_esp_trans_deflev
___set___sysctl_set_sym_sysctl__net_inet6_ipsec6_stats
___set___sysctl_set_sym_sysctl__net_inet6_mld
___set___sysctl_set_sym_sysctl__net_inet6_mld_debug
___set___sysctl_set_sym_sysctl__net_inet6_mld_gsrdelay
___set___sysctl_set_sym_sysctl__net_inet6_mld_ifinfo
___set___sysctl_set_sym_sysctl__net_inet6_mld_use_allow
___set___sysctl_set_sym_sysctl__net_inet6_mld_v1enable
___set___sysctl_set_sym_sysctl__net_inet6_mld_v2enable
___set___sysctl_set_sym_sysctl__net_inet6_send
___set___sysctl_set_sym_sysctl__net_inet6_send_cga_parameters
___set___sysctl_set_sym_sysctl__net_inet6_send_opmode
___set___sysctl_set_sym_sysctl__net_inet6_send_opstate
___set___sysctl_set_sym_sysctl__net_inet6_tcp6
___set___sysctl_set_sym_sysctl__net_inet6_udp6
___set___sysctl_set_sym_sysctl__net_inet_div
___set___sysctl_set_sym_sysctl__net_inet_icmp
___set___sysctl_set_sym_sysctl__net_inet_icmp_bmcastecho
___set___sysctl_set_sym_sysctl__net_inet_icmp_drop_redirect
___set___sysctl_set_sym_sysctl__net_inet_icmp_icmplim
___set___sysctl_set_sym_sysctl__net_inet_icmp_log_redirect
___set___sysctl_set_sym_sysctl__net_inet_icmp_maskrepl
___set___sysctl_set_sym_sysctl__net_inet_icmp_stats
___set___sysctl_set_sym_sysctl__net_inet_icmp_timestamp
___set___sysctl_set_sym_sysctl__net_inet_igmp
___set___sysctl_set_sym_sysctl__net_inet_igmp_debug
___set___sysctl_set_sym_sysctl__net_inet_igmp_default_version
___set___sysctl_set_sym_sysctl__net_inet_igmp_gsrdelay
___set___sysctl_set_sym_sysctl__net_inet_igmp_ifinfo
___set___sysctl_set_sym_sysctl__net_inet_igmp_legacysupp
___set___sysctl_set_sym_sysctl__net_inet_igmp_recvifkludge
___set___sysctl_set_sym_sysctl__net_inet_igmp_sendlocal
___set___sysctl_set_sym_sysctl__net_inet_igmp_sendra
___set___sysctl_set_sym_sysctl__net_inet_igmp_stats
___set___sysctl_set_sym_sysctl__net_inet_igmp_v1enable
___set___sysctl_set_sym_sysctl__net_inet_igmp_v2enable
___set___sysctl_set_sym_sysctl__net_inet_igmp_v3stats
___set___sysctl_set_sym_sysctl__net_inet_ip
___set___sysctl_set_sym_sysctl__net_inet_ip_accept_sourceroute
___set___sysctl_set_sym_sysctl__net_inet_ip_adj_clear_hwcksum
___set___sysctl_set_sym_sysctl__net_inet_ip_check_interface
___set___sysctl_set_sym_sysctl__net_inet_ip_dummynet
___set___sysctl_set_sym_sysctl__net_inet_ip_dummynet_curr_time
___set___sysctl_set_sym_sysctl__net_inet_ip_dummynet_debug
___set___sysctl_set_sym_sysctl__net_inet_ip_dummynet_expire
___set___sysctl_set_sym_sysctl__net_inet_ip_dummynet_extract_heap
___set___sysctl_set_sym_sysctl__net_inet_ip_dummynet_hash_size
___set___sysctl_set_sym_sysctl__net_inet_ip_dummynet_max_chain_len
___set___sysctl_set_sym_sysctl__net_inet_ip_dummynet_ready_heap
___set___sysctl_set_sym_sysctl__net_inet_ip_dummynet_red_avg_pkt_size
___set___sysctl_set_sym_sysctl__net_inet_ip_dummynet_red_lookup_depth
___set___sysctl_set_sym_sysctl__net_inet_ip_dummynet_red_max_pkt_size
___set___sysctl_set_sym_sysctl__net_inet_ip_dummynet_search_steps
___set___sysctl_set_sym_sysctl__net_inet_ip_dummynet_searches
___set___sysctl_set_sym_sysctl__net_inet_ip_forwarding
___set___sysctl_set_sym_sysctl__net_inet_ip_fragpackets
___set___sysctl_set_sym_sysctl__net_inet_ip_fw
___set___sysctl_set_sym_sysctl__net_inet_ip_fw_autoinc_step
___set___sysctl_set_sym_sysctl__net_inet_ip_fw_curr_dyn_buckets
___set___sysctl_set_sym_sysctl__net_inet_ip_fw_debug
___set___sysctl_set_sym_sysctl__net_inet_ip_fw_dyn_ack_lifetime
___set___sysctl_set_sym_sysctl__net_inet_ip_fw_dyn_buckets
___set___sysctl_set_sym_sysctl__net_inet_ip_fw_dyn_count
___set___sysctl_set_sym_sysctl__net_inet_ip_fw_dyn_fin_lifetime
___set___sysctl_set_sym_sysctl__net_inet_ip_fw_dyn_keepalive
___set___sysctl_set_sym_sysctl__net_inet_ip_fw_dyn_max
___set___sysctl_set_sym_sysctl__net_inet_ip_fw_dyn_rst_lifetime
___set___sysctl_set_sym_sysctl__net_inet_ip_fw_dyn_short_lifetime
___set___sysctl_set_sym_sysctl__net_inet_ip_fw_dyn_syn_lifetime
___set___sysctl_set_sym_sysctl__net_inet_ip_fw_dyn_udp_lifetime
___set___sysctl_set_sym_sysctl__net_inet_ip_fw_enable
___set___sysctl_set_sym_sysctl__net_inet_ip_fw_one_pass
___set___sysctl_set_sym_sysctl__net_inet_ip_fw_static_count
___set___sysctl_set_sym_sysctl__net_inet_ip_fw_verbose
___set___sysctl_set_sym_sysctl__net_inet_ip_fw_verbose_limit
___set___sysctl_set_sym_sysctl__net_inet_ip_gifttl
___set___sysctl_set_sym_sysctl__net_inet_ip_linklocal
___set___sysctl_set_sym_sysctl__net_inet_ip_linklocal_in
___set___sysctl_set_sym_sysctl__net_inet_ip_linklocal_in_allowbadttl
___set___sysctl_set_sym_sysctl__net_inet_ip_linklocal_stat
___set___sysctl_set_sym_sysctl__net_inet_ip_maxchainsent
___set___sysctl_set_sym_sysctl__net_inet_ip_maxfragpackets
___set___sysctl_set_sym_sysctl__net_inet_ip_maxfragsperpacket
___set___sysctl_set_sym_sysctl__net_inet_ip_mcast
___set___sysctl_set_sym_sysctl__net_inet_ip_mcast_filters
___set___sysctl_set_sym_sysctl__net_inet_ip_mcast_loop
___set___sysctl_set_sym_sysctl__net_inet_ip_mcast_maxgrpsrc
___set___sysctl_set_sym_sysctl__net_inet_ip_mcast_maxsocksrc
___set___sysctl_set_sym_sysctl__net_inet_ip_portrange
___set___sysctl_set_sym_sysctl__net_inet_ip_portrange_first
___set___sysctl_set_sym_sysctl__net_inet_ip_portrange_hifirst
___set___sysctl_set_sym_sysctl__net_inet_ip_portrange_hilast
___set___sysctl_set_sym_sysctl__net_inet_ip_portrange_last
___set___sysctl_set_sym_sysctl__net_inet_ip_portrange_lowfirst
___set___sysctl_set_sym_sysctl__net_inet_ip_portrange_lowlast
___set___sysctl_set_sym_sysctl__net_inet_ip_random_id
___set___sysctl_set_sym_sysctl__net_inet_ip_random_id_collisions
___set___sysctl_set_sym_sysctl__net_inet_ip_random_id_statistics
___set___sysctl_set_sym_sysctl__net_inet_ip_random_id_total
___set___sysctl_set_sym_sysctl__net_inet_ip_redirect
___set___sysctl_set_sym_sysctl__net_inet_ip_rtexpire
___set___sysctl_set_sym_sysctl__net_inet_ip_rtmaxcache
___set___sysctl_set_sym_sysctl__net_inet_ip_rtminexpire
___set___sysctl_set_sym_sysctl__net_inet_ip_scopedroute
___set___sysctl_set_sym_sysctl__net_inet_ip_select_srcif_debug
___set___sysctl_set_sym_sysctl__net_inet_ip_sendsourcequench
___set___sysctl_set_sym_sysctl__net_inet_ip_sourceroute
___set___sysctl_set_sym_sysctl__net_inet_ip_stats
___set___sysctl_set_sym_sysctl__net_inet_ip_subnets_are_local
___set___sysctl_set_sym_sysctl__net_inet_ip_ttl
___set___sysctl_set_sym_sysctl__net_inet_ipsec
___set___sysctl_set_sym_sysctl__net_inet_ipsec_ah_cleartos
___set___sysctl_set_sym_sysctl__net_inet_ipsec_ah_net_deflev
___set___sysctl_set_sym_sysctl__net_inet_ipsec_ah_offsetmask
___set___sysctl_set_sym_sysctl__net_inet_ipsec_ah_trans_deflev
___set___sysctl_set_sym_sysctl__net_inet_ipsec_bypass
___set___sysctl_set_sym_sysctl__net_inet_ipsec_debug
___set___sysctl_set_sym_sysctl__net_inet_ipsec_def_policy
___set___sysctl_set_sym_sysctl__net_inet_ipsec_dfbit
___set___sysctl_set_sym_sysctl__net_inet_ipsec_ecn
___set___sysctl_set_sym_sysctl__net_inet_ipsec_esp_net_deflev
___set___sysctl_set_sym_sysctl__net_inet_ipsec_esp_port
___set___sysctl_set_sym_sysctl__net_inet_ipsec_esp_randpad
___set___sysctl_set_sym_sysctl__net_inet_ipsec_esp_trans_deflev
___set___sysctl_set_sym_sysctl__net_inet_ipsec_stats
___set___sysctl_set_sym_sysctl__net_inet_raw
___set___sysctl_set_sym_sysctl__net_inet_raw_maxdgram
___set___sysctl_set_sym_sysctl__net_inet_raw_pcbcount
___set___sysctl_set_sym_sysctl__net_inet_raw_pcblist
___set___sysctl_set_sym_sysctl__net_inet_raw_pcblist64
___set___sysctl_set_sym_sysctl__net_inet_raw_pcblist_n
___set___sysctl_set_sym_sysctl__net_inet_raw_recvspace
___set___sysctl_set_sym_sysctl__net_inet_tcp
___set___sysctl_set_sym_sysctl__net_inet_tcp_acc_iaj_high_thresh
___set___sysctl_set_sym_sysctl__net_inet_tcp_acc_iaj_react_limit
___set___sysctl_set_sym_sysctl__net_inet_tcp_ack_prioritize
___set___sysctl_set_sym_sysctl__net_inet_tcp_always_keepalive
___set___sysctl_set_sym_sysctl__net_inet_tcp_autorcvbufincshift
___set___sysctl_set_sym_sysctl__net_inet_tcp_autorcvbufmax
___set___sysctl_set_sym_sysctl__net_inet_tcp_autosndbufinc
___set___sysctl_set_sym_sysctl__net_inet_tcp_autosndbufmax
___set___sysctl_set_sym_sysctl__net_inet_tcp_background_io_enabled
___set___sysctl_set_sym_sysctl__net_inet_tcp_background_io_trigger
___set___sysctl_set_sym_sysctl__net_inet_tcp_background_sockets
___set___sysctl_set_sym_sysctl__net_inet_tcp_bg_allowed_increase
___set___sysctl_set_sym_sysctl__net_inet_tcp_bg_ss_fltsz
___set___sysctl_set_sym_sysctl__net_inet_tcp_bg_target_qdelay
___set___sysctl_set_sym_sysctl__net_inet_tcp_bg_tether_shift
___set___sysctl_set_sym_sysctl__net_inet_tcp_blackhole
___set___sysctl_set_sym_sysctl__net_inet_tcp_broken_peer_syn_rexmit_thres_local
___set___sysctl_set_sym_sysctl__net_inet_tcp_broken_peer_syn_rxmit_thres
___set___sysctl_set_sym_sysctl__net_inet_tcp_delayed_ack
___set___sysctl_set_sym_sysctl__net_inet_tcp_do_tcpdrain
___set___sysctl_set_sym_sysctl__net_inet_tcp_doautorcvbuf
___set___sysctl_set_sym_sysctl__net_inet_tcp_doautosndbuf
___set___sysctl_set_sym_sysctl__net_inet_tcp_drop_synfin
___set___sysctl_set_sym_sysctl__net_inet_tcp_early_rexmt
___set___sysctl_set_sym_sysctl__net_inet_tcp_ecn_initiate_out
___set___sysctl_set_sym_sysctl__net_inet_tcp_ecn_negotiate_in
___set___sysctl_set_sym_sysctl__net_inet_tcp_icmp_may_rst
___set___sysctl_set_sym_sysctl__net_inet_tcp_info
___set___sysctl_set_sym_sysctl__net_inet_tcp_isn_reseed_interval
___set___sysctl_set_sym_sysctl__net_inet_tcp_keepcnt
___set___sysctl_set_sym_sysctl__net_inet_tcp_keepidle
___set___sysctl_set_sym_sysctl__net_inet_tcp_keepinit
___set___sysctl_set_sym_sysctl__net_inet_tcp_keepintvl
___set___sysctl_set_sym_sysctl__net_inet_tcp_limited_transmit
___set___sysctl_set_sym_sysctl__net_inet_tcp_local_slowstart_flightsize
___set___sysctl_set_sym_sysctl__net_inet_tcp_log_in_vain
___set___sysctl_set_sym_sysctl__net_inet_tcp_lro
___set___sysctl_set_sym_sysctl__net_inet_tcp_lro_startcnt
___set___sysctl_set_sym_sysctl__net_inet_tcp_lro_sz
___set___sysctl_set_sym_sysctl__net_inet_tcp_lro_time
___set___sysctl_set_sym_sysctl__net_inet_tcp_lrodbg
___set___sysctl_set_sym_sysctl__net_inet_tcp_max_persist_timeout
___set___sysctl_set_sym_sysctl__net_inet_tcp_maxseg_unacked
___set___sysctl_set_sym_sysctl__net_inet_tcp_min_iaj_win
___set___sysctl_set_sym_sysctl__net_inet_tcp_minmss
___set___sysctl_set_sym_sysctl__net_inet_tcp_msl
___set___sysctl_set_sym_sysctl__net_inet_tcp_mssdflt
___set___sysctl_set_sym_sysctl__net_inet_tcp_newreno_sockets
___set___sysctl_set_sym_sysctl__net_inet_tcp_packetchain
___set___sysctl_set_sym_sysctl__net_inet_tcp_path_mtu_discovery
___set___sysctl_set_sym_sysctl__net_inet_tcp_pcbcount
___set___sysctl_set_sym_sysctl__net_inet_tcp_pcblist
___set___sysctl_set_sym_sysctl__net_inet_tcp_pcblist64
___set___sysctl_set_sym_sysctl__net_inet_tcp_pcblist_n
___set___sysctl_set_sym_sysctl__net_inet_tcp_pmtud_blackhole_detection
___set___sysctl_set_sym_sysctl__net_inet_tcp_pmtud_blackhole_mss
___set___sysctl_set_sym_sysctl__net_inet_tcp_randomize_ports
___set___sysctl_set_sym_sysctl__net_inet_tcp_rcvsspktcnt
___set___sysctl_set_sym_sysctl__net_inet_tcp_reass
___set___sysctl_set_sym_sysctl__net_inet_tcp_reass_cursegments
___set___sysctl_set_sym_sysctl__net_inet_tcp_reass_maxsegments
___set___sysctl_set_sym_sysctl__net_inet_tcp_reass_overflows
___set___sysctl_set_sym_sysctl__net_inet_tcp_recv_allowed_iaj
___set___sysctl_set_sym_sysctl__net_inet_tcp_recv_throttle_minwin
___set___sysctl_set_sym_sysctl__net_inet_tcp_recvbg
___set___sysctl_set_sym_sysctl__net_inet_tcp_recvspace
___set___sysctl_set_sym_sysctl__net_inet_tcp_rexmt_slop
___set___sysctl_set_sym_sysctl__net_inet_tcp_rexmt_thresh
___set___sysctl_set_sym_sysctl__net_inet_tcp_rfc1323
___set___sysctl_set_sym_sysctl__net_inet_tcp_rfc1644
___set___sysctl_set_sym_sysctl__net_inet_tcp_rfc3390
___set___sysctl_set_sym_sysctl__net_inet_tcp_rfc3465
___set___sysctl_set_sym_sysctl__net_inet_tcp_rfc3465_lim2
___set___sysctl_set_sym_sysctl__net_inet_tcp_rtt_min
___set___sysctl_set_sym_sysctl__net_inet_tcp_rtt_recvbg
___set___sysctl_set_sym_sysctl__net_inet_tcp_rtt_samples_per_slot
___set___sysctl_set_sym_sysctl__net_inet_tcp_sack
___set___sysctl_set_sym_sysctl__net_inet_tcp_sack_ackadv
___set___sysctl_set_sym_sysctl__net_inet_tcp_sack_globalholes
___set___sysctl_set_sym_sysctl__net_inet_tcp_sack_globalmaxholes
___set___sysctl_set_sym_sysctl__net_inet_tcp_sack_maxholes
___set___sysctl_set_sym_sysctl__net_inet_tcp_sendspace
___set___sysctl_set_sym_sysctl__net_inet_tcp_slowlink_wsize
___set___sysctl_set_sym_sysctl__net_inet_tcp_slowstart_flightsize
___set___sysctl_set_sym_sysctl__net_inet_tcp_socket_unlocked_on_output
___set___sysctl_set_sym_sysctl__net_inet_tcp_stats
___set___sysctl_set_sym_sysctl__net_inet_tcp_strict_rfc1948
___set___sysctl_set_sym_sysctl__net_inet_tcp_tcbhashsize
___set___sysctl_set_sym_sysctl__net_inet_tcp_tcp_lq_overflow
___set___sysctl_set_sym_sysctl__net_inet_tcp_tcp_resched_timerlist
___set___sysctl_set_sym_sysctl__net_inet_tcp_tcp_timer_advanced
___set___sysctl_set_sym_sysctl__net_inet_tcp_timer_fastmode_idlemax
___set___sysctl_set_sym_sysctl__net_inet_tcp_timer_fastquantum
___set___sysctl_set_sym_sysctl__net_inet_tcp_timer_slowquantum
___set___sysctl_set_sym_sysctl__net_inet_tcp_tso
___set___sysctl_set_sym_sysctl__net_inet_tcp_tw_pcbcount
___set___sysctl_set_sym_sysctl__net_inet_tcp_v6mssdflt
___set___sysctl_set_sym_sysctl__net_inet_tcp_win_scale_factor
___set___sysctl_set_sym_sysctl__net_inet_udp
___set___sysctl_set_sym_sysctl__net_inet_udp_blackhole
___set___sysctl_set_sym_sysctl__net_inet_udp_checksum
___set___sysctl_set_sym_sysctl__net_inet_udp_log_in_vain
___set___sysctl_set_sym_sysctl__net_inet_udp_maxdgram
___set___sysctl_set_sym_sysctl__net_inet_udp_pcbcount
___set___sysctl_set_sym_sysctl__net_inet_udp_pcblist
___set___sysctl_set_sym_sysctl__net_inet_udp_pcblist64
___set___sysctl_set_sym_sysctl__net_inet_udp_pcblist_n
___set___sysctl_set_sym_sysctl__net_inet_udp_randomize_ports
___set___sysctl_set_sym_sysctl__net_inet_udp_recvspace
___set___sysctl_set_sym_sysctl__net_inet_udp_stats
___set___sysctl_set_sym_sysctl__net_key
___set___sysctl_set_sym_sysctl__net_key_ah_keymin
___set___sysctl_set_sym_sysctl__net_key_blockacq_count
___set___sysctl_set_sym_sysctl__net_key_blockacq_lifetime
___set___sysctl_set_sym_sysctl__net_key_debug
___set___sysctl_set_sym_sysctl__net_key_esp_auth
___set___sysctl_set_sym_sysctl__net_key_esp_keymin
___set___sysctl_set_sym_sysctl__net_key_int_random
___set___sysctl_set_sym_sysctl__net_key_larval_lifetime
___set___sysctl_set_sym_sysctl__net_key_natt_keepalive_interval
___set___sysctl_set_sym_sysctl__net_key_pfkeystat
___set___sysctl_set_sym_sysctl__net_key_prefered_oldsa
___set___sysctl_set_sym_sysctl__net_key_spi_maxval
___set___sysctl_set_sym_sysctl__net_key_spi_minval
___set___sysctl_set_sym_sysctl__net_key_spi_trycnt
___set___sysctl_set_sym_sysctl__net_link
___set___sysctl_set_sym_sysctl__net_link_bridge
___set___sysctl_set_sym_sysctl__net_link_bridge_debug
___set___sysctl_set_sym_sysctl__net_link_bridge_inherit_mac
___set___sysctl_set_sym_sysctl__net_link_bridge_rtable_hash_size_max
___set___sysctl_set_sym_sysctl__net_link_bridge_rtable_prune_period
___set___sysctl_set_sym_sysctl__net_link_bridge_txstart
___set___sysctl_set_sym_sysctl__net_link_ether
___set___sysctl_set_sym_sysctl__net_link_ether_inet
___set___sysctl_set_sym_sysctl__net_link_ether_inet_apple_hwcksum_rx
___set___sysctl_set_sym_sysctl__net_link_ether_inet_apple_hwcksum_tx
___set___sysctl_set_sym_sysctl__net_link_ether_inet_arp_llreach_base
___set___sysctl_set_sym_sysctl__net_link_ether_inet_arp_unicast_lim
___set___sysctl_set_sym_sysctl__net_link_ether_inet_host_down_time
___set___sysctl_set_sym_sysctl__net_link_ether_inet_keep_announcements
___set___sysctl_set_sym_sysctl__net_link_ether_inet_log_arp_warnings
___set___sysctl_set_sym_sysctl__net_link_ether_inet_max_age
___set___sysctl_set_sym_sysctl__net_link_ether_inet_maxtries
___set___sysctl_set_sym_sysctl__net_link_ether_inet_proxyall
___set___sysctl_set_sym_sysctl__net_link_ether_inet_prune_intvl
___set___sysctl_set_sym_sysctl__net_link_ether_inet_send_conflicting_probes
___set___sysctl_set_sym_sysctl__net_link_ether_inet_sendllconflict
___set___sysctl_set_sym_sysctl__net_link_ether_inet_stats
___set___sysctl_set_sym_sysctl__net_link_ether_inet_useloopback
___set___sysctl_set_sym_sysctl__net_link_ether_inet_verbose
___set___sysctl_set_sym_sysctl__net_link_generic
___set___sysctl_set_sym_sysctl__net_link_generic_ifalldata
___set___sysctl_set_sym_sysctl__net_link_generic_ifdata
___set___sysctl_set_sym_sysctl__net_link_generic_system
___set___sysctl_set_sym_sysctl__net_link_generic_system_dlil_input_sanity_check
___set___sysctl_set_sym_sysctl__net_link_generic_system_dlil_input_threads
___set___sysctl_set_sym_sysctl__net_link_generic_system_dlil_lladdr_ckreq
___set___sysctl_set_sym_sysctl__net_link_generic_system_dlil_verbose
___set___sysctl_set_sym_sysctl__net_link_generic_system_flow_advisory
___set___sysctl_set_sym_sysctl__net_link_generic_system_hwcksum_dbg
___set___sysctl_set_sym_sysctl__net_link_generic_system_hwcksum_dbg_adjusted
___set___sysctl_set_sym_sysctl__net_link_generic_system_hwcksum_dbg_bad_cksum
___set___sysctl_set_sym_sysctl__net_link_generic_system_hwcksum_dbg_bad_rxoff
___set___sysctl_set_sym_sysctl__net_link_generic_system_hwcksum_dbg_finalized_data
___set___sysctl_set_sym_sysctl__net_link_generic_system_hwcksum_dbg_finalized_hdr
___set___sysctl_set_sym_sysctl__net_link_generic_system_hwcksum_dbg_mode
___set___sysctl_set_sym_sysctl__net_link_generic_system_hwcksum_dbg_partial_forced
___set___sysctl_set_sym_sysctl__net_link_generic_system_hwcksum_dbg_partial_forced_bytes
___set___sysctl_set_sym_sysctl__net_link_generic_system_hwcksum_dbg_partial_rxoff_adj
___set___sysctl_set_sym_sysctl__net_link_generic_system_hwcksum_dbg_partial_rxoff_forced
___set___sysctl_set_sym_sysctl__net_link_generic_system_hwcksum_dbg_verified
___set___sysctl_set_sym_sysctl__net_link_generic_system_hwcksum_in_invalidated
___set___sysctl_set_sym_sysctl__net_link_generic_system_hwcksum_rx
___set___sysctl_set_sym_sysctl__net_link_generic_system_hwcksum_tx
___set___sysctl_set_sym_sysctl__net_link_generic_system_if_bw_measure_size
___set___sysctl_set_sym_sysctl__net_link_generic_system_if_bw_smoothing_val
___set___sysctl_set_sym_sysctl__net_link_generic_system_if_family_ids
___set___sysctl_set_sym_sysctl__net_link_generic_system_if_verbose
___set___sysctl_set_sym_sysctl__net_link_generic_system_ifcount
___set___sysctl_set_sym_sysctl__net_link_generic_system_llreach_info
___set___sysctl_set_sym_sysctl__net_link_generic_system_rcvq_maxlen
___set___sysctl_set_sym_sysctl__net_link_generic_system_rxpoll
___set___sysctl_set_sym_sysctl__net_link_generic_system_rxpoll_decay
___set___sysctl_set_sym_sysctl__net_link_generic_system_rxpoll_freeze_time
___set___sysctl_set_sym_sysctl__net_link_generic_system_rxpoll_interval_pkts
___set___sysctl_set_sym_sysctl__net_link_generic_system_rxpoll_interval_time
___set___sysctl_set_sym_sysctl__net_link_generic_system_rxpoll_max
___set___sysctl_set_sym_sysctl__net_link_generic_system_rxpoll_sample_time
___set___sysctl_set_sym_sysctl__net_link_generic_system_rxpoll_wakeups_hiwat
___set___sysctl_set_sym_sysctl__net_link_generic_system_rxpoll_wakeups_lowat
___set___sysctl_set_sym_sysctl__net_link_generic_system_sndq_maxlen
___set___sysctl_set_sym_sysctl__net_link_iptap
___set___sysctl_set_sym_sysctl__net_link_iptap_log
___set___sysctl_set_sym_sysctl__net_link_iptap_total_tap_count
___set___sysctl_set_sym_sysctl__net_link_loopback
___set___sysctl_set_sym_sysctl__net_link_loopback_bw_measure
___set___sysctl_set_sym_sysctl__net_link_loopback_bw_sleep_usec
___set___sysctl_set_sym_sysctl__net_link_loopback_dequeue_sc
___set___sysctl_set_sym_sysctl__net_link_loopback_max_dequeue
___set___sysctl_set_sym_sysctl__net_link_loopback_sched_model
___set___sysctl_set_sym_sysctl__net_link_pktap
___set___sysctl_set_sym_sysctl__net_link_pktap_count_unknown_if_type
___set___sysctl_set_sym_sysctl__net_link_pktap_log
___set___sysctl_set_sym_sysctl__net_link_pktap_total_tap_count
___set___sysctl_set_sym_sysctl__net_local
___set___sysctl_set_sym_sysctl__net_local_dgram
___set___sysctl_set_sym_sysctl__net_local_dgram_maxdgram
___set___sysctl_set_sym_sysctl__net_local_dgram_pcblist
___set___sysctl_set_sym_sysctl__net_local_dgram_pcblist64
___set___sysctl_set_sym_sysctl__net_local_dgram_recvspace
___set___sysctl_set_sym_sysctl__net_local_inflight
___set___sysctl_set_sym_sysctl__net_local_stream
___set___sysctl_set_sym_sysctl__net_local_stream_pcblist
___set___sysctl_set_sym_sysctl__net_local_stream_pcblist64
___set___sysctl_set_sym_sysctl__net_local_stream_recvspace
___set___sysctl_set_sym_sysctl__net_local_stream_sendspace
___set___sysctl_set_sym_sysctl__net_local_stream_tracemdns
___set___sysctl_set_sym_sysctl__net_ndrv_multi_max_count
___set___sysctl_set_sym_sysctl__net_pktsched
___set___sysctl_set_sym_sysctl__net_pktsched_verbose
___set___sysctl_set_sym_sysctl__net_route
___set___sysctl_set_sym_sysctl__net_route_verbose
___set___sysctl_set_sym_sysctl__net_routetable
___set___sysctl_set_sym_sysctl__net_statistics
___set___sysctl_set_sym_sysctl__net_statistics_privcheck
___set___sysctl_set_sym_sysctl__security
___set___sysctl_set_sym_sysctl__security_mac
___set___sysctl_set_sym_sysctl__security_mac_device_enforce
___set___sysctl_set_sym_sysctl__security_mac_labelvnodes
___set___sysctl_set_sym_sysctl__security_mac_max_slots
___set___sysctl_set_sym_sysctl__security_mac_mmap_revocation
___set___sysctl_set_sym_sysctl__security_mac_mmap_revocation_via_cow
___set___sysctl_set_sym_sysctl__security_mac_pipe_enforce
___set___sysctl_set_sym_sysctl__security_mac_posixsem_enforce
___set___sysctl_set_sym_sysctl__security_mac_posixshm_enforce
___set___sysctl_set_sym_sysctl__security_mac_proc_enforce
___set___sysctl_set_sym_sysctl__security_mac_socket_enforce
___set___sysctl_set_sym_sysctl__security_mac_system_enforce
___set___sysctl_set_sym_sysctl__security_mac_sysvmsg_enforce
___set___sysctl_set_sym_sysctl__security_mac_sysvsem_enforce
___set___sysctl_set_sym_sysctl__security_mac_sysvshm_enforce
___set___sysctl_set_sym_sysctl__security_mac_vm_enforce
___set___sysctl_set_sym_sysctl__security_mac_vnode_enforce
___set___sysctl_set_sym_sysctl__sysctl
___set___sysctl_set_sym_sysctl__sysctl_debug
___set___sysctl_set_sym_sysctl__sysctl_name
___set___sysctl_set_sym_sysctl__sysctl_name2oid
___set___sysctl_set_sym_sysctl__sysctl_next
___set___sysctl_set_sym_sysctl__sysctl_oidfmt
___set___sysctl_set_sym_sysctl__sysctl_proc_cputype
___set___sysctl_set_sym_sysctl__sysctl_proc_exec_affinity
___set___sysctl_set_sym_sysctl__sysctl_proc_native
___set___sysctl_set_sym_sysctl__user
___set___sysctl_set_sym_sysctl__vfs
___set___sysctl_set_sym_sysctl__vfs_generic
___set___sysctl_set_sym_sysctl__vfs_generic_always_do_fullfsync
___set___sysctl_set_sym_sysctl__vfs_generic_ctlbyfsid
___set___sysctl_set_sym_sysctl__vfs_generic_hfs
___set___sysctl_set_sym_sysctl__vfs_generic_hfs_kdebug
___set___sysctl_set_sym_sysctl__vfs_generic_hfs_kdebug_allocation
___set___sysctl_set_sym_sysctl__vfs_generic_jnl
___set___sysctl_set_sym_sysctl__vfs_generic_jnl_kdebug
___set___sysctl_set_sym_sysctl__vfs_generic_jnl_kdebug_trim
___set___sysctl_set_sym_sysctl__vfs_generic_nfs
___set___sysctl_set_sym_sysctl__vfs_generic_nfs_client
___set___sysctl_set_sym_sysctl__vfs_generic_nfs_client_access_cache_timeout
___set___sysctl_set_sym_sysctl__vfs_generic_nfs_client_access_delete
___set___sysctl_set_sym_sysctl__vfs_generic_nfs_client_access_dotzfs
___set___sysctl_set_sym_sysctl__vfs_generic_nfs_client_access_for_getattr
___set___sysctl_set_sym_sysctl__vfs_generic_nfs_client_allow_async
___set___sysctl_set_sym_sysctl__vfs_generic_nfs_client_callback_port
___set___sysctl_set_sym_sysctl__vfs_generic_nfs_client_debug_ctl
___set___sysctl_set_sym_sysctl__vfs_generic_nfs_client_idmap_ctrl
___set___sysctl_set_sym_sysctl__vfs_generic_nfs_client_initialdowndelay
___set___sysctl_set_sym_sysctl__vfs_generic_nfs_client_iosize
___set___sysctl_set_sym_sysctl__vfs_generic_nfs_client_is_mobile
___set___sysctl_set_sym_sysctl__vfs_generic_nfs_client_lockd_mounts
___set___sysctl_set_sym_sysctl__vfs_generic_nfs_client_max_async_writes
___set___sysctl_set_sym_sysctl__vfs_generic_nfs_client_nextdowndelay
___set___sysctl_set_sym_sysctl__vfs_generic_nfs_client_nfsiod_thread_count
___set___sysctl_set_sym_sysctl__vfs_generic_nfs_client_nfsiod_thread_max
___set___sysctl_set_sym_sysctl__vfs_generic_nfs_client_single_des
___set___sysctl_set_sym_sysctl__vfs_generic_nfs_client_squishy_flags
___set___sysctl_set_sym_sysctl__vfs_generic_nfs_client_statfs_rate_limit
___set___sysctl_set_sym_sysctl__vfs_generic_nfs_server
___set___sysctl_set_sym_sysctl__vfs_generic_nfs_server_async
___set___sysctl_set_sym_sysctl__vfs_generic_nfs_server_export_hash_size
___set___sysctl_set_sym_sysctl__vfs_generic_nfs_server_fsevents
___set___sysctl_set_sym_sysctl__vfs_generic_nfs_server_gss_context_ttl
___set___sysctl_set_sym_sysctl__vfs_generic_nfs_server_nfsd_thread_count
___set___sysctl_set_sym_sysctl__vfs_generic_nfs_server_nfsd_thread_max
___set___sysctl_set_sym_sysctl__vfs_generic_nfs_server_reqcache_size
___set___sysctl_set_sym_sysctl__vfs_generic_nfs_server_request_queue_length
___set___sysctl_set_sym_sysctl__vfs_generic_nfs_server_require_resv_port
___set___sysctl_set_sym_sysctl__vfs_generic_nfs_server_upcall_queue_count
___set___sysctl_set_sym_sysctl__vfs_generic_nfs_server_upcall_queue_limit
___set___sysctl_set_sym_sysctl__vfs_generic_nfs_server_upcall_queue_max_seen
___set___sysctl_set_sym_sysctl__vfs_generic_nfs_server_use_upcall_svc
___set___sysctl_set_sym_sysctl__vfs_generic_nfs_server_user_stats
___set___sysctl_set_sym_sysctl__vfs_generic_nfs_server_wg_delay
___set___sysctl_set_sym_sysctl__vfs_generic_nfs_server_wg_delay_v3
___set___sysctl_set_sym_sysctl__vfs_generic_noremotehang
___set___sysctl_set_sym_sysctl__vfs_generic_root_unmounted_cleanly
___set___sysctl_set_sym_sysctl__vfs_generic_vfsidlist
___set___sysctl_set_sym_sysctl__vm
___set___sysctl_set_sym_sysctl__vm_all_reusable_calls
___set___sysctl_set_sym_sysctl__vm_all_reuse_calls
___set___sysctl_set_sym_sysctl__vm_allow_data_exec
___set___sysctl_set_sym_sysctl__vm_allow_stack_exec
___set___sysctl_set_sym_sysctl__vm_can_reuse_failure
___set___sysctl_set_sym_sysctl__vm_can_reuse_success
___set___sysctl_set_sym_sysctl__vm_compressor_bytes_used
___set___sysctl_set_sym_sysctl__vm_compressor_catchup_threshold_divisor
___set___sysctl_set_sym_sysctl__vm_compressor_eval_period_in_msecs
___set___sysctl_set_sym_sysctl__vm_compressor_majorcompact_threshold_divisor
___set___sysctl_set_sym_sysctl__vm_compressor_minorcompact_threshold_divisor
___set___sysctl_set_sym_sysctl__vm_compressor_mode
___set___sysctl_set_sym_sysctl__vm_compressor_sample_max_in_msecs
___set___sysctl_set_sym_sysctl__vm_compressor_sample_min_in_msecs
___set___sysctl_set_sym_sysctl__vm_compressor_swapout_target_age
___set___sysctl_set_sym_sysctl__vm_compressor_thrashing_min_per_10msecs
___set___sysctl_set_sym_sysctl__vm_compressor_thrashing_threshold_per_10msecs
___set___sysctl_set_sym_sysctl__vm_compressor_unthrottle_threshold_divisor
___set___sysctl_set_sym_sysctl__vm_cs_all_vnodes
___set___sysctl_set_sym_sysctl__vm_cs_blob_count
___set___sysctl_set_sym_sysctl__vm_cs_blob_count_peak
___set___sysctl_set_sym_sysctl__vm_cs_blob_size
___set___sysctl_set_sym_sysctl__vm_cs_blob_size_max
___set___sysctl_set_sym_sysctl__vm_cs_blob_size_peak
___set___sysctl_set_sym_sysctl__vm_cs_debug
___set___sysctl_set_sym_sysctl__vm_cs_enforcement
___set___sysctl_set_sym_sysctl__vm_cs_enforcement_panic
___set___sysctl_set_sym_sysctl__vm_cs_force_hard
___set___sysctl_set_sym_sysctl__vm_cs_force_kill
___set___sysctl_set_sym_sysctl__vm_cs_validation
___set___sysctl_set_sym_sysctl__vm_global_no_user_wire_amount
___set___sysctl_set_sym_sysctl__vm_global_user_wire_limit
___set___sysctl_set_sym_sysctl__vm_loadavg
___set___sysctl_set_sym_sysctl__vm_madvise_free_debug
___set___sysctl_set_sym_sysctl__vm_memory_pressure
___set___sysctl_set_sym_sysctl__vm_page_cleaned_count
___set___sysctl_set_sym_sysctl__vm_page_free_count
___set___sysctl_set_sym_sysctl__vm_page_free_wanted
___set___sysctl_set_sym_sysctl__vm_page_purgeable_count
___set___sysctl_set_sym_sysctl__vm_page_purgeable_wired_count
___set___sysctl_set_sym_sysctl__vm_page_reusable_count
___set___sysctl_set_sym_sysctl__vm_page_speculative_count
___set___sysctl_set_sym_sysctl__vm_pageout_cleaned
___set___sysctl_set_sym_sysctl__vm_pageout_cleaned_busy
___set___sysctl_set_sym_sysctl__vm_pageout_cleaned_commit_reactivated
___set___sysctl_set_sym_sysctl__vm_pageout_cleaned_fault_reactivated
___set___sysctl_set_sym_sysctl__vm_pageout_cleaned_nolock
___set___sysctl_set_sym_sysctl__vm_pageout_cleaned_reactivated
___set___sysctl_set_sym_sysctl__vm_pageout_cleaned_reference_reactivated
___set___sysctl_set_sym_sysctl__vm_pageout_cleaned_volatile_reactivated
___set___sysctl_set_sym_sysctl__vm_pageout_enqueued_cleaned
___set___sysctl_set_sym_sysctl__vm_pageout_enqueued_cleaned_from_inactive_clean
___set___sysctl_set_sym_sysctl__vm_pageout_enqueued_cleaned_from_inactive_dirty
___set___sysctl_set_sym_sysctl__vm_pageout_freed_from_cleaned
___set___sysctl_set_sym_sysctl__vm_pageout_freed_from_inactive_clean
___set___sysctl_set_sym_sysctl__vm_pageout_freed_from_speculative
___set___sysctl_set_sym_sysctl__vm_pageout_inactive_clean
___set___sysctl_set_sym_sysctl__vm_pageout_inactive_dirty_external
___set___sysctl_set_sym_sysctl__vm_pageout_inactive_dirty_internal
___set___sysctl_set_sym_sysctl__vm_pageout_inactive_used
___set___sysctl_set_sym_sysctl__vm_pageout_speculative_clean
___set___sysctl_set_sym_sysctl__vm_partial_reusable_calls
___set___sysctl_set_sym_sysctl__vm_partial_reuse_calls
___set___sysctl_set_sym_sysctl__vm_reusable_failure
___set___sysctl_set_sym_sysctl__vm_reusable_reclaimed
___set___sysctl_set_sym_sysctl__vm_reusable_shared
___set___sysctl_set_sym_sysctl__vm_reusable_success
___set___sysctl_set_sym_sysctl__vm_reuse_failure
___set___sysctl_set_sym_sysctl__vm_reuse_success
___set___sysctl_set_sym_sysctl__vm_shared_region_persistence
___set___sysctl_set_sym_sysctl__vm_shared_region_trace_level
___set___sysctl_set_sym_sysctl__vm_shared_region_unnest_logging
___set___sysctl_set_sym_sysctl__vm_shared_region_version
___set___sysctl_set_sym_sysctl__vm_sigpup_disable
___set___sysctl_set_sym_sysctl__vm_swapusage
___set___sysctl_set_sym_sysctl__vm_user_wire_limit
___set___sysctl_set_sym_sysctl__vm_vm_copy_src_large
___set___sysctl_set_sym_sysctl__vm_vm_copy_src_not_internal
___set___sysctl_set_sym_sysctl__vm_vm_copy_src_not_symmetric
___set___sysctl_set_sym_sysctl__vm_vm_debug_events
___set___sysctl_set_sym_sysctl__vm_vm_page_external_count
___set___sysctl_set_sym_sysctl__vm_vm_page_filecache_min
___set___sysctl_set_sym_sysctl__vm_vm_page_free_target
___sigwait
___sigwait_nocancel
___stack_chk_fail
___stack_chk_guard
___sysctl
___vmxoff
___vmxon
__addq
__addq_multi
__audit_cv_broadcast
__audit_cv_destroy
__audit_cv_init
__audit_cv_signal
__audit_cv_wait
__audit_cv_wait_continuation
__audit_cv_wait_sig
__audit_free
__audit_lck_grp_init
__audit_malloc
__audit_mtx_destroy
__audit_mtx_init
__audit_ppsratecheck
__audit_rlck_assert
__audit_rlck_destroy
__audit_rlck_init
__audit_rlck_lock
__audit_rlck_unlock
__audit_rw_destroy
__audit_rw_init
__audit_slck_assert
__audit_slck_destroy
__audit_slck_init
__audit_slck_lock
__audit_slck_trylock
__audit_slck_unlock
__bcopy
__bcopy2
__bcopy4
__bcopy8
__bcopystr
__clock_delay_until_deadline
__consume_kprintf_args
__consume_panic_args
__consume_printf_args
__cpu_capabilities
__devfs_setattr
__disable_preemption
__dist_code
__doprnt
__doprnt_truncates
__dtrace_close
__dtrace_ioctl
__dtrace_open
__dtrace_probe$01201___ip____receive
__dtrace_probe$0124___sdt____iotescallout__expire
__dtrace_probe$01276___ip____send
__dtrace_probe$01297___io____start
__dtrace_probe$01308___proc____signal__clear
__dtrace_probe$01344___vminfo____rev
__dtrace_probe$01997___vminfo____cow_fault
__dtrace_probe$0225___ip____receive
__dtrace_probe$02301___tcp____state__change
__dtrace_probe$02356___proc____spawn__failure
__dtrace_probe$02579___proc____kauth__identity__cache__hit
__dtrace_probe$02599___boost____receive_internal_boost
__dtrace_probe$0294___proc____exit
__dtrace_probe$0299___proc____create
__dtrace_probe$03003___vminfo____pgrec
__dtrace_probe$03112___fsinfo____getattr
__dtrace_probe$0328___tcp____cc
__dtrace_probe$0366___proc____lwp__exit
__dtrace_probe$03769___ip____send
__dtrace_probe$0391___io____journal__start
__dtrace_probe$0439___tcp____state__change
__dtrace_probe$0541___proc____fault
__dtrace_probe$0544___sdt____callout__create
__dtrace_probe$0552___tcp____iaj
__dtrace_probe$0584___ip____receive
__dtrace_probe$0593___fsinfo____advlock__wait
__dtrace_probe$0598___vminfo____pgpgin
__dtrace_probe$0682___ip____receive
__dtrace_probe$07468___vminfo____clustersize
__dtrace_probe$0755___ip____receive
__dtrace_probe$0831___io____wait__start
__dtrace_probe$0930___ip____send
__dtrace_probe$0935___tcp____state__change
__dtrace_probe$0948___sdt____thread_callout__create
__dtrace_probe$09686___vminfo____prot_fault
__dtrace_probe$0980___sched____wakeup
__dtrace_probe$102544___vminfo____kernel_asflt
__dtrace_probe$102578___proc____exec__success
__dtrace_probe$102802___vminfo____pgrrun
__dtrace_probe$102980___fsinfo____mknod
__dtrace_probe$103631___tcp____cc
__dtrace_probe$11025___tcp____state__change
__dtrace_probe$112666___tcp____state__change
__dtrace_probe$113016___fsinfo____open
__dtrace_probe$11336___fsinfo____strategy
__dtrace_probe$113877___vminfo____cow_fault
__dtrace_probe$113915___vminfo____execfree
__dtrace_probe$11396___vminfo____scan
__dtrace_probe$11430___tcp____receive
__dtrace_probe$1166___sdt____iotescallout__expire
__dtrace_probe$11789___proc____signal__discard
__dtrace_probe$11978___tcp____send
__dtrace_probe$122811___tcp____state__change
__dtrace_probe$123049___fsinfo____close
__dtrace_probe$12309___tcp____state__change
__dtrace_probe$12375___proc____exec__failure
__dtrace_probe$12388___vminfo____pgin
__dtrace_probe$123916___vminfo____execpgin
__dtrace_probe$124659___vminfo____softlock
__dtrace_probe$12601___boost____receive_boost
__dtrace_probe$12702___proc____kauth__id__resolver__submitted
__dtrace_probe$13004___vminfo____pgfrec
__dtrace_probe$13112___fsinfo____getattr
__dtrace_probe$132817___tcp____state__change
__dtrace_probe$133082___fsinfo____access
__dtrace_probe$133917___vminfo____execpgout
__dtrace_probe$13775___ip____send
__dtrace_probe$1396___io____journal__done
__dtrace_probe$143249___fsinfo____read
__dtrace_probe$143692___tcp____cc
__dtrace_probe$143918___vminfo____pgswapin
__dtrace_probe$1486___fsinfo____advlock__nowait
__dtrace_probe$153290___fsinfo____write
__dtrace_probe$153727___tcp____cc
__dtrace_probe$153919___vminfo____pgswapout
__dtrace_probe$1549___proc____signal__handle
__dtrace_probe$163351___fsinfo____ioctl
__dtrace_probe$163745___tcp____cc
__dtrace_probe$163920___vminfo____swapin
__dtrace_probe$1645___sdt____callout__cancel
__dtrace_probe$173389___fsinfo____select
__dtrace_probe$173837___tcp____state__change
__dtrace_probe$173921___vminfo____swapout
__dtrace_probe$1833___io____wait__done
__dtrace_probe$183423___fsinfo____exchange
__dtrace_probe$183480___vminfo____laundrythrottle
__dtrace_probe$1837___ip____receive
__dtrace_probe$183817___tcp____state__change
__dtrace_probe$1870___proc____lwp__create
__dtrace_probe$1872___tcp____cc
__dtrace_probe$1894___proc____create
__dtrace_probe$193458___fsinfo____revoke
__dtrace_probe$193474___tcp____cc
__dtrace_probe$193510___vminfo____laundrythrottle
__dtrace_probe$1938___sched____iwakeup
__dtrace_probe$1995___sdt____thread_callout__cancel
__dtrace_probe$203489___fsinfo____mmap
__dtrace_probe$203576___tcp____cc
__dtrace_probe$205994___vminfo____pgrec
__dtrace_probe$21051___sched____sleep
__dtrace_probe$21072___tcp____state__change
__dtrace_probe$21212___sdt____thread_callout__start
__dtrace_probe$21244___io____start
__dtrace_probe$213518___fsinfo____mnomap
__dtrace_probe$213528___tcp____cc
__dtrace_probe$21468___tcp____receive
__dtrace_probe$216002___vminfo____anonpgout
__dtrace_probe$21983___tcp____send
__dtrace_probe$22051___proc____signal__send
__dtrace_probe$22088___vminfo____scan
__dtrace_probe$22096___proc____exec__success
__dtrace_probe$223549___fsinfo____fsync
__dtrace_probe$22358___proc____spawn__success
__dtrace_probe$223607___tcp____cc
__dtrace_probe$22389___vminfo____maj_fault
__dtrace_probe$226004___vminfo____fspgout
__dtrace_probe$22666___boost____drop_boost
__dtrace_probe$22706___proc____kauth__id__resolver__returned
__dtrace_probe$23142___fsinfo____setattr
__dtrace_probe$233585___fsinfo____remove
__dtrace_probe$233590___tcp____cc
__dtrace_probe$236191___vminfo____pgpgout
__dtrace_probe$243625___fsinfo____compound_remove
__dtrace_probe$244133___tcp____state__change
__dtrace_probe$253623___fsinfo____compound_remove
__dtrace_probe$254143___tcp____state__change
__dtrace_probe$2579___proc____fault
__dtrace_probe$263625___fsinfo____compound_remove
__dtrace_probe$264156___tcp____state__change
__dtrace_probe$273704___fsinfo____link
__dtrace_probe$274922___tcp____cc
__dtrace_probe$2777___sdt____callout__start
__dtrace_probe$284058___fsinfo____compound_rename
__dtrace_probe$285260___tcp____cc
__dtrace_probe$293988___fsinfo____rename
__dtrace_probe$295260___tcp____cc
__dtrace_probe$304164___fsinfo____mkdir
__dtrace_probe$31218___sdt____thread_callout__end
__dtrace_probe$31252___io____start
__dtrace_probe$314201___fsinfo____compound_mkdir
__dtrace_probe$32069___tcp____state__change
__dtrace_probe$32098___proc____start
__dtrace_probe$32125___tcp____cc
__dtrace_probe$32316___sched____off__cpu
__dtrace_probe$32377___proc____exec__success
__dtrace_probe$32393___vminfo____anonpgin
__dtrace_probe$324164___fsinfo____mkdir
__dtrace_probe$32665___vminfo____pgout
__dtrace_probe$32668___boost____drop_internal_boost
__dtrace_probe$32713___proc____fault
__dtrace_probe$32773___fsinfo____lookup
__dtrace_probe$33080___proc____kauth__group__resolver__submitted
__dtrace_probe$334311___fsinfo____compound_rmdir
__dtrace_probe$344268___fsinfo____rmdir
__dtrace_probe$354508___fsinfo____symlink
__dtrace_probe$3586___proc____signal__handle
__dtrace_probe$364560___fsinfo____readdir
__dtrace_probe$374608___fsinfo____readdirattr
__dtrace_probe$3788___sdt____callout__end
__dtrace_probe$384661___fsinfo____readlink
__dtrace_probe$3935___tcp____state__change
__dtrace_probe$394689___fsinfo____inactive
__dtrace_probe$404732___fsinfo____reclaim
__dtrace_probe$41284___io____start
__dtrace_probe$414772___fsinfo____pathconf
__dtrace_probe$41971___proc____create
__dtrace_probe$42100___proc____lwp__start
__dtrace_probe$42249___vminfo____dfree
__dtrace_probe$42323___sched____on__cpu
__dtrace_probe$42357___tcp____cc
__dtrace_probe$42396___vminfo____fspgin
__dtrace_probe$424830___fsinfo____advlock
__dtrace_probe$42696___boost____receive_boost
__dtrace_probe$42721___proc____signal__handle
__dtrace_probe$42831___fsinfo____compound_open
__dtrace_probe$43084___proc____kauth__group__resolver__returned
__dtrace_probe$43269___tcp____state__change
__dtrace_probe$434870___fsinfo____allocate
__dtrace_probe$444913___fsinfo____pagein
__dtrace_probe$454952___fsinfo____pageout
__dtrace_probe$465017___fsinfo____searchfs
__dtrace_probe$475057___fsinfo____copyfile
__dtrace_probe$485076___fsinfo____getxattr
__dtrace_probe$495095___fsinfo____setxattr
__dtrace_probe$505118___fsinfo____removexattr
__dtrace_probe$51260___io____start
__dtrace_probe$515139___fsinfo____listxattr
__dtrace_probe$51632___proc____spawn__fd__failure
__dtrace_probe$52252___vminfo____anonfree
__dtrace_probe$52352___tcp____cc
__dtrace_probe$52430___sched____off__cpu
__dtrace_probe$52462___boost____boost
__dtrace_probe$525170___fsinfo____blktooff
__dtrace_probe$52833___fsinfo____compound_open
__dtrace_probe$53068___proc____kauth__group__cache__hit
__dtrace_probe$535200___fsinfo____offtoblk
__dtrace_probe$545244___fsinfo____blockmap
__dtrace_probe$555281___fsinfo____strategy
__dtrace_probe$565300___fsinfo____bwrite
__dtrace_probe$5712___vminfo____zfod
__dtrace_probe$575324___fsinfo____kqfilt_add
__dtrace_probe$585349___fsinfo____kqfilt_remove
__dtrace_probe$595368___fsinfo____monitor
__dtrace_probe$605393___fsinfo____setlabel
__dtrace_probe$61267___io____start
__dtrace_probe$615418___fsinfo____getnamedstream
__dtrace_probe$61630___proc____spawn__open__failure
__dtrace_probe$62254___vminfo____fsfree
__dtrace_probe$62371___tcp____cc
__dtrace_probe$62444___sched____on__cpu
__dtrace_probe$62464___boost____unboost
__dtrace_probe$62524___vminfo____pgin
__dtrace_probe$625439___fsinfo____makenamedstream
__dtrace_probe$62836___fsinfo____compound_open
__dtrace_probe$635461___fsinfo____removenamedstream
__dtrace_probe$71466___proc____spawn__port__failure
__dtrace_probe$72527___vminfo____anonpgin
__dtrace_probe$72824___sched____on__cpu
__dtrace_probe$73112___fsinfo____getattr
__dtrace_probe$73453___vminfo____laundrythrottle
__dtrace_probe$73638___tcp____cc
__dtrace_probe$73884___io____done
__dtrace_probe$81199___proc____exec
__dtrace_probe$82530___vminfo____fspgin
__dtrace_probe$82895___fsinfo____create
__dtrace_probe$83274___tcp____state__change
__dtrace_probe$83456___vminfo____laundryunthrottle
__dtrace_probe$83779___io____wait__start
__dtrace_probe$92541___vminfo____as_fault
__dtrace_probe$92585___proc____exec__failure
__dtrace_probe$92802___vminfo____pgrrun
__dtrace_probe$92847___tcp____state__change
__dtrace_probe$92941___fsinfo____whiteout
__dtrace_probe$93781___io____wait__done
__dtrace_register_anon_DOF
__enable_preemption
__enable_preemption_no_check
__flushq
__flushq_flow
__get_cpu_capabilities
__getq
__getq_all
__getq_flow
__getq_random
__getq_tail
__giDebugLogDataInternal
__giDebugLogInternal
__giDebugReserved1
__giDebugReserved2
__intr_0x20
__intr_0x21
__intr_0x22
__intr_0x23
__intr_0x24
__intr_0x25
__intr_0x26
__intr_0x27
__intr_0x28
__intr_0x29
__intr_0x2a
__intr_0x2b
__intr_0x2c
__intr_0x2d
__intr_0x2e
__intr_0x2f
__intr_0x30
__intr_0x31
__intr_0x32
__intr_0x33
__intr_0x34
__intr_0x35
__intr_0x36
__intr_0x37
__intr_0x38
__intr_0x39
__intr_0x3a
__intr_0x3b
__intr_0x3c
__intr_0x3d
__intr_0x3e
__intr_0x3f
__intr_0x40
__intr_0x41
__intr_0x42
__intr_0x43
__intr_0x44
__intr_0x45
__intr_0x46
__intr_0x47
__intr_0x48
__intr_0x49
__intr_0x4a
__intr_0x4b
__intr_0x4c
__intr_0x4d
__intr_0x4e
__intr_0x4f
__intr_0x50
__intr_0x51
__intr_0x52
__intr_0x53
__intr_0x54
__intr_0x55
__intr_0x56
__intr_0x57
__intr_0x58
__intr_0x59
__intr_0x5a
__intr_0x5b
__intr_0x5c
__intr_0x5d
__intr_0x5e
__intr_0x5f
__intr_0x60
__intr_0x61
__intr_0x62
__intr_0x63
__intr_0x64
__intr_0x65
__intr_0x66
__intr_0x67
__intr_0x68
__intr_0x69
__intr_0x6a
__intr_0x6b
__intr_0x6c
__intr_0x6d
__intr_0x6e
__intr_0x6f
__intr_0x70
__intr_0x71
__intr_0x72
__intr_0x73
__intr_0x74
__intr_0x75
__intr_0x76
__intr_0x77
__intr_0x78
__intr_0x79
__intr_0x7a
__intr_0x7b
__intr_0x7c
__intr_0x7d
__intr_0x7e
__intr_0x83
__intr_0x84
__intr_0x85
__intr_0x86
__intr_0x87
__intr_0x88
__intr_0x89
__intr_0x8a
__intr_0x8b
__intr_0x8c
__intr_0x8d
__intr_0x8e
__intr_0x8f
__intr_0x90
__intr_0x91
__intr_0x92
__intr_0x93
__intr_0x94
__intr_0x95
__intr_0x96
__intr_0x97
__intr_0x98
__intr_0x99
__intr_0x9a
__intr_0x9b
__intr_0x9c
__intr_0x9d
__intr_0x9e
__intr_0x9f
__intr_0xa0
__intr_0xa1
__intr_0xa2
__intr_0xa3
__intr_0xa4
__intr_0xa5
__intr_0xa6
__intr_0xa7
__intr_0xa8
__intr_0xa9
__intr_0xaa
__intr_0xab
__intr_0xac
__intr_0xad
__intr_0xae
__intr_0xaf
__intr_0xb0
__intr_0xb1
__intr_0xb2
__intr_0xb3
__intr_0xb4
__intr_0xb5
__intr_0xb6
__intr_0xb7
__intr_0xb8
__intr_0xb9
__intr_0xba
__intr_0xbb
__intr_0xbc
__intr_0xbd
__intr_0xbe
__intr_0xbf
__intr_0xc0
__intr_0xc1
__intr_0xc2
__intr_0xc3
__intr_0xc4
__intr_0xc5
__intr_0xc6
__intr_0xc7
__intr_0xc8
__intr_0xc9
__intr_0xca
__intr_0xcb
__intr_0xcc
__intr_0xcd
__intr_0xce
__intr_0xcf
__intr_0xd0
__intr_0xd1
__intr_0xd2
__intr_0xd3
__intr_0xd4
__intr_0xd5
__intr_0xd6
__intr_0xd7
__intr_0xd8
__intr_0xd9
__intr_0xda
__intr_0xdb
__intr_0xdc
__intr_0xdd
__intr_0xde
__intr_0xdf
__intr_0xe0
__intr_0xe1
__intr_0xe2
__intr_0xe3
__intr_0xe4
__intr_0xe5
__intr_0xe6
__intr_0xe7
__intr_0xe8
__intr_0xe9
__intr_0xea
__intr_0xeb
__intr_0xec
__intr_0xed
__intr_0xee
__intr_0xef
__intr_0xf0
__intr_0xf1
__intr_0xf2
__intr_0xf3
__intr_0xf4
__intr_0xf5
__intr_0xf6
__intr_0xf7
__intr_0xf8
__intr_0xf9
__intr_0xfa
__intr_0xfb
__intr_0xfc
__intr_0xfd
__intr_0xfe
__kernelrpc_mach_port_allocate_trap
__kernelrpc_mach_port_construct_trap
__kernelrpc_mach_port_deallocate_trap
__kernelrpc_mach_port_destroy_trap
__kernelrpc_mach_port_destruct_trap
__kernelrpc_mach_port_extract_member_trap
__kernelrpc_mach_port_guard_trap
__kernelrpc_mach_port_insert_member_trap
__kernelrpc_mach_port_insert_right_trap
__kernelrpc_mach_port_mod_refs_trap
__kernelrpc_mach_port_move_member_trap
__kernelrpc_mach_port_unguard_trap
__kernelrpc_mach_vm_allocate_trap
__kernelrpc_mach_vm_deallocate_trap
__kernelrpc_mach_vm_map_trap
__kernelrpc_mach_vm_protect_trap
__length_code
__lockstat_open
__mach_make_memory_entry
__map_enter_debug
__max_linkhdr
__max_protohdr
__mh_execute_header
__mp_disable_preemption
__mp_enable_preemption
__mp_enable_preemption_no_check
__osrelease
__ostype
__pal_efi_call_in_32bit_mode_asm
__pal_efi_call_in_64bit_mode_asm
__pal_rtc_nanotime_store
__printf
__profile_open
__qinit
__removeq
__rtc_nanotime_adjust
__rtc_nanotime_read
__rtc_tsc_to_nanoseconds
__sdt_open
__serial_getc
__shared_region_map_and_slide
__start
__systrace_open
__throttle_io_info
__tr_align
__tr_flush_block
__tr_init
__tr_stored_block
__tr_tally
__version
__version_major
__version_minor
__version_variant
__vm_external_state_get
__vm_map_store_entry_link
__vm_map_store_entry_unlink
__vm_object_lock_try
_abort_panic_transfer
_absolutetime_to_microtime
_absolutetime_to_nanoseconds
_absolutetime_to_nanotime
_accept
_accept_nocancel
_access
_access_extended
_acct
_acct_process
_acctchkfreq
_acctp
_acctresume
_acctsuspend
_acctwatch
_acctwatch_funnel
_acknowledgeSleepWakeNotification
_acpi_idle_kernel
_acpi_install_wake_handler
_acpi_sleep_cpu
_acpi_sleep_kernel
_acpi_wake_prot
_acpi_wake_prot_entry
_act_abort
_act_execute_returnhandlers
_act_get_state
_act_machine_switch_pcb
_act_set_apc
_act_set_astbsd
_act_set_astmacf
_act_set_kperf
_act_set_state
_act_set_state_from_user
_act_thread_catt
_act_thread_cfree
_act_thread_csave
_active_debugger
_active_rt_threads
_add_blocks
_add_fsevent
_add_to_time_wait
_addrsel_policy_init
_addrsel_policytab
_addupc_task
_adjtime
_adjust_vm_object_cache
_adler32
_adler32_combine
_adr
_advisory_read
_advisory_read_ext
_aes_decrypt
_aes_decrypt_cbc
_aes_decrypt_key
_aes_decrypt_key128
_aes_decrypt_key256
_aes_encrypt
_aes_encrypt_cbc
_aes_encrypt_key
_aes_encrypt_key128
_aes_encrypt_key256
_affinity_sets_enabled
_affinity_sets_mapping
_age_is_stale
_age_of_decompressions_during_sample_period
_ah4_calccksum
_ah4_input
_ah4_output
_ah6_calccksum
_ah6_ctlinput
_ah6_input
_ah6_output
_ah_algorithm_lookup
_ah_hdrlen
_ah_hdrsiz
_aio_cancel
_aio_error
_aio_fsync
_aio_max_requests
_aio_max_requests_per_process
_aio_read
_aio_return
_aio_suspend
_aio_suspend_nocancel
_aio_worker_threads
_aio_write
_all_zones_lock
_alllctx_lock
_alloc_io_buf
_alloc_ptepages_count
_allocate_storage_unit
_allocbuf
_allow_data_exec
_allow_stack_exec
_allowed_increase
_allproc
_always_do_fullfsync
_apic_table
_appleClut8
_apple_protect_pager_bootstrap
_apple_protect_pager_cache_limit
_apple_protect_pager_count
_apple_protect_pager_count_mapped
_apple_protect_pager_count_max
_apple_protect_pager_count_unmapped_max
_apple_protect_pager_create
_apple_protect_pager_data_initialize
_apple_protect_pager_data_request
_apple_protect_pager_data_return
_apple_protect_pager_data_unlock
_apple_protect_pager_deallocate
_apple_protect_pager_deallocate_internal
_apple_protect_pager_dequeue
_apple_protect_pager_init
_apple_protect_pager_last_unmap
_apple_protect_pager_lck_attr
_apple_protect_pager_lck_grp
_apple_protect_pager_lck_grp_attr
_apple_protect_pager_lock
_apple_protect_pager_lookup
_apple_protect_pager_map
_apple_protect_pager_num_trim_max
_apple_protect_pager_num_trim_total
_apple_protect_pager_ops
_apple_protect_pager_queue
_apple_protect_pager_reference
_apple_protect_pager_setup
_apple_protect_pager_synchronize
_apple_protect_pager_terminate
_apple_protect_pager_terminate_internal
_apple_protect_pager_trim
_apply_func_phys
_arp_ifinit
_arp_init
_arp_ip_handle_input
_arp_llreach_set_reachable
_arp_lookup_ip
_arpstat
_assembly_probes
_assert_wait
_assert_wait_deadline
_assert_wait_deadline_with_leeway
_assert_wait_possible
_assert_wait_timeout
_assert_wait_timeout_with_leeway
_ast_check
_ast_init
_ast_pending
_ast_taken
_astbsd_on
_async_work_handled
_async_work_timed_out
_async_work_vnodes
_atoi
_atoi_term
_au_bsm_to_domain
_au_bsm_to_errno
_au_bsm_to_fcntl_cmd
_au_bsm_to_socket_type
_au_domain_to_bsm
_au_errno_to_bsm
_au_evclassmap_init
_au_evclassmap_insert
_au_event_class
_au_fcntl_cmd_to_bsm
_au_preselect
_au_socket_type_to_bsm
_au_to_arg
_au_to_arg32
_au_to_arg64
_au_to_attr
_au_to_attr32
_au_to_attr64
_au_to_data
_au_to_exec_args
_au_to_exec_env
_au_to_exit
_au_to_file
_au_to_groups
_au_to_header32_ex_tm
_au_to_header32_tm
_au_to_header64_tm
_au_to_in_addr
_au_to_in_addr_ex
_au_to_ip
_au_to_ipc
_au_to_ipc_perm
_au_to_iport
_au_to_newgroups
_au_to_opaque
_au_to_path
_au_to_process
_au_to_process32
_au_to_process32_ex
_au_to_process64
_au_to_process64_ex
_au_to_process_ex
_au_to_return
_au_to_return32
_au_to_return64
_au_to_seq
_au_to_sock_inet
_au_to_sock_inet128
_au_to_sock_inet32
_au_to_sock_unix
_au_to_socket_ex
_au_to_subject
_au_to_subject32
_au_to_subject32_ex
_au_to_subject64
_au_to_subject64_ex
_au_to_subject_ex
_au_to_text
_au_to_trailer
_audio_active
_audit
_audit_M_AUDITBSM
_audit_M_AUDITDATA
_audit_M_AUDITPATH
_audit_M_AUDITTEXT
_audit_M_AU_SESSION
_audit_arg_addr
_audit_arg_argv
_audit_arg_auditinfo
_audit_arg_auditinfo_addr
_audit_arg_auditon
_audit_arg_auid
_audit_arg_cmd
_audit_arg_ctlname
_audit_arg_data
_audit_arg_egid
_audit_arg_envv
_audit_arg_euid
_audit_arg_exit
_audit_arg_fd
_audit_arg_fflags
_audit_arg_file
_audit_arg_gid
_audit_arg_groupset
_audit_arg_len
_audit_arg_login
_audit_arg_mac_string
_audit_arg_mach_port1
_audit_arg_mach_port2
_audit_arg_mask
_audit_arg_mode
_audit_arg_opaque
_audit_arg_owner
_audit_arg_pid
_audit_arg_posix_ipc_perm
_audit_arg_process
_audit_arg_rgid
_audit_arg_ruid
_audit_arg_sgid
_audit_arg_signum
_audit_arg_sockaddr
_audit_arg_socket
_audit_arg_suid
_audit_arg_svipc_addr
_audit_arg_svipc_cmd
_audit_arg_svipc_id
_audit_arg_svipc_perm
_audit_arg_text
_audit_arg_uid
_audit_arg_upath
_audit_arg_value32
_audit_arg_value64
_audit_arg_vnpath
_audit_arg_vnpath_withref
_audit_arge
_audit_argv
_audit_canon_path
_audit_commit
_audit_ctlname_to_sysctlevent
_audit_default_aia_p
_audit_drain_cv
_audit_enabled
_audit_fail_stop
_audit_fcntl_command_event
_audit_flags_and_error_to_openevent
_audit_flags_and_error_to_openextendedevent
_audit_free
_audit_fstat
_audit_get_kinfo
_audit_in_failure
_audit_init
_audit_kevent_mask
_audit_mac_data
_audit_mac_free
_audit_mac_init
_audit_mac_label_zone
_audit_mac_new
_audit_mac_syscall_enter
_audit_mac_syscall_exit
_audit_mach_syscall_enter
_audit_mach_syscall_exit
_audit_msgctl_to_event
_audit_mtx
_audit_nae_mask
_audit_new
_audit_panic_on_write_fail
_audit_pipe_init
_audit_pipe_preselect
_audit_pipe_shutdown
_audit_pipe_submit
_audit_pipe_submit_user
_audit_pre_q_len
_audit_proc_coredump
_audit_q
_audit_q_len
_audit_qctrl
_audit_rotate_vnode
_audit_sdev_submit
_audit_semctl_to_event
_audit_send_trigger
_audit_session_aiaref
_audit_session_aiaunref
_audit_session_init
_audit_session_join
_audit_session_lookup
_audit_session_mksend
_audit_session_nosenders
_audit_session_port
_audit_session_portdestroy
_audit_session_porttoaia
_audit_session_procexit
_audit_session_procnew
_audit_session_ref
_audit_session_self
_audit_session_setaia
_audit_session_spawnjoin
_audit_session_unref
_audit_set_kinfo
_audit_shutdown
_audit_suspended
_audit_syscall_enter
_audit_syscall_exit
_audit_syscalls
_audit_sysclose
_audit_triggers
_audit_watermark_cv
_audit_worker_cv
_audit_worker_init
_auditctl
_auditon
_auditon_command_event
_avail_end
_avail_start
_available_for_purge
_avenrun
_averunnable
_b_sum16
_b_to_q
_backing_store_abort_compaction
_backing_store_add
_backing_store_alloc
_backing_store_list
_backing_store_lookup
_backing_store_release_trigger_disable
_backing_store_stop_compaction
_badport_bandlim
_bcd2bin_data
_bcleanbuf
_bcmp
_bcopy
_bcopy_no_overwrite
_bcopy_phys
_bdevsw
_bdevsw_add
_bdevsw_isfree
_bdevsw_remove
_bdevvp
_bg_nkdbufs
_bg_quantum
_bg_quantum_us
_bg_ss_fltsz
_bin2bcd_data
_bind
_bit_lock
_bit_lock_try
_bit_unlock
_blank_sin
_blaundrycnt
_blist_alloc
_blist_create
_blist_destroy
_blist_free
_blist_resize
_blkclr
_boot
_boot_wait_queue
_bootcache_contains_block
_boothowto
_bootprofile_all_procs
_bootprofile_buffer
_bootprofile_buffer_current_position
_bootprofile_buffer_size
_bootprofile_gather
_bootprofile_init
_bootprofile_interval_abs
_bootprofile_interval_ms
_bootprofile_lck_grp
_bootprofile_mtx
_bootprofile_next_deadline
_bootprofile_proc_name
_bootsessionuuid_string
_bootstrap_wired_pages
_boottime_sec
_bpf_attach
_bpf_filter
_bpf_init
_bpf_tap_in
_bpf_tap_out
_bpf_validate
_bpfattach
_bpfclose
_bpfdetach
_bpfioctl
_bpfkqfilter
_bpfopen
_bpfread
_bpfselect
_bpfwrite
_break_kprintf
_bs_commit
_bs_get_global_clsize
_bs_global_info
_bs_initialize
_bs_low
_bs_more_space
_bs_no_paging_space
_bs_port_table
_bs_set_default_clsize
_bsd_ast
_bsd_autoconf
_bsd_bufferinit
_bsd_exception
_bsd_exec_setup
_bsd_getthreadname
_bsd_hostname
_bsd_init
_bsd_init_task
_bsd_log_init
_bsd_log_lock
_bsd_log_spinlock
_bsd_log_unlock
_bsd_mbuf_cluster_reserve
_bsd_pageable_map
_bsd_scale_setup
_bsd_set_dependency_capable
_bsd_startupearly
_bsd_threadcdir
_bsd_timeout
_bsd_untimeout
_bsd_uprofil
_bsd_utaskbootstrap
_bsdinit_task
_bsdthread_create
_bsdthread_register
_bsdthread_terminate
_bsm_rec_verify
_bstp_etheraddr
_btlog_add_entry
_btlog_create
_btlog_remove_entries_for_element
_btree_swap_node
_buf_acquire
_buf_alloc
_buf_attr
_buf_bawrite
_buf_bdwrite
_buf_biodone
_buf_biowait
_buf_blkno
_buf_bread
_buf_breadn
_buf_brelse
_buf_bwrite
_buf_callback
_buf_clear
_buf_clear_redundancy_flags
_buf_clearflags
_buf_clone
_buf_count
_buf_create_shadow
_buf_create_shadow_priv
_buf_dataptr
_buf_device
_buf_dirtyend
_buf_dirtyoff
_buf_drop
_buf_drvdata
_buf_error
_buf_flags
_buf_flushdirtyblks
_buf_flushdirtyblks_skipinfo
_buf_free
_buf_fromcache
_buf_fsprivate
_buf_fua
_buf_getblk
_buf_geteblk
_buf_headers
_buf_invalblkno
_buf_invalidateblks
_buf_iterate
_buf_kernel_addrperm
_buf_kernel_addrperm_addr
_buf_lblkno
_buf_list_lock
_buf_list_unlock
_buf_map
_buf_markaged
_buf_markclean
_buf_markdelayed
_buf_markeintr
_buf_markfua
_buf_markinvalid
_buf_markstatic
_buf_meta_bread
_buf_meta_breadn
_buf_proc
_buf_rcred
_buf_redundancy_flags
_buf_reset
_buf_resid
_buf_set_redundancy_flags
_buf_setblkno
_buf_setcallback
_buf_setcount
_buf_setdataptr
_buf_setdevice
_buf_setdirtyend
_buf_setdirtyoff
_buf_setdrvdata
_buf_seterror
_buf_setfilter
_buf_setflags
_buf_setfsprivate
_buf_setlblkno
_buf_setresid
_buf_setsize
_buf_setupl
_buf_setvnode
_buf_shadow
_buf_size
_buf_static
_buf_strategy
_buf_unmap
_buf_upl
_buf_uploffset
_buf_valid
_buf_vnode
_buf_wait_for_shadow_io
_buf_wcred
_bufattr_alloc
_bufattr_cpaddr
_bufattr_cpoff
_bufattr_delayidlesleep
_bufattr_free
_bufattr_greedymode
_bufattr_markgreedymode
_bufattr_markquickcomplete
_bufattr_meta
_bufattr_nocache
_bufattr_quickcomplete
_bufattr_rawencrypted
_bufattr_setcpaddr
_bufattr_setcpoff
_bufattr_throttled
_buffer_map
_bufferhdr_map
_bufhash
_bufhashtbl
_bufstats
_build_path
_bus2tsc
_busFCvtn2t
_busFCvtt2n
_busFreq
_bzero
_bzero_phys
_bzero_phys_nc
_c_age_count
_c_age_list_head
_c_compressor_swap_trigger
_c_decompressor_lock
_c_free_segno_head
_c_generation_id
_c_generation_id_flush_barrier
_c_list_lock
_c_master_lock
_c_minor_count
_c_minor_list_head
_c_seg_do_minor_compaction_and_unlock
_c_seg_free
_c_seg_free_locked
_c_seg_insert_into_q
_c_seg_major_compact
_c_seg_major_compact_ok
_c_seg_major_compact_stats
_c_seg_minor_compaction_and_unlock
_c_seg_move_to_sparse_list
_c_seg_moved_to_sparse_list
_c_seg_need_delayed_compaction
_c_seg_swapin
_c_seg_swapin_requeue
_c_seg_trim_page_count
_c_seg_trim_tail
_c_seg_try_free
_c_seg_try_minor_compaction_and_unlock
_c_seg_wait_on_busy
_c_segment_compressed_bytes
_c_segment_count
_c_segment_input_bytes
_c_segment_pages_compressed
_c_segment_pages_compressed_limit
_c_segment_warmup_count
_c_segments
_c_segments_available
_c_segments_busy
_c_segments_limit
_c_segments_next_page
_c_swapout_count
_c_swapout_list_head
_c_swappedin_count
_c_swappedin_list_head
_c_swappedout_count
_c_swappedout_list_head
_c_swappedout_sparse_count
_c_swappedout_sparse_list_head
_c_thr_exc_raise
_c_thr_exc_raise_state
_c_thr_exc_raise_state_id
_c_tsk_exc_raise
_c_tsk_exc_raise_state
_c_tsk_exc_raise_state_id
_c_vm_page_grab_fictitious
_c_vm_page_grab_fictitious_failed
_c_vm_page_more_fictitious
_c_vm_page_release_fictitious
_cache_enter
_cache_enter_create
_cache_enter_with_gen
_cache_flush_page_phys
_cache_lookup
_cache_lookup_path
_cache_purge
_cache_purge_negatives
_cache_purgevfs
_calcru
_calculate_tcp_clock
_calend_getattr
_calend_gettime
_calend_ops
_call_continuation
_callout
_calls_since_last_considered
_can_update_priority
_cansignal
_cantrace
_cast128_decrypt_round12
_cast128_decrypt_round16
_cast128_encrypt_round12
_cast128_encrypt_round16
_cat_acquire_cnid
_cat_binarykeycompare
_cat_check_idhash
_cat_create
_cat_createlink
_cat_delete
_cat_deletelink
_cat_findname
_cat_getdirentries
_cat_getentriesattr
_cat_getkeyplusattr
_cat_idlookup
_cat_insert_idhash
_cat_insertfilethread
_cat_lookup
_cat_lookup_dirlink
_cat_lookup_lastlink
_cat_lookup_siblinglinks
_cat_lookuplink
_cat_lookupmangled
_cat_postflight
_cat_preflight
_cat_remove_idhash
_cat_rename
_cat_resolvelink
_cat_update
_cat_update_dirlink
_cat_update_siblinglinks
_catch_exc_subsystem
_catch_exception_raise
_catch_exception_raise_state
_catch_exception_raise_state_identity
_catch_mach_exc_subsystem
_catch_mach_exception_raise
_catch_mach_exception_raise_state
_catch_mach_exception_raise_state_identity
_catq
_cause_ast_check
_cdevsw
_cdevsw_add
_cdevsw_add_with_bdev
_cdevsw_flags
_cdevsw_isfree
_cdevsw_remove
_cdevsw_setkqueueok
_cfree
_cfreecount
_cfreelist
_change_fdguard_np
_chash_lck_attr
_chash_lck_grp
_chash_lck_grp_attr
_chdir
_check_actforsig
_check_for_dataless_file
_check_for_tasksuspend
_check_for_tracked_file
_check_mountedon
_check_policy_init
_check_task_access
_chflags
_chgproccnt
_chkvnlock
_chmod
_chmod_extended
_choose_processor
_choose_thread
_chown
_chroot
_chrtoblk
_chrtoblk_set
_chud
_chud_null_dtrace
_chudxnu_cpu_alloc
_chudxnu_cpu_free
_chudxnu_dtrace_callback
_chudxnu_get_thread_bits
_chudxnu_platform_ptr
_chudxnu_set_thread_ast
_chudxnu_set_thread_bits
_chudxnu_thread_ast
_chudxnu_thread_ast_handler
_chudxnu_thread_get_dirty
_chudxnu_thread_set_dirty
_cinit
_ciq
_cjk_encoding
_cjk_lastunique
_clalloc
_classq_init
_classq_verbose
_clear_fpu
_clear_procsiglist
_clear_wait
_clfree
_clock_absolutetime_interval_to_deadline
_clock_adjtime
_clock_alarm
_clock_alarm_reply
_clock_config
_clock_count
_clock_deadline_for_periodic_event
_clock_delay_until
_clock_get_attributes
_clock_get_boottime_nanotime
_clock_get_calendar_absolute_and_microtime
_clock_get_calendar_microtime
_clock_get_calendar_nanotime
_clock_get_calendar_nanotime_nowait
_clock_get_system_microtime
_clock_get_system_nanotime
_clock_get_time
_clock_get_uptime
_clock_gettimeofday
_clock_gettimeofday_set_commpage
_clock_init
_clock_initialize_calendar
_clock_interval_to_absolutetime_interval
_clock_interval_to_deadline
_clock_list
_clock_lock
_clock_oldconfig
_clock_oldinit
_clock_priv_server
_clock_priv_server_routine
_clock_priv_subsystem
_clock_server
_clock_server_routine
_clock_service_create
_clock_set_attributes
_clock_set_calendar_microtime
_clock_set_time
_clock_sleep_trap
_clock_subsystem
_clock_timebase_info
_clock_timebase_init
_clock_wakeup_calendar
_cloneproc
_close
_close_internal_locked
_close_nocancel
_closef_locked
_clrbit
_clrbits
_cluster_bp
_cluster_bp_ext
_cluster_copy_ubc_data
_cluster_copy_upl_data
_cluster_init
_cluster_max_io_size
_cluster_pagein
_cluster_pagein_ext
_cluster_pageout
_cluster_pageout_ext
_cluster_push
_cluster_push_ext
_cluster_read
_cluster_read_ext
_cluster_throttle_io_limit
_cluster_transfer_minimum
_cluster_write
_cluster_write_ext
_cluster_zero
_clustered_reads
_clustered_writes
_clusters_available
_clusters_committed
_clusters_committed_peak
_cmask
_cmn_err
_cnclose
_cngetc
_cnioctl
_cnmaygetc
_cnopen
_cnputc
_cnputc_lock
_cnputc_unbuffered
_cnputcusr
_cnread
_cnselect
_cnwrite
_coalesc_sz
_coalesc_time
_collectth_state
_collision_backoffs
_commPagePtr32
_commPagePtr64
_commPageTextPtr32
_commPageTextPtr64
_commpage32_entry
_commpage32_handle
_commpage32_map
_commpage64_entry
_commpage64_handle
_commpage64_map
_commpage_32_routines
_commpage_64_routines
_commpage_disable_timestamp
_commpage_is_in_pfz32
_commpage_is_in_pfz64
_commpage_populate
_commpage_sched_gen_inc
_commpage_set_memory_pressure
_commpage_set_nanotime
_commpage_set_spin_count
_commpage_set_timestamp
_commpage_text32_entry
_commpage_text32_handle
_commpage_text32_location
_commpage_text32_map
_commpage_text64_entry
_commpage_text64_handle
_commpage_text64_location
_commpage_text64_map
_commpage_text_populate
_commpage_update_active_cpus
_comp_add_data
_comp_end
_comp_get_ratio
_comp_init
_compaction_swap_trigger_thread_awakened
_compaction_swapper_abort
_compaction_swapper_running
_compress
_compress2
_compressBound
_compressor_bytes_used
_compressor_cpus
_compressor_eval_period_in_msecs
_compressor_memory_object_create
_compressor_memory_object_data_initialize
_compressor_memory_object_data_reclaim
_compressor_memory_object_data_request
_compressor_memory_object_data_return
_compressor_memory_object_data_unlock
_compressor_memory_object_deallocate
_compressor_memory_object_init
_compressor_memory_object_last_unmap
_compressor_memory_object_map
_compressor_memory_object_reference
_compressor_memory_object_synchronize
_compressor_memory_object_terminate
_compressor_object
_compressor_object_lck_attr
_compressor_pager_lck_attr
_compressor_pager_lck_grp
_compressor_pager_lck_grp_attr
_compressor_pager_ops
_compressor_pager_slot_lookup
_compressor_pager_slots_chunk_free
_compressor_pager_stats
_compressor_pager_zone
_compressor_sample_max_in_msecs
_compressor_sample_min_in_msecs
_compressor_scratch_bufs
_compressor_segment_zone
_compressor_store_stop_compaction
_compressor_thrashing_min_per_10msecs
_compressor_thrashing_threshold_per_10msecs
_compute_averages
_compute_averunnable
_compute_iaj
_compute_memory_pressure
_compute_my_priority
_compute_pageout_gc_throttle
_compute_pmap_gc_throttle
_compute_priority
_compute_stack_target
_compute_swapout_target_age
_compute_telemetry
_compute_zone_gc_throttle
_connect
_connect_nocancel
_connectx
_cons_cinput
_cons_ops
_cons_ops_index
_cons_putc_locked
_consdebug_log
_consdebug_putc
_consdebug_putc_unbuffered
_consider_buffer_cache_collect
_consider_machine_adjust
_consider_machine_collect
_consider_vm_pressure_events
_consider_zone_gc
_conslog_putc
_console_cpu_alloc
_console_cpu_free
_console_init
_console_is_serial
_console_set_serial_ops
_constty
_convert_clock_ctrl_to_port
_convert_clock_to_port
_convert_host_to_port
_convert_internal_pressure_level_to_dispatch_level
_convert_lock_set_to_port
_convert_memory_object_to_port
_convert_mig_object_to_port
_convert_mo_control_to_port
_convert_port_entry_to_map
_convert_port_entry_to_object
_convert_port_to_UNDReply
_convert_port_to_clock
_convert_port_to_clock_ctrl
_convert_port_to_host
_convert_port_to_host_priv
_convert_port_to_host_security
_convert_port_to_lock_set
_convert_port_to_locked_task
_convert_port_to_map
_convert_port_to_memory_object
_convert_port_to_mig_object
_convert_port_to_mo_control
_convert_port_to_processor
_convert_port_to_pset
_convert_port_to_pset_name
_convert_port_to_semaphore
_convert_port_to_space
_convert_port_to_task
_convert_port_to_task_name
_convert_port_to_task_suspension_token
_convert_port_to_thread
_convert_port_to_upl
_convert_processor_to_port
_convert_pset_name_to_port
_convert_pset_to_port
_convert_semaphore_to_port
_convert_task_name_to_port
_convert_task_suspension_token_to_port
_convert_task_to_port
_convert_thread_to_port
_convert_upl_to_port
_copy_debug_state32
_copy_debug_state64
_copyfile
_copyin
_copyin_user_iovec_array
_copyinmap
_copyinmsg
_copyinstr
_copyout
_copyoutmap
_copyoutmsg
_copyoutstr
_copypv
_copyright
_copystr
_copywithin
_coredump
_coredumpok
_corruption_debug_flag
_count_busy_buffers
_count_lock_queue
_cp_key_store_action
_cp_register_wraps
_cpm_allocate
_cpu_64bit
_cpu_NMI_interrupt
_cpu_PM_interrupt
_cpu_control
_cpu_core
_cpu_data_alloc
_cpu_data_ptr
_cpu_data_realloc
_cpu_desc_init64
_cpu_desc_load64
_cpu_exit_wait
_cpu_in_cksum
_cpu_info
_cpu_info_count
_cpu_init
_cpu_interrupt
_cpu_itime_bins
_cpu_list
_cpu_lock
_cpu_machine_init
_cpu_mode_init
_cpu_number
_cpu_pmc_control
_cpu_powerstats
_cpu_processor_alloc
_cpu_processor_free
_cpu_rtime_bins
_cpu_signal_handler
_cpu_sleep
_cpu_start
_cpu_subtype
_cpu_thread_alloc
_cpu_thread_halt
_cpu_thread_init
_cpu_threadtype
_cpu_to_lapic
_cpu_to_processor
_cpu_topology_sort
_cpu_topology_start_cpu
_cpu_type
_cpu_warm_call_arr
_cpu_warm_call_list
_cpudata_desc_pattern
_cpuid_cpu_display
_cpuid_cpufamily
_cpuid_cpusubtype
_cpuid_cputype
_cpuid_extfeature_display
_cpuid_extfeatures
_cpuid_family
_cpuid_feature_display
_cpuid_features
_cpuid_get_extfeature_names
_cpuid_get_feature_names
_cpuid_get_leaf7_feature_names
_cpuid_info
_cpuid_leaf7_features
_cpuid_set_info
_cpuid_vmm_family
_cpuid_vmm_info
_cpuid_vmm_present
_cpumon_ustackshots_trigger_pct
_crc32
_create_fsevent_from_kevent
_create_panic_header
_crgetgid
_crgetuid
_critical_threshold_percentage
_cs_all_vnodes
_cs_allow_invalid
_cs_blob_get
_cs_debug
_cs_enforcement
_cs_enforcement_enable
_cs_enforcement_panic
_cs_enter_tainted_accepted
_cs_enter_tainted_rejected
_cs_entitlements_blob_get
_cs_force_hard
_cs_force_kill
_cs_get_cdhash
_cs_identity_get
_cs_init
_cs_invalid_page
_cs_procs_invalidated
_cs_procs_killed
_cs_register_cscsr
_cs_validate_page
_cs_validate_page_bad_hash
_cs_validate_page_no_hash
_cs_validation
_csops
_csops_audittoken
_csw_check
_csw_check_locked
_cthread_stack_size
_ctl_deregister
_ctl_enqueuedata
_ctl_enqueuembuf
_ctl_getenqueuespace
_ctl_head
_ctl_id_by_name
_ctl_name_by_id
_ctl_register
_ctrace_record
_cttyioctl
_cttyopen
_cttyread
_cttyselect
_cttywrite
_currecord
_current_act
_current_debugger
_current_map
_current_proc
_current_proc_EXTERNAL
_current_processor
_current_rootdir
_current_task
_current_thread
_current_thread_aborted
_current_uthread
_current_workingdir
_cyclic_add
_cyclic_add_omni
_cyclic_remove
_cyclic_remove_omni
_cyclic_timer_add
_cyclic_timer_remove
_d_to_i
_dad6_mutex
_db_dumpiojunk
_db_piokjunk
_db_run_mode
_dcache_incoherent_io_flush64
_dcache_incoherent_io_store64
_ddi_create_minor_node
_ddi_driver_major
_ddi_get_soft_state
_ddi_getprop
_ddi_prop_free
_ddi_prop_lookup_int_array
_ddi_remove_minor_node
_ddi_report_dev
_ddi_soft_state_fini
_ddi_soft_state_free
_ddi_soft_state_init
_ddi_soft_state_zalloc
_dead_badop
_dead_blktooff
_dead_blockmap
_dead_ebadf
_dead_ioctl
_dead_lookup
_dead_mountp
_dead_offtoblk
_dead_open
_dead_read
_dead_sah_count
_dead_sav_count
_dead_select
_dead_strategy
_dead_task_statistics
_dead_task_statistics_lock
_dead_vnode_waited
_dead_vnode_wanted
_dead_vnodeop_entries
_dead_vnodeop_opv_desc
_dead_vnodeop_p
_dead_write
_deadvnodes
_debug_boot_arg
_debug_buf
_debug_buf_ptr
_debug_buf_size
_debug_container_malloc_size
_debug_enter
_debug_iomalloc_size
_debug_iomallocpageable_size
_debug_ivars_size
_debug_log_init
_debug_malloc_size
_debug_mode
_debug_putc
_debug_state_is_valid32
_debug_state_is_valid64
_debug_task
_debugger_entry_time
_debugger_exit_time
_debugger_ptep
_debugger_window_kva
_decmpfs_cnode_destroy
_decmpfs_cnode_get_vnode_cached_size
_decmpfs_cnode_get_vnode_state
_decmpfs_cnode_init
_decmpfs_cnode_set_vnode_state
_decmpfs_ctx
_decmpfs_decompress_file
_decmpfs_file_is_compressed
_decmpfs_free_compressed_data
_decmpfs_hides_rsrc
_decmpfs_hides_xattr
_decmpfs_init
_decmpfs_lock_compressed_data
_decmpfs_pagein_compressed
_decmpfs_read_compressed
_decmpfs_trylock_compressed_data
_decmpfs_unlock_compressed_data
_decmpfs_update_attributes
_decmpfs_validate_compressed_file
_decompress_lzss
_deep_idle_rebase
_def_tbuffer_size
_default_bg_preemption_rate
_default_pager
_default_pager_add_file
_default_pager_async_lock
_default_pager_backing_store_create
_default_pager_backing_store_delete
_default_pager_backing_store_delete_internal
_default_pager_backing_store_info
_default_pager_backing_store_monitor
_default_pager_backing_store_monitor_callout
_default_pager_clsize
_default_pager_default_set
_default_pager_external_count
_default_pager_external_set
_default_pager_info
_default_pager_info_64
_default_pager_info_verbose
_default_pager_init_flag
_default_pager_initialize
_default_pager_internal_count
_default_pager_internal_set
_default_pager_lck_attr
_default_pager_lck_grp
_default_pager_lck_grp_attr
_default_pager_memory_object_create
_default_pager_memory_object_default_subsystem
_default_pager_object
_default_pager_object_create
_default_pager_object_pages
_default_pager_object_server
_default_pager_object_server_routine
_default_pager_object_subsystem
_default_pager_objects
_default_pager_ops
_default_pager_space_alert
_default_pager_triggers
_default_preemption_rate
_default_task_effective_policy
_default_task_pended_policy
_default_task_requested_policy
_default_timeshare_computation
_default_timeshare_constraint
_defaultaddrpolicy
_deflate
_deflateBound
_deflateCopy
_deflateEnd
_deflateInit2_
_deflateInit_
_deflateParams
_deflatePrime
_deflateReset
_deflateSetDictionary
_deflateSetHeader
_deflateTune
_deflate_copyright
_defrouter_lookup
_defrouter_reset
_defrouter_select
_defrtrlist_add_static
_defrtrlist_del
_defrtrlist_del_static
_defrtrlist_ioctl
_delay
_delay_for_interval
_delay_spin_threshold
_delete
_delta_percentage
_des3_cbc_encrypt
_des3_cbc_key_sched
_des3_derive_key
_des3_ecb_encrypt
_des3_ecb_key_sched
_des3_make_key
_des_cbc_cksum
_des_cbc_encrypt
_des_cbc_key_sched
_des_ecb_encrypt
_des_ecb_key_sched
_des_fixup_key_parity
_des_is_weak_key
_desiredNegNodes
_desiredNodes
_desireddquot
_desiredvnodes
_dest6_input
_dev_add_entry
_dev_add_name
_dev_add_node
_dev_dup_plane
_dev_findname
_dev_free_name
_dev_lck_attr
_dev_lck_grp
_dev_lck_grp_attr
_dev_root
_devcls
_devfs_attr_mutex
_devfs_devfd_lookup
_devfs_devfd_readdir
_devfs_devfd_vnodeop_opv_desc
_devfs_devfd_vnodeop_p
_devfs_dntovn
_devfs_fdesc_init
_devfs_fdesc_makelinks
_devfs_fdesc_vnodeop_entries
_devfs_fdesc_vnodeop_opv_desc
_devfs_free_plane
_devfs_kernel_mount
_devfs_lck_attr
_devfs_lck_grp
_devfs_lck_grp_attr
_devfs_make_link
_devfs_make_node
_devfs_make_node_clone
_devfs_make_symlink
_devfs_mount
_devfs_mutex
_devfs_ref_node
_devfs_rele_node
_devfs_remove
_devfs_sinit
_devfs_spec_vnodeop_opv_desc
_devfs_spec_vnodeop_p
_devfs_stats
_devfs_vfsops
_devfs_vnodeop_opv_desc
_devfs_vnodeop_p
_device_close
_device_data_action
_device_object_create
_device_pager_bootstrap
_device_pager_data_initialize
_device_pager_data_request
_device_pager_data_return
_device_pager_data_unlock
_device_pager_deallocate
_device_pager_init
_device_pager_last_unmap
_device_pager_lookup
_device_pager_map
_device_pager_ops
_device_pager_populate_object
_device_pager_reference
_device_pager_setup
_device_pager_synchronize
_device_pager_terminate
_device_pager_zone
_device_service_create
_devin
_devio
_devioc
_devnode_free
_devopn
_devout
_devsw_init
_devsw_lock
_devsw_lock_grp
_devsw_lock_list_mtx
_devsw_locks
_devsw_unlock
_devwait
_dgWork
_dhcp
_dhcpoa_add
_dhcpoa_add_dhcpmsg
_dhcpoa_buffer
_dhcpoa_count
_dhcpoa_freespace
_dhcpoa_init
_dhcpoa_init_no_end
_dhcpoa_size
_dhcpoa_used
_dhcpol_add
_dhcpol_concat
_dhcpol_count
_dhcpol_element
_dhcpol_find
_dhcpol_free
_dhcpol_init
_dhcpol_parse_buffer
_dhcpol_parse_packet
_di_root_image
_di_root_ramfile
_diagCall64
_diag_pmc_enabled
_dim_screen
_dis_distable
_dis_op0F
_dis_op0F00
_dis_op0F01
_dis_op0F18
_dis_op0F38
_dis_op0F3A
_dis_op0F7123
_dis_op0FAE
_dis_op0FBA
_dis_op0FC7
_dis_op0FC8
_dis_op80
_dis_op81
_dis_op82
_dis_op83
_dis_opC0
_dis_opC1
_dis_opD0
_dis_opD1
_dis_opD2
_dis_opD3
_dis_opF6
_dis_opF7
_dis_opFE
_dis_opFF
_dis_opFP1n2
_dis_opFP3
_dis_opFP4
_dis_opFP5
_dis_opFP6
_dis_opFP7
_dis_opMOVSLD
_dis_opPause
_dis_opSIMD7123
_dis_opSIMDdata16
_dis_opSIMDrepnz
_dis_opSIMDrepz
_disableConsoleOutput
_disable_debug_output
_disable_exc_resource
_disable_serial_output
_disable_wrap
_disconnectx
_div_init
_div_input
_div_usrreqs
_divert_packet
_dlil_dbgrate
_dlil_filter_disable_tso_count
_dlil_if_free
_dlil_if_ref
_dlil_ifaddr_bytes
_dlil_init
_dlil_lladdr_ckreq
_dlil_node_absent
_dlil_node_present
_dlil_output
_dlil_report_issues
_dlil_resolve_multi
_dlil_rxpoll_get_params
_dlil_rxpoll_set_params
_dlil_verbose
_dmmax
_dmmin
_dmtext
_dn_ipfw_rule_delete
_dn_mark_for_delayed_times_update
_dn_times_locked
_dn_times_now
_do_bsdexception
_do_fastwake_warmup
_do_mfence
_doconstro_override
_domain_guard_deploy
_domain_guard_release
_domain_proto_mtx_attr
_domain_proto_mtx_grp
_domain_proto_mtx_lock_assert_held
_domain_proto_mtx_lock_assert_notheld
_domain_unguard_deploy
_domain_unguard_release
_domaininit
_domainname
_domainnamelen
_domains
_donefileread
_donice
_dont_trim_until_ts
_dosetrlimit
_dounmount
_dp_encryption
_dp_encryption_inited
_dp_isssd
_dp_memory_object_data_initialize
_dp_memory_object_data_reclaim
_dp_memory_object_data_request
_dp_memory_object_data_return
_dp_memory_object_data_unlock
_dp_memory_object_deallocate
_dp_memory_object_init
_dp_memory_object_last_unmap
_dp_memory_object_map
_dp_memory_object_reference
_dp_memory_object_subsystem
_dp_memory_object_synchronize
_dp_memory_object_terminate
_dp_pages_free
_dp_pages_free_drift_count
_dp_pages_free_drifted_max
_dp_pages_reserve
_dp_parse_argument
_dpt_array
_dpt_lock
_dqdirtylist
_dqfileclose
_dqfileinit
_dqfileopen
_dqflush
_dqfreelist
_dqget
_dqhash
_dqhashinit
_dqhashtbl
_dqinit
_dqisinitialized
_dqlock
_dqreclaim
_dqrele
_dqsync
_dqsync_orphans
_dqunlock
_dsmos_page_transform
_dsmos_page_transform_hook
_dt_kmem_alloc
_dt_kmem_alloc_aligned
_dt_kmem_free
_dt_kmem_free_aligned
_dt_kmem_zalloc
_dt_kmem_zalloc_aligned
_dtrace_CRED
_dtrace_abs_to_nano
_dtrace_actions_max
_dtrace_aggrate_default
_dtrace_assfail
_dtrace_attached
_dtrace_calc_thread_recent_vtime
_dtrace_caller
_dtrace_cas32
_dtrace_casptr
_dtrace_chill_interval
_dtrace_chill_max
_dtrace_cleanrate_default
_dtrace_cleanrate_max
_dtrace_cleanrate_min
_dtrace_condense
_dtrace_copyin
_dtrace_copyinstr
_dtrace_copyio_postflight
_dtrace_copyio_preflight
_dtrace_copyout
_dtrace_copyoutstr
_dtrace_cpu_init
_dtrace_cpustart_fini
_dtrace_cpustart_init
_dtrace_deadman_interval
_dtrace_deadman_timeout
_dtrace_deadman_user
_dtrace_debugger_fini
_dtrace_debugger_init
_dtrace_destructive_disallow
_dtrace_devdepth_max
_dtrace_difo_maxsize
_dtrace_disx86
_dtrace_dof_maxsize
_dtrace_dstate_defsize
_dtrace_err_verbose
_dtrace_fasttrap_exec_ptr
_dtrace_fasttrap_exit_ptr
_dtrace_fasttrap_fork
_dtrace_fasttrap_fork_ptr
_dtrace_fasttrap_probe_ptr
_dtrace_fuword16
_dtrace_fuword32
_dtrace_fuword64
_dtrace_fuword8
_dtrace_get_cpu_int_stack_top
_dtrace_get_kernel_stack
_dtrace_get_thread_predcache
_dtrace_get_thread_reentering
_dtrace_get_thread_tracing
_dtrace_get_thread_vtime
_dtrace_getarg
_dtrace_gethrestime
_dtrace_gethrtime
_dtrace_getipl
_dtrace_getpcstack
_dtrace_getreg
_dtrace_getstackdepth
_dtrace_getufpstack
_dtrace_getupcstack
_dtrace_getustackdepth
_dtrace_global_maxsize
_dtrace_helper_actions_max
_dtrace_helper_providers_max
_dtrace_helpers_cleanup
_dtrace_helpers_fork
_dtrace_helptrace_buffer
_dtrace_helptrace_bufsize
_dtrace_helptrace_enabled
_dtrace_helptrace_next
_dtrace_helptrace_nlocals
_dtrace_init
_dtrace_instr_size
_dtrace_instr_size_isa
_dtrace_interrupt_disable
_dtrace_interrupt_enable
_dtrace_invalidate
_dtrace_invop
_dtrace_invop_add
_dtrace_invop_hdlr
_dtrace_invop_remove
_dtrace_isa_init
_dtrace_jstackframes_default
_dtrace_jstackstrsize_default
_dtrace_kernel_symbol_mode
_dtrace_lazy_dofs_destroy
_dtrace_lazy_dofs_duplicate
_dtrace_lck_attr
_dtrace_lck_grp
_dtrace_lck_grp_attr
_dtrace_load16
_dtrace_load32
_dtrace_load64
_dtrace_load8
_dtrace_max_cpus
_dtrace_membar_consumer
_dtrace_membar_producer
_dtrace_meta_register
_dtrace_meta_unregister
_dtrace_modctl_list
_dtrace_modload
_dtrace_modunload
_dtrace_msgdsize_max
_dtrace_nonroot_maxsize
_dtrace_nspec_default
_dtrace_pid_probe_ptr
_dtrace_postinit
_dtrace_predcache_id
_dtrace_probe
_dtrace_probe_arg
_dtrace_probe_create
_dtrace_probe_error
_dtrace_probe_lookup
_dtrace_probe_t_zone
_dtrace_probeid_error
_dtrace_proc_selfpid
_dtrace_proc_selfppid
_dtrace_proc_selfruid
_dtrace_ptss_allocate_page
_dtrace_ptss_claim_entry
_dtrace_ptss_claim_entry_locked
_dtrace_ptss_enable
_dtrace_ptss_exec_exit
_dtrace_ptss_fork
_dtrace_ptss_free_page
_dtrace_ptss_release_entry
_dtrace_register
_dtrace_resume
_dtrace_retain_max
_dtrace_return_probe_ptr
_dtrace_safe_defer_signal
_dtrace_safe_synchronous_signal
_dtrace_set_thread_predcache
_dtrace_set_thread_recover
_dtrace_set_thread_reentering
_dtrace_set_thread_tracing
_dtrace_set_thread_vtime
_dtrace_specsize_default
_dtrace_stackframes_default
_dtrace_statusrate_default
_dtrace_statusrate_max
_dtrace_strsize_default
_dtrace_suspend
_dtrace_switchrate_default
_dtrace_sync
_dtrace_systrace_syscall
_dtrace_systrace_syscall_return
_dtrace_tally_fault
_dtrace_thread_bootstrap
_dtrace_thread_didexec
_dtrace_timeout
_dtrace_toxic_ranges
_dtrace_unregister
_dtrace_user_probe
_dtrace_ustackframes_default
_dtrace_vtime_active
_dtrace_vtime_disable
_dtrace_vtime_enable
_dtrace_xcall
_dtrace_zero
_dummynet_debug
_dummynet_drain
_dumpdev
_dumplo
_dup
_dup2
_dup_sockaddr
_dupfdopen
_dying_sav_count
_dynamic_pager_control_port
_eHIB
_early_random
_early_rexmt
_econstdata
_edata
_embutl
_emergency_segment_backing_store
_empty_sah_count
_enable_wrap
_enablequotas
_encap4_init
_encap4_input
_encap6_init
_encap6_input
_encap_attach
_encap_attach_func
_encap_detach
_encap_getarg
_encaptab
_encode_comp_t
_encodinglst_lck_attr
_encodinglst_lck_grp
_encodinglst_lck_grp_attr
_encodinglst_mutex
_end
_enodev
_enodev_strat
_enoioctl
_enosys
_enterlctx
_enterpgrp
_enxio
_eopnotsupp
_err_access
_err_advlock
_err_allocate
_err_blktooff
_err_blockmap
_err_bwrite
_err_close
_err_copyfile
_err_create
_err_exchange
_err_fsync
_err_getattr
_err_inactive
_err_ioctl
_err_link
_err_mkdir
_err_mknod
_err_mmap
_err_offtoblk
_err_open
_err_pagein
_err_pageout
_err_pathconf
_err_read
_err_readdir
_err_readdirattr
_err_readlink
_err_reclaim
_err_remove
_err_rename
_err_revoke
_err_rmdir
_err_searchfs
_err_select
_err_setattr
_err_strategy
_err_symlink
_err_whiteout
_err_write
_errsys
_escape_str
_esp4_input
_esp4_output
_esp6_ctlinput
_esp6_input
_esp6_output
_esp_aes_schedlen
_esp_aes_schedule
_esp_algorithm_lookup
_esp_auth
_esp_cbc_decrypt_aes
_esp_cbc_encrypt_aes
_esp_hdrsiz
_esp_max_ivlen
_esp_schedule
_esp_udp_encap_port
_etext
_ether_add_proto
_ether_attach_inet
_ether_attach_inet6
_ether_check_multi
_ether_del_proto
_ether_demux
_ether_detach_inet
_ether_detach_inet6
_ether_frameout
_ether_frameout_extended
_ether_ioctl
_ev_try_lock
_ev_unlock
_evpipefree
_evsofree
_exc_server
_exc_server_routine
_exception_deliver
_exception_raise
_exception_raise_state
_exception_raise_state_identity
_exception_triage
_exchangedata
_exec_spawnattr_getmacpolicyinfo
_execargs_cache_lock
_execsigs
_execsw
_execve
_exit
_exit1
_exit1_internal
_externalize_flow_id
_extmod_statistics_incr_task_for_pid
_extmod_statistics_incr_thread_create
_extmod_statistics_incr_thread_set_state
_falloc
_falloc_locked
_falloc_withalloc
_fastbacktrace
_fasttrap_init
_fasttrap_lck_attr
_fasttrap_lck_grp
_fasttrap_lck_grp_attr
_fasttrap_pid_getarg
_fasttrap_pid_probe
_fasttrap_probe_t_zones
_fasttrap_return_probe
_fasttrap_sigtrap
_fasttrap_tpoints
_fasttrap_tracepoint_init
_fasttrap_tracepoint_install
_fasttrap_tracepoint_remove
_fasttrap_tracepoint_t_zone
_fasttrap_usdt_getarg
_fastwake_recording_in_progress
_fastwake_warmup
_fatfile_getarch_affinity
_fatfile_getarch_with_bits
_fbt_enable
_fbt_id
_fbt_init
_fbt_invop
_fbt_perfCallback
_fbt_probetab
_fbt_probetab_mask
_fbt_provide_module
_fchdir
_fchflags
_fchmod
_fchmod_extended
_fchown
_fcntl
_fcntl_nocancel
_fd_guard_ast
_fd_pcb_tree_RB_FIND
_fd_pcb_tree_RB_GETCOLOR
_fd_pcb_tree_RB_GETPARENT
_fd_pcb_tree_RB_INSERT
_fd_pcb_tree_RB_INSERT_COLOR
_fd_pcb_tree_RB_MINMAX
_fd_pcb_tree_RB_NEXT
_fd_pcb_tree_RB_REMOVE
_fd_pcb_tree_RB_REMOVE_COLOR
_fd_pcb_tree_RB_SETCOLOR
_fd_pcb_tree_RB_SETPARENT
_fd_rdwr
_fdalloc
_fdatasync
_fdavail
_fdcopy
_fdesc_allocvp
_fdesc_badop
_fdesc_getattr
_fdesc_inactive
_fdesc_ioctl
_fdesc_lckgrp
_fdesc_mtx
_fdesc_open
_fdesc_pathconf
_fdesc_read
_fdesc_reclaim
_fdesc_select
_fdesc_setattr
_fdesc_vnodeop_p
_fdesc_write
_fdexec
_fdexpand
_fdfree
_fdgetf_noref
_fdhash
_fdhashtbl
_fdrelse
_ffs
_ffsbit
_ffsctl
_fg_drop
_fg_free
_fg_insertuipc
_fg_ref
_fg_removeuipc
_fgetattrlist
_fgetxattr
_fhopen
_fifo_advlock
_fifo_charcount
_fifo_close
_fifo_close_internal
_fifo_ebadf
_fifo_freespace
_fifo_inactive
_fifo_ioctl
_fifo_lookup
_fifo_nfsv2nodeop_opv_desc
_fifo_nfsv2nodeop_p
_fifo_nfsv4nodeop_opv_desc
_fifo_nfsv4nodeop_p
_fifo_open
_fifo_pathconf
_fifo_printinfo
_fifo_read
_fifo_select
_fifo_vnodeop_entries
_fifo_vnodeop_opv_desc
_fifo_vnodeop_p
_fifo_write
_file_attribute_exist
_file_drop
_file_flags
_file_lck_attr
_file_lck_grp
_file_lck_grp_attr
_file_lock_init
_file_socket
_file_vnode
_file_vnode_withvid
_filedesc0
_fileport_alloc
_fileport_invoke
_fileport_makefd
_fileport_makeport
_fileport_notify
_fileport_port_to_fileglob
_fileport_releasefg
_fileport_walk
_fileproc_alloc_init
_fileproc_drain
_fileproc_free
_filetype_issendable
_fillPage
_fill_fileinfo
_fill_kqueueinfo
_fill_pipeinfo
_fill_procregioninfo
_fill_procworkqueue
_fill_pseminfo
_fill_pshminfo
_fill_socketinfo
_fill_task_rusage_v2
_fill_taskprocinfo
_fill_taskthreadinfo
_fill_taskthreadlist
_fill_vnodeinfo
_find_code_signature
_find_entry
_find_kern_regs
_find_user_regs
_find_vnode_object
_fips_initialize
_firmware_ACPINVS_bytes
_firmware_ACPIReclaim_bytes
_firmware_Conventional_bytes
_firmware_MMIO_bytes
_firmware_PalCode_bytes
_firmware_Reserved_bytes
_firmware_RuntimeServices_bytes
_firmware_Unusable_bytes
_firmware_other_bytes
_first_avail
_first_c_segment_to_warm_generation_id
_first_free_is_valid_ll
_first_zone
_firstc
_firstsect
_firstseg
_firstsegfromheader
_fix_desc
_fix_desc64
_fixjob_callback
_fixjobc
_flex_ratio
_flex_ratio_max
_flex_ratio_min
_flistxattr
_flock
_flow_divert_check_policy
_flow_divert_connect_out
_flow_divert_detach
_flow_divert_init
_flow_divert_is_dns_service
_flow_divert_pcb_init
_flow_divert_token_get
_flow_divert_token_set
_flowadv_add
_flowadv_alloc_entry
_flowadv_free_entry
_flowadv_init
_flush_cache_on_write
_flush_dcache
_flush_dcache64
_flush_pipe_ptrs
_fmsg_ithead
_fmsghead
_fo_close
_fo_ioctl
_fo_kqfilter
_fo_read
_fo_select
_fo_write
_force_immediate_debugger_NMI
_fork
_fork1
_fork_create_child
_forkproc
_forkproc_free
_fpSSEexterrflt
_fp_drop
_fp_drop_event
_fp_drop_written
_fp_free
_fp_getfkq
_fp_getfpipe
_fp_getfpsem
_fp_getfpshm
_fp_getfsock
_fp_getfvp
_fp_getfvpandvid
_fp_guard_exception
_fp_isguarded
_fp_kind
_fp_load
_fp_lookup
_fp_save
_fp_setvalid
_fp_tryswap
_fpathconf
_fpexterrflt
_fpextovrflt
_fpinit
_fpnoextflt
_fpu_dup_fxstate
_fpu_free
_fpu_get_fxstate
_fpu_module_init
_fpu_save_context
_fpu_set_fxstate
_frag6_drain
_frag6_init
_frag6_input
_free_io_buf
_freebitcount
_freespace_mb
_freevnodes
_freeze_threshold_percentage
_fremovexattr
_fs_filtops
_fs_klist_lck_grp
_fs_klist_lock
_fsconf_lck_attr
_fsconf_lck_grp
_fsconf_lck_grp_attr
_fsctl
_fsetattrlist
_fsetxattr
_fsevent_filtops
_fsevent_unmount
_fsevents_init
_fslog_err
_fslog_extmod_msgtracer
_fslog_fs_corrupt
_fslog_io_error
_fstat
_fstat64
_fstat64_extended
_fstat_extended
_fstatfs
_fstatfs64
_fsync
_fsync_nocancel
_ftruncate
_fubyte
_fuibyte
_fuiword
_fulong
_funnel_alloc
_funnel_free
_funnel_lck_attr
_funnel_lck_grp
_funnel_lck_grp_attr
_funnel_lock
_funnel_unlock
_futimes
_fuulong
_fuword
_fuword16
_fuword16_noerr
_fuword32
_fuword32_noerr
_fuword64
_fuword64_noerr
_fuword8
_fuword8_noerr
_fw_bypass
_fw_enable
_fw_one_pass
_fw_verbose
_gCompareTable
_gGearPict
_gGearPict2x
_gIOAppPowerStateInterest
_gIOBMDPageAllocator
_gIOBusyInterest
_gIOCatalogLock
_gIOCatalogue
_gIOClassKey
_gIOCommandPoolSizeKey
_gIOConsoleLockTime
_gIOConsoleLockedKey
_gIOConsoleSecurityInterest
_gIOConsoleSessionAuditIDKey
_gIOConsoleSessionLoginDoneKey
_gIOConsoleSessionOnConsoleKey
_gIOConsoleSessionScreenLockedTimeKey
_gIOConsoleSessionSecureInputPIDKey
_gIOConsoleSessionUIDKey
_gIOConsoleUsersKey
_gIOConsoleUsersSeedKey
_gIODTAAPLInterruptsKey
_gIODTAddressCellKey
_gIODTCompatibleKey
_gIODTDefaultInterruptController
_gIODTInterruptCellKey
_gIODTInterruptParentKey
_gIODTModelKey
_gIODTNWInterruptMappingKey
_gIODTNameKey
_gIODTPHandleKey
_gIODTPersistKey
_gIODTPlane
_gIODTRangeKey
_gIODTSharedInterrupts
_gIODTSizeCellKey
_gIODTTypeKey
_gIODTUnitKey
_gIODefaultMatchCategoryKey
_gIODeviceMemoryKey
_gIOFirstMatchNotification
_gIOFirstPublishNotification
_gIOGeneralInterest
_gIOHibernateCurrentHeader
_gIOHibernateDebugFlags
_gIOHibernateFreeTime
_gIOHibernateHandoffPageCount
_gIOHibernateHandoffPages
_gIOHibernateMode
_gIOHibernateRestoreStack
_gIOHibernateRestoreStackEnd
_gIOHibernateState
_gIOInterruptControllersKey
_gIOInterruptSpecifiersKey
_gIOKernelConfigTables
_gIOKitDebug
_gIOKitDebugKey
_gIOKitPortCount
_gIOKitTrace
_gIOLastPage
_gIOLastSleepTime
_gIOLastWakeTime
_gIOLocationKey
_gIOLocationMatchKey
_gIOMapperIDKey
_gIOMatchCategoryKey
_gIOMatchedNotification
_gIOMatchedServiceCountKey
_gIOModuleIdentifierKey
_gIONameKey
_gIONameMatchKey
_gIONameMatchedKey
_gIOPMPowerClientChildProxy
_gIOPMPowerClientChildren
_gIOPMPowerClientDevice
_gIOPMPowerClientDriver
_gIOPMPowerClientRootDomain
_gIOPMStatsApplicationResponseCancel
_gIOPMStatsApplicationResponseSlow
_gIOPMStatsApplicationResponseTimedOut
_gIOParentMatchKey
_gIOPathMatchKey
_gIOPlatformActiveActionKey
_gIOPlatformFunctionHandlerSet
_gIOPlatformQuiesceActionKey
_gIOPlatformSleepActionKey
_gIOPlatformWakeActionKey
_gIOPowerPlane
_gIOPriorityPowerStateInterest
_gIOProbeScoreKey
_gIOPropertyMatchKey
_gIOProviderClassKey
_gIOPublishNotification
_gIORangeAllocatorLock
_gIORegistryEntryIDKey
_gIORegistryLock
_gIORegistryLockAttr
_gIORegistryLockGrp
_gIORegistryLockGrpAttr
_gIOResourceMatchKey
_gIOResourcesKey
_gIOServiceKey
_gIOServicePlane
_gIOTerminatedNotification
_gIOUserClientClassKey
_gIgnoreFBTBlacklist
_gLatinCaseFold
_gLoadedKextSummaries
_gLowerCaseTable
_gOFVariables
_gOSKextUnresolved
_gOSObjectTrackList
_gOSObjectTrackLock
_gOSObjectTrackThread
_gPEClockFrequencyInfo
_gPEEFIRuntimeServices
_gPEEFISystemTable
_gPESerialBaud
_gPlatformInterruptControllerName
_gTimeZone
_g_crypto_funcs
_g_kernel_kmod_info
_g_kext_map
_gather_rusage_info_v2
_gc_vt100state
_getProcName
_get_aiotask
_get_base_rtt
_get_bsdtask_info
_get_bsdthread_info
_get_bsdthreadtask_info
_get_bsduthreadarg
_get_bsduthreadrval
_get_btree_nodesize
_get_crc_table
_get_dispatchqueue_offset_from_proc
_get_dispatchqueue_serialno_offset_from_proc
_get_dp_control_port
_get_eflags_exportmask
_get_firstthread
_get_fse_info
_get_inpcb_str_size
_get_kernel_symfile
_get_map_max
_get_map_min
_get_map_nentries
_get_map_pmap
_get_nspace_item_status
_get_numthreads
_get_pathbuff
_get_primary_ifscope
_get_procrustime
_get_read_buffer
_get_sched_statistics
_get_signalact
_get_sockev_state
_get_task_frozen
_get_task_ipcspace
_get_task_ledger
_get_task_map
_get_task_map_reference
_get_task_numactivethreads
_get_task_numacts
_get_task_phys_footprint
_get_task_phys_footprint_max
_get_task_pidsuspended
_get_task_pmap
_get_task_resident_size
_get_task_userstop
_get_tcp_str_size
_get_thread_lock_count
_get_thread_userstop
_get_threadtask
_get_user_regs
_get_useraddr
_get_vmmap_entries
_get_vmmap_size
_get_vmsubmap_entries
_get_zleak_state
_getattrlist
_getaudit_addr
_getauid
_getc
_getcommandfromheader
_getdirentries
_getdirentries64
_getdirentriesattr
_getdtablesize
_getegid
_getemajor
_geteuid
_getfh
_getfsstat
_getfsstat64
_getgid
_getgroups
_gethostuuid
_getitimer
_getlastaddr
_getlcid
_getlogin
_getminor
_getpeername
_getpgid
_getpgrp
_getpid
_getppid
_getpriority
_getrlimit
_getrusage
_getsectbyname
_getsectbynamefromheader
_getsectdatafromheader
_getsegbyname
_getsegbynamefromheader
_getsegdatafromheader
_getsgroups
_getsid
_getsockname
_getsockopt
_gettid
_gettimeofday
_getuid
_getuuidfromheader
_getwgroups
_getxattr
_gif_encapcheck4
_gif_encapcheck6
_gif_init
_gifs
_global_state_pid
_global_stats
_global_update
_grade_binary
_gre_input
_groupmember
_grrr_rescale_tick
_gsignal
_guard_ast
_guarded_close_np
_guarded_fileproc_free
_guarded_kqueue_np
_guarded_open_np
_gzalloc_alloc
_gzalloc_allocated
_gzalloc_configure
_gzalloc_consistency_checks
_gzalloc_early_alloc
_gzalloc_early_free
_gzalloc_enabled
_gzalloc_fill_pattern
_gzalloc_free
_gzalloc_freed
_gzalloc_guard
_gzalloc_init
_gzalloc_map
_gzalloc_map_max
_gzalloc_map_min
_gzalloc_max
_gzalloc_min
_gzalloc_mode
_gzalloc_prot
_gzalloc_reconfigure
_gzalloc_reserve
_gzalloc_reserve_size
_gzalloc_size
_gzalloc_uf_mode
_gzalloc_wasted
_gzalloc_zone_init
_gzfc_size
_halt_all_cpus
_halt_cpu
_halt_in_debugger
_handle_pending_TLB_flushes
_hard_maxproc
_hashLookupTable_new
_hash_mix
_hash_string
_hashaddr
_hashbacktrace
_hashinit
_hassigprop
_helper_close
_helper_init
_helper_ioctl
_helper_open
_hex2ascii_data
_hexdigits
_hfc_tag
_hfsUnmount
_hfs_MountHFSPlusVolume
_hfs_MountHFSVolume
_hfs_addconverter
_hfs_addhotfile
_hfs_attrdatafilename
_hfs_attrname
_hfs_bmap
_hfs_btsync
_hfs_catname
_hfs_chash_getcnode
_hfs_chash_getvnode
_hfs_chash_snoop
_hfs_checkdeleted
_hfs_chkdq
_hfs_chkdqchg
_hfs_chkiq
_hfs_chkiqchg
_hfs_chmod
_hfs_chown
_hfs_converterinit
_hfs_count_allocated
_hfs_create_attr_btree
_hfs_early_journal_init
_hfs_encoding_list
_hfs_encodingbias
_hfs_end_transaction
_hfs_erase_unused_nodes
_hfs_extendfs
_hfs_extname
_hfs_fifoop_entries
_hfs_fifoop_opv_desc
_hfs_fifoop_p
_hfs_file_is_compressed
_hfs_filedone
_hfs_flushvolumeheader
_hfs_freeblks
_hfs_fsync
_hfs_generate_document_id
_hfs_generate_volume_notifications
_hfs_get_dateadded
_hfs_get_document_id
_hfs_get_document_id_from_blob
_hfs_get_gencount
_hfs_get_gencount_from_blob
_hfs_getconverter
_hfs_getinoquota
_hfs_getnewvnode
_hfs_getquota
_hfs_getxattr_internal
_hfs_group_attr
_hfs_hides_rsrc
_hfs_hides_xattr
_hfs_hotfilesync
_hfs_idhash_destroy
_hfs_idhash_init
_hfs_incr_gencount
_hfs_init_summary
_hfs_is_backingstore
_hfs_isallocated
_hfs_isallocated_scan
_hfs_isiqchg_allowed
_hfs_islatinbias
_hfs_journal_flush
_hfs_lazy_init_decmpfs_cnode
_hfs_lock
_hfs_lock_attr
_hfs_lock_global
_hfs_lock_mount
_hfs_lock_truncate
_hfs_lockfour
_hfs_lockpair
_hfs_lookup_lastlink
_hfs_lookup_siblinglinks
_hfs_makelink
_hfs_makenode
_hfs_mark_volume_inconsistent
_hfs_metadatazone_init
_hfs_metasync
_hfs_metasync_all
_hfs_mount
_hfs_mountfs
_hfs_mountroot
_hfs_movedata
_hfs_mutex_group
_hfs_owner_rights
_hfs_pickencoding
_hfs_prepare_release_storage
_hfs_private_names
_hfs_privatedir_init
_hfs_qsync
_hfs_quotacheck
_hfs_quotaoff
_hfs_quotaon
_hfs_quotastat
_hfs_recording_init
_hfs_recording_suspend
_hfs_relconverter
_hfs_release_storage
_hfs_reload
_hfs_relocate
_hfs_remconverter
_hfs_remove_orphans
_hfs_removeallattr
_hfs_removedir
_hfs_removefile
_hfs_removefile_callback
_hfs_removehotfile
_hfs_resize_debug
_hfs_rwlock_group
_hfs_scan_blocks
_hfs_set_backingstore
_hfs_set_volxattr
_hfs_setquota
_hfs_setuse
_hfs_setxattr_internal
_hfs_specop_entries
_hfs_specop_opv_desc
_hfs_specop_p
_hfs_spinlock_group
_hfs_standard_vnodeop_entries
_hfs_start_transaction
_hfs_startupname
_hfs_statfs
_hfs_std_vnodeop_opv_desc
_hfs_std_vnodeop_p
_hfs_swap_BTNode
_hfs_swap_HFSBTInternalNode
_hfs_swap_HFSPlusBTInternalNode
_hfs_swap_HFSPlusForkData
_hfs_sync
_hfs_sysctl
_hfs_systemfile_lock
_hfs_systemfile_unlock
_hfs_to_utf8
_hfs_touchtimes
_hfs_truncate
_hfs_truncatefs
_hfs_try_trunclock
_hfs_uncompressed_size_of_compressed_file
_hfs_unlink
_hfs_unlock
_hfs_unlock_global
_hfs_unlock_mount
_hfs_unlock_truncate
_hfs_unlockfour
_hfs_unlockpair
_hfs_unmount
_hfs_update
_hfs_valid_cnode
_hfs_vbmname
_hfs_vfs_vget
_hfs_vfsops
_hfs_vget
_hfs_vgetrsrc
_hfs_virtualmetafile
_hfs_vnodeop_entries
_hfs_vnodeop_opv_desc
_hfs_vnodeop_p
_hfs_vnop_allocate
_hfs_vnop_blktooff
_hfs_vnop_blockmap
_hfs_vnop_bwrite
_hfs_vnop_close
_hfs_vnop_create
_hfs_vnop_exchange
_hfs_vnop_fsync
_hfs_vnop_getattr
_hfs_vnop_getnamedstream
_hfs_vnop_getxattr
_hfs_vnop_inactive
_hfs_vnop_ioctl
_hfs_vnop_link
_hfs_vnop_listxattr
_hfs_vnop_lookup
_hfs_vnop_makenamedstream
_hfs_vnop_mkdir
_hfs_vnop_mknod
_hfs_vnop_mmap
_hfs_vnop_offtoblk
_hfs_vnop_open
_hfs_vnop_pagein
_hfs_vnop_pageout
_hfs_vnop_pathconf
_hfs_vnop_read
_hfs_vnop_readdir
_hfs_vnop_readdirattr
_hfs_vnop_readlink
_hfs_vnop_reclaim
_hfs_vnop_remove
_hfs_vnop_removenamedstream
_hfs_vnop_removexattr
_hfs_vnop_rename
_hfs_vnop_rmdir
_hfs_vnop_search
_hfs_vnop_select
_hfs_vnop_setattr
_hfs_vnop_setxattr
_hfs_vnop_strategy
_hfs_vnop_symlink
_hfs_vnop_whiteout
_hfs_vnop_write
_hfs_volupdate
_hfs_write_access
_hfs_write_dateadded
_hfs_write_gencount
_hfsspec_close
_hfsspec_read
_hfsspec_write
_hi64_syscall
_hi64_sysenter
_hibernateRestorePALState
_hibernate_alloc_page_lists
_hibernate_cleaning_in_progress
_hibernate_create_paddr_map
_hibernate_flush_memory
_hibernate_flushing
_hibernate_flushing_deadline
_hibernate_free_gobble_pages
_hibernate_free_range
_hibernate_gobble_pages
_hibernate_hash_insert_page
_hibernate_kernel_entrypoint
_hibernate_lookup_paddr
_hibernate_machine_entrypoint
_hibernate_machine_init
_hibernate_mark_as_unneeded
_hibernate_newruntime_map
_hibernate_no_swapspace
_hibernate_paddr_map_inited
_hibernate_page_bitmap_count
_hibernate_page_bitmap_pin
_hibernate_page_bitset
_hibernate_page_bittst
_hibernate_page_list_allocate
_hibernate_page_list_discard
_hibernate_page_list_set_volatile
_hibernate_page_list_setall
_hibernate_page_list_setall_machine
_hibernate_pal_prepare
_hibernate_pal_write
_hibernate_processor_setup
_hibernate_rebuild_hash_list
_hibernate_rebuild_needed
_hibernate_rebuild_pmap_structs
_hibernate_rebuild_vm_structs
_hibernate_restore_phys_page
_hibernate_set_page_state
_hibernate_setup
_hibernate_should_abort
_hibernate_skip_external
_hibernate_stats
_hibernate_sum_page
_hibernate_teardown
_hibernate_teardown_found_created_pages
_hibernate_teardown_found_free_pages
_hibernate_teardown_found_tabled_pages
_hibernate_teardown_last_valid_compact_indx
_hibernate_teardown_pmap_structs
_hibernate_teardown_vm_page_free_count
_hibernate_teardown_vm_structs
_hibernate_vm_lock
_hibernate_vm_lock_queues
_hibernate_vm_unlock
_hibernate_vm_unlock_queues
_hibernate_write_image
_high_sb_max
_highest_hi
_hndl_allintrs
_hndl_alltraps
_hndl_diag_scall64
_hndl_double_fault
_hndl_mach_scall
_hndl_mach_scall64
_hndl_machine_check
_hndl_mdep_scall
_hndl_mdep_scall64
_hndl_syscall
_hndl_sysenter
_hndl_unix_scall
_hndl_unix_scall64
_host_default_memory_manager
_host_extmod_statistics
_host_get_UNDServer
_host_get_boot_info
_host_get_clock_control
_host_get_clock_service
_host_get_exception_ports
_host_get_io_master
_host_get_special_port
_host_info
_host_kernel_version
_host_lockgroup_info
_host_notify_calendar_change
_host_notify_init
_host_notify_lock
_host_notify_lock_attr
_host_notify_lock_ext
_host_notify_lock_grp
_host_notify_port_destroy
_host_page_size
_host_priv_self
_host_priv_server
_host_priv_server_routine
_host_priv_statistics
_host_priv_subsystem
_host_processor_info
_host_processor_set_priv
_host_processor_sets
_host_processors
_host_reboot
_host_request_notification
_host_security_create_task_token
_host_security_self
_host_security_server
_host_security_server_routine
_host_security_set_task_token
_host_security_subsystem
_host_self
_host_self_trap
_host_set_UNDServer
_host_set_exception_ports
_host_set_special_port
_host_statistics
_host_statistics64
_host_swap_exception_ports
_host_virtual_physical_table_info
_host_vmxoff
_host_vmxon
_host_zone_info
_hostid
_hostname
_hostnamelen
_hw_atomic_add
_hw_atomic_and
_hw_atomic_and_noret
_hw_atomic_or
_hw_atomic_or_noret
_hw_atomic_sub
_hw_compare_and_store
_hw_lock_byte_init
_hw_lock_byte_lock
_hw_lock_byte_unlock
_hw_lock_held
_hw_lock_init
_hw_lock_lock
_hw_lock_to
_hw_lock_try
_hw_lock_unlock
_hwcksum_dbg
_hwcksum_rx
_hwcksum_tx
_hwm_user_cores
_hz
_hz_tick_interval
_hzto
_i386_activate_cpu
_i386_active_cpus
_i386_astintr
_i386_cpu_IPI
_i386_deactivate_cpu
_i386_exception
_i386_get_ldt
_i386_init
_i386_init_slave
_i386_init_slave_fast
_i386_send_NMI
_i386_set_ldt
_i386_signal_cpu
_i386_signal_cpus
_i386_smp_init
_i386_start_cpu
_i386_vm_init
_i_bit_clear
_i_bit_set
_icmp6_ctloutput
_icmp6_dgram_ctloutput
_icmp6_error
_icmp6_error2
_icmp6_init
_icmp6_input
_icmp6_mtudisc_update
_icmp6_nodeinfo
_icmp6_rediraccept
_icmp6_redirect_input
_icmp6_redirect_output
_icmp6_redirtimeout
_icmp6_reflect
_icmp6errppslim
_icmp6stat
_icmp_error
_icmp_input
_icmpstat
_identitysvc
_idle_entry_timer_processing_hdeadline_threshold
_idle_offset_percentage
_idle_pending_timers_processed
_idle_thread
_idle_thread_create
_ids_zone
_idt64_alignment_check
_idt64_bounds
_idt64_db_task_dbl_fault
_idt64_db_task_stk_fault
_idt64_debug
_idt64_double_fault
_idt64_dtrace_ret
_idt64_fpu_err
_idt64_fpu_over
_idt64_gen_prot
_idt64_int3
_idt64_into
_idt64_inv_tss
_idt64_invop
_idt64_mach_scall
_idt64_mc
_idt64_mdep_scall
_idt64_nmi
_idt64_nofpu
_idt64_page_fault
_idt64_preempt
_idt64_segnp
_idt64_sse_err
_idt64_stack_fault
_idt64_syscall
_idt64_sysenter
_idt64_trap_0f
_idt64_trap_14
_idt64_trap_15
_idt64_trap_16
_idt64_trap_17
_idt64_trap_18
_idt64_trap_19
_idt64_trap_1a
_idt64_trap_1b
_idt64_trap_1c
_idt64_trap_1d
_idt64_trap_1e
_idt64_trap_1f
_idt64_unix_scall
_idt64_zero_div
_if_addmulti
_if_addmulti_anon
_if_allmulti
_if_bw_measure_size
_if_bw_smoothing_val
_if_clone_attach
_if_clone_detach
_if_cloners
_if_copy_data_extended
_if_copy_packet_stats
_if_copy_rxpoll_stats
_if_delmulti
_if_delmulti_anon
_if_delmulti_ifma
_if_down
_if_down_all
_if_index
_if_lqm_update
_if_mcasts_update
_if_qflush
_if_qflush_sc
_if_rcvq_maxlen
_if_rtproto_del
_if_sndq_maxlen
_if_tx_rdy
_if_up
_if_withname
_ifa_addref
_ifa_ifwithaddr
_ifa_ifwithaddr_scoped
_ifa_ifwithdstaddr
_ifa_ifwithnet
_ifa_ifwithnet_scoped
_ifa_ifwithroute
_ifa_ifwithroute_locked
_ifa_ifwithroute_scoped_locked
_ifa_init
_ifa_lock_destroy
_ifa_lock_init
_ifa_mtx_attr
_ifa_mtx_grp
_ifa_remref
_ifaddr_address
_ifaddr_address_family
_ifaddr_dstaddress
_ifaddr_findbestforaddr
_ifaddr_ifnet
_ifaddr_netmask
_ifaddr_reference
_ifaddr_release
_ifaddr_withaddr
_ifaddr_withdstaddr
_ifaddr_withnet
_ifaddr_withroute
_ifaof_ifpforaddr
_ifclassq_attach
_ifclassq_dequeue
_ifclassq_dequeue_sc
_ifclassq_detach
_ifclassq_enqueue
_ifclassq_ev2str
_ifclassq_get_len
_ifclassq_get_maxlen
_ifclassq_getqstats
_ifclassq_pktsched_setup
_ifclassq_poll
_ifclassq_poll_sc
_ifclassq_set_maxlen
_ifclassq_setup
_ifclassq_tbr_dequeue
_ifclassq_tbr_dequeue_sc
_ifclassq_tbr_set
_ifclassq_teardown
_ifclassq_update
_ifindex2ifnet
_ifioctl
_ifioctllocked
_iflr_addref
_iflr_remref
_iflt_attach
_iflt_detach
_ifma_addref
_ifma_remref
_ifmaddr_address
_ifmaddr_ifnet
_ifmaddr_lladdress
_ifmaddr_reference
_ifmaddr_release
_ifnet_add_multicast
_ifnet_addrlen
_ifnet_addrs
_ifnet_aggressive_drainers
_ifnet_allocate
_ifnet_allocate_extended
_ifnet_attach
_ifnet_attach_protocol
_ifnet_attach_protocol_v2
_ifnet_bandwidths
_ifnet_baudrate
_ifnet_cached_rtlookup_inet
_ifnet_cached_rtlookup_inet6
_ifnet_capabilities_enabled
_ifnet_capabilities_supported
_ifnet_clone_attach
_ifnet_clone_detach
_ifnet_decr_iorefcnt
_ifnet_dequeue
_ifnet_dequeue_multi
_ifnet_dequeue_service_class
_ifnet_dequeue_service_class_multi
_ifnet_detach
_ifnet_detach_protocol
_ifnet_disable_output
_ifnet_eflags
_ifnet_enable_output
_ifnet_enqueue
_ifnet_event
_ifnet_family
_ifnet_fc_tree
_ifnet_fc_tree_RB_FIND
_ifnet_fc_tree_RB_GETCOLOR
_ifnet_fc_tree_RB_GETPARENT
_ifnet_fc_tree_RB_INSERT
_ifnet_fc_tree_RB_INSERT_COLOR
_ifnet_fc_tree_RB_MINMAX
_ifnet_fc_tree_RB_NEXT
_ifnet_fc_tree_RB_REMOVE
_ifnet_fc_tree_RB_REMOVE_COLOR
_ifnet_fc_tree_RB_SETCOLOR
_ifnet_fc_tree_RB_SETPARENT
_ifnet_find_by_name
_ifnet_flags
_ifnet_flowadv
_ifnet_flowid
_ifnet_framer_stub
_ifnet_free_address_list
_ifnet_free_multicast_list
_ifnet_get_address_list
_ifnet_get_address_list_family
_ifnet_get_delegate
_ifnet_get_inuse_address_list
_ifnet_get_link_mib_data
_ifnet_get_link_mib_data_length
_ifnet_get_local_ports
_ifnet_get_local_ports_extended
_ifnet_get_log
_ifnet_get_multicast_list
_ifnet_get_rcvq_maxlen
_ifnet_get_service_class_sndq_len
_ifnet_get_sndq_len
_ifnet_get_sndq_maxlen
_ifnet_get_throttle
_ifnet_get_tso_mtu
_ifnet_get_wake_flags
_ifnet_getset_log
_ifnet_getset_opportunistic
_ifnet_guarded_lladdr_copy_bytes
_ifnet_hdrlen
_ifnet_head
_ifnet_idle_flags
_ifnet_index
_ifnet_inet6_defrouter_llreachinfo
_ifnet_inet_defrouter_llreachinfo
_ifnet_input
_ifnet_input_extended
_ifnet_input_linkrate
_ifnet_interface_family_find
_ifnet_ioctl
_ifnet_is_attached
_ifnet_lastchange
_ifnet_latencies
_ifnet_link_quality
_ifnet_list_free
_ifnet_list_get
_ifnet_lladdr
_ifnet_lladdr_copy_bytes
_ifnet_llbroadcast_copy_bytes
_ifnet_llreach_alloc
_ifnet_llreach_free
_ifnet_llreach_get_defrouter
_ifnet_llreach_ifattach
_ifnet_llreach_ifdetach
_ifnet_llreach_init
_ifnet_llreach_reachable
_ifnet_llreach_reachable_delta
_ifnet_llreach_set_reachable
_ifnet_llreach_up2calexp
_ifnet_llreach_up2upexp
_ifnet_lock_attr
_ifnet_lock_group
_ifnet_lr2iflri
_ifnet_lr2lri
_ifnet_lr2ri
_ifnet_metric
_ifnet_mtu
_ifnet_name
_ifnet_notice_master_elected
_ifnet_notice_node_absence
_ifnet_notice_node_presence
_ifnet_notify_address
_ifnet_offload
_ifnet_output
_ifnet_output_linkrate
_ifnet_output_raw
_ifnet_poll_params
_ifnet_purge
_ifnet_reference
_ifnet_release
_ifnet_remove_multicast
_ifnet_report_issues
_ifnet_set_addrlen
_ifnet_set_bandwidths
_ifnet_set_baudrate
_ifnet_set_capabilities_enabled
_ifnet_set_capabilities_supported
_ifnet_set_delegate
_ifnet_set_eflags
_ifnet_set_flags
_ifnet_set_hdrlen
_ifnet_set_idle_flags
_ifnet_set_idle_flags_locked
_ifnet_set_input_bandwidths
_ifnet_set_input_latencies
_ifnet_set_latencies
_ifnet_set_link_mib_data
_ifnet_set_link_quality
_ifnet_set_lladdr
_ifnet_set_lladdr_and_type
_ifnet_set_log
_ifnet_set_metric
_ifnet_set_mtu
_ifnet_set_offload
_ifnet_set_output_bandwidths
_ifnet_set_output_latencies
_ifnet_set_output_sched_model
_ifnet_set_poll_cycle
_ifnet_set_poll_params
_ifnet_set_promiscuous
_ifnet_set_rcvq_maxlen
_ifnet_set_sndq_maxlen
_ifnet_set_start_cycle
_ifnet_set_stat
_ifnet_set_throttle
_ifnet_set_tso_mtu
_ifnet_set_wake_flags
_ifnet_softc
_ifnet_start
_ifnet_stat
_ifnet_stat_increment
_ifnet_stat_increment_in
_ifnet_stat_increment_out
_ifnet_subfamily
_ifnet_touch_lastchange
_ifnet_transmit_burst_end
_ifnet_transmit_burst_start
_ifnet_tx_compl_status
_ifnet_type
_ifnet_unit
_ifnet_update_rcv
_ifnet_update_sndq
_ifp_if_ioctl
_ifps_zone
_iftovt_tab
_ifunit
_igi_addref
_igi_remref
_igmp_change_state
_igmp_debug
_igmp_domifattach
_igmp_domifdetach
_igmp_domifreattach
_igmp_init
_igmp_input
_igmp_set_timeout
_ignore_is_ssd
_ilat_assert
_im6f_leave
_im6f_purge
_im6o_addref
_im6o_mc_filter
_im6o_remref
_im6s_get_mode
_imf_leave
_imf_purge
_imgsrc_rootvnodes
_imo_addref
_imo_clone
_imo_multi_filter
_imo_remref
_ims_get_mode
_in6_addr2scopeid
_in6_addrscope
_in6_addrsel_lookup_policy
_in6_aliasreq_32_to_64
_in6_aliasreq_64_to_32
_in6_are_prefix_equal
_in6_cga_generate
_in6_cga_init
_in6_cga_node_lock
_in6_cga_node_unlock
_in6_cga_parameters_prepare
_in6_cga_query
_in6_cga_start
_in6_cga_stop
_in6_clearscope
_in6_control
_in6_domifattach
_in6_embedscope
_in6_finalize_cksum
_in6_getpeeraddr
_in6_getpeeraddr_s
_in6_getsockaddr
_in6_getsockaddr_s
_in6_gif_input
_in6_gif_output
_in6_if2idlen
_in6_ifaddr_init
_in6_ifaddr_rwlock
_in6_ifaddrs
_in6_ifattach_aliasreq
_in6_ifattach_llstartreq
_in6_ifattach_prelim
_in6_ifawithifp
_in6_ifawithscope
_in6_ifdetach
_in6_iid_from_hw
_in6_iid_mktmp
_in6_init_prefix_ltimes
_in6_inithead
_in6_is_addr_deprecated
_in6_joingroup
_in6_leavegroup
_in6_len2mask
_in6_localaddr
_in6_losing
_in6_mapped_peeraddr
_in6_mapped_sockaddr
_in6_mask2len
_in6_matchlen
_in6_maxmtu
_in6_mc_join
_in6_mc_leave
_in6_mcast_loop
_in6_multi_detach
_in6_multi_init
_in6_multihead
_in6_multihead_lock_assert
_in6_multihead_lock_done
_in6_multihead_lock_exclusive
_in6_multihead_lock_shared
_in6_nigroup
_in6_pcbbind
_in6_pcbconnect
_in6_pcbdetach
_in6_pcbdisconnect
_in6_pcbladdr
_in6_pcblookup_hash
_in6_pcblookup_hash_exists
_in6_pcblookup_local
_in6_pcbnotify
_in6_pcbsetport
_in6_post_msg
_in6_prefixlen2mask
_in6_proto_count
_in6_pseudo
_in6_purgeaddr
_in6_purgeaddrs
_in6_purgeif
_in6_recoverscope
_in6_rtchange
_in6_rtqdrain
_in6_selecthlim
_in6_selectroute
_in6_selectsrc
_in6_setmaxmtu
_in6_setscope
_in6_sin6_2_sin
_in6_sin6_2_sin_in_sock
_in6_sin_2_v4mapsin6
_in6_sin_2_v4mapsin6_in_sock
_in6_sockaddr
_in6_sockaddr_s
_in6_src_ioctl
_in6_tmpaddrtimer
_in6_tmpifadd
_in6_update_ifa
_in6_validate
_in6addr_any
_in6addr_linklocal_allnodes
_in6addr_linklocal_allrouters
_in6addr_linklocal_allv2routers
_in6addr_local
_in6addr_loopback
_in6addr_nodelocal_allnodes
_in6if_do_dad
_in6ifa_getlifetime
_in6ifa_ifpforlinklocal
_in6ifa_ifpwithaddr
_in6ifa_prproxyaddr
_in6ifa_setlifetime
_in6m_addref
_in6m_clear_recorded
_in6m_commit
_in6m_print
_in6m_purge
_in6m_record_source
_in6m_remref
_in6mask0
_in6mask128
_in6mask16
_in6mask32
_in6mask64
_in6mask7
_in6mask96
_in6p_route_copyin
_in6p_route_copyout
_in_addmulti
_in_addword
_in_arpdrain
_in_broadcast
_in_canforward
_in_cksum_hdr_opt
_in_control
_in_delmulti
_in_finalize_cksum
_in_getpeeraddr
_in_getpeeraddr_s
_in_getsockaddr
_in_getsockaddr_s
_in_gif_input
_in_gif_output
_in_ifaddr_init
_in_ifaddr_rwlock
_in_ifaddr_rwlock_data
_in_ifaddrhashtbl
_in_ifaddrhead
_in_ifadown
_in_ifscrub
_in_inithead
_in_leavegroup
_in_localaddr
_in_losing
_in_mcast_loop
_in_multi_detach
_in_multi_init
_in_multihead
_in_multihead_lock_assert
_in_multihead_lock_done
_in_multihead_lock_exclusive
_in_multihead_lock_shared
_in_pcb_checkstate
_in_pcballoc
_in_pcbbind
_in_pcbconnect
_in_pcbdetach
_in_pcbdisconnect
_in_pcbdispose
_in_pcbinfo_attach
_in_pcbinfo_detach
_in_pcbinit
_in_pcbinshash
_in_pcbladdr
_in_pcblookup_hash
_in_pcblookup_hash_exists
_in_pcblookup_local
_in_pcblookup_local_and_cleanup
_in_pcbnotifyall
_in_pcbrehash
_in_pcbremlists
_in_pseudo
_in_pseudo64
_in_purgeaddrs
_in_rtchange
_in_rtqdrain
_in_selectaddrs
_in_validate
_inaddr_hashval
_inaddr_local
_inet6_cksum
_inet6_domain_mutex
_inet6ctlerrmap
_inet6domain
_inet6domain_s
_inet6sw
_inet_aton
_inet_cksum
_inet_cksum_simple
_inet_domain_mutex
_inet_ntoa
_inet_ntoa_r
_inet_ntop
_inet_pton
_inetctlerrmap
_inetdomain
_inetdomain_s
_inferior
_inflate
_inflateBack
_inflateBackEnd
_inflateBackInit_
_inflateCopy
_inflateEnd
_inflateGetHeader
_inflateInit2_
_inflateInit_
_inflatePrime
_inflateReset
_inflateSetDictionary
_inflateSync
_inflateSyncPoint
_inflate_copyright
_inflate_fast
_inflate_table
_init_ast_check
_init_attrdata_vnode
_init_exec_args
_init_fpu
_init_sin6
_init_system_override
_init_task_failure_data
_init_task_ledgers
_init_thread_ledgers
_initgroups
_initial_fp_state
_initialize_screen
_initialized
_initproc
_inittodr
_inm_addref
_inm_clear_recorded
_inm_commit
_inm_print
_inm_purge
_inm_record_source
_inm_remref
_inp_bindif
_inp_calc_flowhash
_inp_clear_INP_INADDR_ANY
_inp_clear_flow_divert
_inp_clear_nocellular
_inp_fc_tree
_inp_fc_tree_RB_FIND
_inp_fc_tree_RB_GETCOLOR
_inp_fc_tree_RB_GETPARENT
_inp_fc_tree_RB_INSERT
_inp_fc_tree_RB_INSERT_COLOR
_inp_fc_tree_RB_MINMAX
_inp_fc_tree_RB_NEXT
_inp_fc_tree_RB_REMOVE
_inp_fc_tree_RB_REMOVE_COLOR
_inp_fc_tree_RB_SETCOLOR
_inp_fc_tree_RB_SETPARENT
_inp_fc_unthrottle_tcp
_inp_findinpcb_procinfo
_inp_flowadv
_inp_flush
_inp_get_soprocinfo
_inp_getmoptions
_inp_join_group
_inp_leave_group
_inp_reset_fc_state
_inp_restricted
_inp_route_copyin
_inp_route_copyout
_inp_set_fc_state
_inp_set_flow_divert
_inp_set_nocellular
_inp_setmoptions
_inp_update_policy
_inpcb_gc_sched
_inpcb_timeout_lazy
_inpcb_timer_sched
_inpcb_to_compat
_inpcb_to_xinpcb64
_install_real_mode_bootstrap
_install_special_handler
_install_special_handler_locked
_intel_startCPU
_intel_startCPU_fast
_interrupt
_interrupt_coalesced_timers
_interrupt_latency_cap
_interrupt_latency_tracker_setup
_interrupt_populate_latency_stats
_interrupt_reset_latency_stats
_interrupt_timer_coalescing_enabled
_inuse_ptepages_count
_invalhash
_invalidate_icache
_invalidate_icache64
_io_free
_io_map
_io_map_spec
_io_throttle_zero_fill
_ioctl
_iokit_add_reference
_iokit_alloc_object_port
_iokit_client_died
_iokit_destroy_object_port
_iokit_lock_port
_iokit_lookup_connect_port
_iokit_lookup_connect_ref
_iokit_lookup_connect_ref_current_task
_iokit_lookup_object_port
_iokit_make_connect_port
_iokit_make_object_port
_iokit_make_send_right
_iokit_mod_send_right
_iokit_notify
_iokit_obj_to_port_binding_lock
_iokit_port_for_object
_iokit_post_constructor_init
_iokit_release_port
_iokit_release_port_send
_iokit_remove_reference
_iokit_retain_port
_iokit_server
_iokit_server_routine
_iokit_switch_object_port
_iokit_unlock_port
_iokit_user_client_trap
_iopa_alloc
_iopa_free
_iopa_init
_iopolicysys
_ip4_ah_cleartos
_ip4_ah_net_deflev
_ip4_ah_offsetmask
_ip4_ah_trans_deflev
_ip4_def_policy
_ip4_esp_net_deflev
_ip4_esp_randpad
_ip4_esp_trans_deflev
_ip4_ipsec_dfbit
_ip4_ipsec_ecn
_ip6_accept_rtadv
_ip6_addaux
_ip6_ah_net_deflev
_ip6_ah_trans_deflev
_ip6_allocmoptions
_ip6_auto_flowlabel
_ip6_auto_linklocal
_ip6_clearpktopts
_ip6_copypktopts
_ip6_ctloutput
_ip6_dad_count
_ip6_def_policy
_ip6_defhlim
_ip6_defmcasthlim
_ip6_delaux
_ip6_desync_factor
_ip6_doscopedroute
_ip6_drain
_ip6_ecn_egress
_ip6_ecn_ingress
_ip6_esp_net_deflev
_ip6_esp_randpad
_ip6_esp_trans_deflev
_ip6_findaux
_ip6_forward
_ip6_forwarding
_ip6_freepcbopts
_ip6_fw_chain
_ip6_fw_chk_ptr
_ip6_fw_ctl_ptr
_ip6_fw_enable
_ip6_fw_init
_ip6_get_prevhdr
_ip6_getdstifaddr_info
_ip6_getmoptions
_ip6_getsrcifaddr_info
_ip6_gif_hlim
_ip6_hdrnestlimit
_ip6_init
_ip6_initpktopts
_ip6_input
_ip6_ipsec_ecn
_ip6_lasthdr
_ip6_log_interval
_ip6_log_time
_ip6_maxdynroutes
_ip6_maxifdefrouters
_ip6_maxifprefixes
_ip6_mcast_pmtu
_ip6_mloopback
_ip6_moptions_init
_ip6_msource_tree_RB_FIND
_ip6_msource_tree_RB_GETCOLOR
_ip6_msource_tree_RB_GETPARENT
_ip6_msource_tree_RB_INSERT
_ip6_msource_tree_RB_INSERT_COLOR
_ip6_msource_tree_RB_MINMAX
_ip6_msource_tree_RB_NEXT
_ip6_msource_tree_RB_PREV
_ip6_msource_tree_RB_REMOVE
_ip6_msource_tree_RB_REMOVE_COLOR
_ip6_msource_tree_RB_SETCOLOR
_ip6_msource_tree_RB_SETPARENT
_ip6_neighborgcthresh
_ip6_nexthdr
_ip6_notify_pmtu
_ip6_only_allow_rfc4193_prefix
_ip6_optlen
_ip6_output
_ip6_output_list
_ip6_prefer_tempaddr
_ip6_process_hopopts
_ip6_protox
_ip6_randomflowlabel
_ip6_randomid
_ip6_raw_ctloutput
_ip6_rr_prune
_ip6_savecontrol
_ip6_savecontrol_v4
_ip6_sendredirects
_ip6_setdstifaddr_info
_ip6_setmoptions
_ip6_setpktopts
_ip6_setsrcifaddr_info
_ip6_sprintf
_ip6_temp_preferred_lifetime
_ip6_temp_regen_advance
_ip6_temp_valid_lifetime
_ip6_unknown_opt
_ip6_use_defzone
_ip6_use_deprecated
_ip6_use_tempaddr
_ip6_v6only
_ip6stat
_ip_allocmoptions
_ip_checkrouteralert
_ip_cksum_hdr_dir
_ip_ctloutput
_ip_defttl
_ip_dn_ctl_ptr
_ip_dn_init
_ip_dn_io_ptr
_ip_doscopedroute
_ip_drain
_ip_ecn_egress
_ip_ecn_ingress
_ip_fragment
_ip_fw_chk_ptr
_ip_fw_ctl_ptr
_ip_fw_default_rule
_ip_getdstifaddr_info
_ip_getsrcifaddr_info
_ip_gif_ttl
_ip_gre_output
_ip_gre_register_input
_ip_id
_ip_init
_ip_initid
_ip_input
_ip_linklocal_in_allowbadttl
_ip_linklocal_stat
_ip_moptions_init
_ip_msource_tree_RB_FIND
_ip_msource_tree_RB_GETCOLOR
_ip_msource_tree_RB_GETPARENT
_ip_msource_tree_RB_INSERT
_ip_msource_tree_RB_INSERT_COLOR
_ip_msource_tree_RB_MINMAX
_ip_msource_tree_RB_NEXT
_ip_msource_tree_RB_PREV
_ip_msource_tree_RB_REMOVE
_ip_msource_tree_RB_REMOVE_COLOR
_ip_msource_tree_RB_SETCOLOR
_ip_msource_tree_RB_SETPARENT
_ip_next_mtu
_ip_output
_ip_output_checksum
_ip_output_list
_ip_pkt_to_mbuf
_ip_proto_dispatch_in_wrapper
_ip_protox
_ip_randomid
_ip_rtaddr
_ip_savecontrol
_ip_setdstifaddr_info
_ip_setsrcifaddr_info
_ip_srcroute
_ip_stripoptions
_ip_use_randomid
_ipc_bootstrap
_ipc_clock_enable
_ipc_clock_init
_ipc_entry_alloc
_ipc_entry_alloc_name
_ipc_entry_dealloc
_ipc_entry_get
_ipc_entry_grow_table
_ipc_entry_lookup
_ipc_entry_modified
_ipc_hash_delete
_ipc_hash_insert
_ipc_hash_lookup
_ipc_hash_table_delete
_ipc_hash_table_insert
_ipc_hash_table_lookup
_ipc_host_init
_ipc_init
_ipc_kernel_copy_map
_ipc_kernel_copy_map_size
_ipc_kernel_map
_ipc_kernel_map_size
_ipc_kmsg_add_trailer
_ipc_kmsg_alloc
_ipc_kmsg_clean
_ipc_kmsg_clean_body
_ipc_kmsg_clean_partial
_ipc_kmsg_clear_prealloc
_ipc_kmsg_copyin
_ipc_kmsg_copyin_body
_ipc_kmsg_copyin_from_kernel
_ipc_kmsg_copyin_header
_ipc_kmsg_copyin_ool_descriptor
_ipc_kmsg_copyin_ool_ports_descriptor
_ipc_kmsg_copyin_port_descriptor
_ipc_kmsg_copyout
_ipc_kmsg_copyout_body
_ipc_kmsg_copyout_dest
_ipc_kmsg_copyout_header
_ipc_kmsg_copyout_object
_ipc_kmsg_copyout_ool_descriptor
_ipc_kmsg_copyout_ool_ports_descriptor
_ipc_kmsg_copyout_port_descriptor
_ipc_kmsg_copyout_pseudo
_ipc_kmsg_copyout_size
_ipc_kmsg_copyout_to_kernel
_ipc_kmsg_delayed_destroy
_ipc_kmsg_dequeue
_ipc_kmsg_destroy
_ipc_kmsg_enqueue
_ipc_kmsg_free
_ipc_kmsg_free_scatter
_ipc_kmsg_get
_ipc_kmsg_get_from_kernel
_ipc_kmsg_get_scatter
_ipc_kmsg_max_body_space
_ipc_kmsg_max_vm_space
_ipc_kmsg_prealloc
_ipc_kmsg_put
_ipc_kmsg_put_to_kernel
_ipc_kmsg_queue_next
_ipc_kmsg_reap_delayed
_ipc_kmsg_rmqueue
_ipc_kmsg_send
_ipc_kmsg_set_prealloc
_ipc_kmsg_zone
_ipc_kobject_destroy
_ipc_kobject_notify
_ipc_kobject_server
_ipc_kobject_set
_ipc_kobject_set_atomically
_ipc_lck_attr
_ipc_lck_grp
_ipc_mqueue_add
_ipc_mqueue_changed
_ipc_mqueue_copyin
_ipc_mqueue_destroy
_ipc_mqueue_full
_ipc_mqueue_init
_ipc_mqueue_member
_ipc_mqueue_peek
_ipc_mqueue_post
_ipc_mqueue_rcv
_ipc_mqueue_receive
_ipc_mqueue_receive_continue
_ipc_mqueue_receive_on_thread
_ipc_mqueue_receive_results
_ipc_mqueue_release_msgcount
_ipc_mqueue_remove
_ipc_mqueue_remove_all
_ipc_mqueue_remove_from_all
_ipc_mqueue_select_on_thread
_ipc_mqueue_send
_ipc_mqueue_set_gather_member_names
_ipc_mqueue_set_peek
_ipc_mqueue_set_qlimit
_ipc_mqueue_set_seqno
_ipc_notify_dead_name
_ipc_notify_no_senders
_ipc_notify_port_deleted
_ipc_notify_port_destroyed
_ipc_notify_send_once
_ipc_notify_send_possible
_ipc_object_alloc
_ipc_object_alloc_dead
_ipc_object_alloc_dead_name
_ipc_object_alloc_name
_ipc_object_copyin
_ipc_object_copyin_from_kernel
_ipc_object_copyin_type
_ipc_object_copyout
_ipc_object_copyout_dest
_ipc_object_copyout_name
_ipc_object_destroy
_ipc_object_destroy_dest
_ipc_object_reference
_ipc_object_release
_ipc_object_rename
_ipc_object_translate
_ipc_object_translate_two
_ipc_object_zones
_ipc_port_alloc
_ipc_port_alloc_name
_ipc_port_alloc_special
_ipc_port_check_circularity
_ipc_port_clear_receiver
_ipc_port_copy_send
_ipc_port_copyout_send
_ipc_port_dealloc_special
_ipc_port_destroy
_ipc_port_dnnotify
_ipc_port_finalize
_ipc_port_importance_delta
_ipc_port_init
_ipc_port_lookup_notify
_ipc_port_make_send
_ipc_port_make_send_locked
_ipc_port_make_sonce
_ipc_port_make_sonce_locked
_ipc_port_max
_ipc_port_multiple_lock_data
_ipc_port_multiple_lock_data_ext
_ipc_port_nsrequest
_ipc_port_pdrequest
_ipc_port_reference
_ipc_port_release
_ipc_port_release_receive
_ipc_port_release_send
_ipc_port_release_sonce
_ipc_port_request_alloc
_ipc_port_request_cancel
_ipc_port_request_grow
_ipc_port_request_sparm
_ipc_port_request_type
_ipc_port_spnotify
_ipc_port_timestamp
_ipc_port_timestamp_data
_ipc_portbt
_ipc_processor_enable
_ipc_processor_init
_ipc_pset_add
_ipc_pset_alloc
_ipc_pset_alloc_name
_ipc_pset_destroy
_ipc_pset_enable
_ipc_pset_init
_ipc_pset_max
_ipc_pset_member
_ipc_pset_remove
_ipc_pset_remove_from_all
_ipc_right_check
_ipc_right_copyin
_ipc_right_copyin_check
_ipc_right_copyin_two
_ipc_right_copyin_undo
_ipc_right_copyout
_ipc_right_dealloc
_ipc_right_delta
_ipc_right_destroy
_ipc_right_destruct
_ipc_right_info
_ipc_right_inuse
_ipc_right_lookup_two_write
_ipc_right_lookup_write
_ipc_right_rename
_ipc_right_request_alloc
_ipc_right_request_cancel
_ipc_right_reverse
_ipc_right_terminate
_ipc_space_clean
_ipc_space_create
_ipc_space_create_special
_ipc_space_kernel
_ipc_space_max
_ipc_space_reference
_ipc_space_release
_ipc_space_reply
_ipc_space_terminate
_ipc_space_zone
_ipc_table_alloc
_ipc_table_entries
_ipc_table_entries_size
_ipc_table_fill
_ipc_table_free
_ipc_table_init
_ipc_table_requests
_ipc_table_requests_size
_ipc_task_disable
_ipc_task_enable
_ipc_task_init
_ipc_task_reset
_ipc_task_terminate
_ipc_thread_destroy_exc_actions
_ipc_thread_disable
_ipc_thread_init
_ipc_thread_init_exc_actions
_ipc_thread_reset
_ipc_thread_terminate
_ipcomp4_input
_ipcomp4_output
_ipcomp6_input
_ipcomp6_output
_ipcomp_algorithm_lookup
_ipcperm
_ipf_addv4
_ipf_addv6
_ipf_inject_input
_ipf_inject_output
_ipf_remove
_ipforwarding
_ipfw_convert_from_latest
_ipfw_convert_to_latest
_ipfw_get_command_and_version
_ipfw_init
_ipfw_mutex
_ipfw_mutex_attr
_ipfw_mutex_data
_ipfw_mutex_grp
_ipfw_mutex_grp_attr
_ipfw_stealth_stats_incr_tcp
_ipfw_stealth_stats_incr_tcpv6
_ipfw_stealth_stats_incr_udp
_ipfw_stealth_stats_incr_udpv6
_ipfwsyslog
_ipport_firstauto
_ipport_hifirstauto
_ipport_hilastauto
_ipport_lastauto
_ipport_lowfirstauto
_ipport_lowlastauto
_ipsec4_delete_pcbpolicy
_ipsec4_encapsulate
_ipsec4_encapsulate_utun_esp_keepalive
_ipsec4_get_policy
_ipsec4_getpolicybyaddr
_ipsec4_getpolicybyinterface
_ipsec4_getpolicybysock
_ipsec4_hdrsiz
_ipsec4_in_reject
_ipsec4_in_reject_so
_ipsec4_logpacketstr
_ipsec4_output
_ipsec4_set_policy
_ipsec4_splithdr
_ipsec4_tunnel_validate
_ipsec6_delete_pcbpolicy
_ipsec6_encapsulate
_ipsec6_encapsulate_utun_esp_keepalive
_ipsec6_get_policy
_ipsec6_getpolicybyaddr
_ipsec6_getpolicybyinterface
_ipsec6_getpolicybysock
_ipsec6_hdrsiz
_ipsec6_in_reject
_ipsec6_in_reject_so
_ipsec6_logpacketstr
_ipsec6_output_trans
_ipsec6_output_tunnel
_ipsec6_set_policy
_ipsec6_splithdr
_ipsec6_tunnel_validate
_ipsec6stat
_ipsec_addhist
_ipsec_bypass
_ipsec_chkreplay
_ipsec_clearhist
_ipsec_copy_policy
_ipsec_copypkt
_ipsec_debug
_ipsec_delaux
_ipsec_dumpmbuf
_ipsec_get_reqlevel
_ipsec_gethist
_ipsec_getsocket
_ipsec_hdrsiz
_ipsec_hdrsiz_tcp
_ipsec_init_policy
_ipsec_interface_isvalid
_ipsec_logsastr
_ipsec_register_control
_ipsec_setsocket
_ipsec_updatereplay
_ipsecstat
_ipstat
_iptime
_ipv4_ll_arp_aware
_is_64signalregset
_is_file_clean
_is_io_async_method_scalarI_scalarO
_is_io_async_method_scalarI_structureI
_is_io_async_method_scalarI_structureO
_is_io_async_method_structureI_structureO
_is_io_catalog_get_data
_is_io_catalog_get_gen_count
_is_io_catalog_module_loaded
_is_io_catalog_reset
_is_io_catalog_send_data
_is_io_catalog_terminate
_is_io_connect_add_client
_is_io_connect_async_method
_is_io_connect_get_notification_semaphore
_is_io_connect_get_service
_is_io_connect_map_memory
_is_io_connect_map_memory_into_task
_is_io_connect_method
_is_io_connect_method_scalarI_scalarO
_is_io_connect_method_scalarI_structureI
_is_io_connect_method_scalarI_structureO
_is_io_connect_method_structureI_structureO
_is_io_connect_method_var_output
_is_io_connect_set_notification_port
_is_io_connect_set_notification_port_64
_is_io_connect_set_properties
_is_io_connect_unmap_memory
_is_io_connect_unmap_memory_from_task
_is_io_iterator_is_valid
_is_io_iterator_next
_is_io_iterator_reset
_is_io_object_conforms_to
_is_io_object_get_bundle_identifier
_is_io_object_get_class
_is_io_object_get_retain_count
_is_io_object_get_superclass
_is_io_registry_create_iterator
_is_io_registry_entry_create_iterator
_is_io_registry_entry_from_path
_is_io_registry_entry_get_child_iterator
_is_io_registry_entry_get_location_in_plane
_is_io_registry_entry_get_name
_is_io_registry_entry_get_name_in_plane
_is_io_registry_entry_get_parent_iterator
_is_io_registry_entry_get_path
_is_io_registry_entry_get_properties
_is_io_registry_entry_get_property
_is_io_registry_entry_get_property_bytes
_is_io_registry_entry_get_property_recursively
_is_io_registry_entry_get_registry_entry_id
_is_io_registry_entry_in_plane
_is_io_registry_entry_set_properties
_is_io_registry_get_root_entry
_is_io_registry_iterator_enter_entry
_is_io_registry_iterator_exit_entry
_is_io_service_acknowledge_notification
_is_io_service_add_interest_notification
_is_io_service_add_interest_notification_64
_is_io_service_add_notification
_is_io_service_add_notification_64
_is_io_service_add_notification_old
_is_io_service_add_notification_ool
_is_io_service_add_notification_ool_64
_is_io_service_close
_is_io_service_get_busy_state
_is_io_service_get_matching_service
_is_io_service_get_matching_service_ool
_is_io_service_get_matching_services
_is_io_service_get_matching_services_ool
_is_io_service_get_state
_is_io_service_match_property_table
_is_io_service_match_property_table_ool
_is_io_service_open_extended
_is_io_service_request_probe
_is_io_service_wait_quiet
_is_iokit_subsystem
_is_kerneltask
_is_knote_registered_modify_task_pressure_bits
_isbackground
_isdisk
_isinferior
_iskmemdev
_iso_font
_iss_zone
_issetugid
_issignal_locked
_itimerdecr
_itimerfix
_itoa
_jnl_group_attr
_jnl_lock_attr
_jnl_mutex_group
_jnl_trim_flush_limit
_journal_active
_journal_close
_journal_create
_journal_end_transaction
_journal_flush
_journal_init
_journal_is_clean
_journal_kill_block
_journal_modify_block_abort
_journal_modify_block_end
_journal_modify_block_start
_journal_open
_journal_owner
_journal_relocate
_journal_request_immediate_flush
_journal_start_transaction
_journal_trim_extent_overlap
_journal_uses_fua
_kKnownAnswer
_kOSBooleanFalse
_kOSBooleanTrue
_kOSMetaClassLogSpec
_kOSRuntimeLogSpec
_k_zone_max
_kalloc
_kalloc_canblock
_kalloc_fake_zone_index
_kalloc_fake_zone_info
_kalloc_fake_zone_init
_kalloc_init
_kalloc_kernmap_size
_kalloc_large_inuse
_kalloc_large_max
_kalloc_large_sum
_kalloc_large_total
_kalloc_largest_allocated
_kalloc_lck_grp
_kalloc_lock
_kalloc_map
_kalloc_map_max
_kalloc_map_min
_kalloc_max
_kalloc_max_prerounded
_kalloc_noblock
_kalloc_zone
_kas_info
_kau_free
_kau_init
_kau_will_audit
_kaudit_to_bsm
_kauth_acl_alloc
_kauth_acl_evaluate
_kauth_acl_free
_kauth_acl_inherit
_kauth_authorize_action
_kauth_authorize_allow
_kauth_authorize_fileop
_kauth_authorize_fileop_has_listeners
_kauth_authorize_generic
_kauth_authorize_process
_kauth_copyinfilesec
_kauth_cred_alloc
_kauth_cred_copy_real
_kauth_cred_create
_kauth_cred_dup
_kauth_cred_find
_kauth_cred_get
_kauth_cred_get_with_ref
_kauth_cred_getgid
_kauth_cred_getgroups
_kauth_cred_getguid
_kauth_cred_getntsid
_kauth_cred_getrgid
_kauth_cred_getruid
_kauth_cred_getsvgid
_kauth_cred_getsvuid
_kauth_cred_getuid
_kauth_cred_gid2guid
_kauth_cred_gid2ntsid
_kauth_cred_gid_subset
_kauth_cred_grnam2guid
_kauth_cred_guid2gid
_kauth_cred_guid2grnam
_kauth_cred_guid2ntsid
_kauth_cred_guid2pwnam
_kauth_cred_guid2uid
_kauth_cred_init
_kauth_cred_ismember_gid
_kauth_cred_ismember_guid
_kauth_cred_issuser
_kauth_cred_label_update
_kauth_cred_ntsid2gid
_kauth_cred_ntsid2guid
_kauth_cred_ntsid2uid
_kauth_cred_proc_ref
_kauth_cred_pwnam2guid
_kauth_cred_ref
_kauth_cred_setauditinfo
_kauth_cred_setgroups
_kauth_cred_setlabel
_kauth_cred_setresgid
_kauth_cred_setresuid
_kauth_cred_setsvuidgid
_kauth_cred_setuidgid
_kauth_cred_uid2guid
_kauth_cred_uid2ntsid
_kauth_cred_unref
_kauth_cred_uthread_update
_kauth_deregister_scope
_kauth_external_supplementary_groups_supported
_kauth_filesec_acl_setendian
_kauth_filesec_alloc
_kauth_filesec_free
_kauth_getgid
_kauth_getrgid
_kauth_getruid
_kauth_getuid
_kauth_groups
_kauth_groups_init
_kauth_guid_equal
_kauth_identity_init
_kauth_init
_kauth_lck_grp
_kauth_listen_scope
_kauth_ntsid_equal
_kauth_null_guid
_kauth_proc_label_update
_kauth_proc_label_update_execve
_kauth_proc_setlabel
_kauth_register_scope
_kauth_resolver_done
_kauth_resolver_init
_kauth_resolver_submitted
_kauth_resolver_timeout_cnt
_kauth_resolver_unsubmitted
_kauth_scope_fileop
_kauth_scope_generic
_kauth_scope_process
_kauth_unlisten_scope
_kauth_wellknown_guid
_kd_bufs
_kd_ctrl_page
_kd_entropy_buffer
_kd_entropy_bufsize
_kd_entropy_buftomem
_kd_entropy_count
_kd_entropy_indx
_kd_mapcount
_kd_mapptr
_kd_mapsize
_kdb_log
_kdb_printf
_kdb_printf_unbuffered
_kdbg_bootstrap
_kdbg_control
_kdbg_control_chud
_kdbg_cpumap_init_internal
_kdbg_dump_trace_to_file
_kdbg_get_task_name
_kdbg_getentropy
_kdbg_getreg
_kdbg_read
_kdbg_readcpumap
_kdbg_readcurthrmap
_kdbg_readthrmap
_kdbg_reinit
_kdbg_setpid
_kdbg_setpidex
_kdbg_setreg
_kdbg_setrtcdec
_kdbg_thrmap_init
_kdbg_thrmap_init_internal
_kdbg_trace_data
_kdbg_trace_string
_kdbip
_kdcopybuf
_kde_waiter
_kdebug_chudhook
_kdebug_enable
_kdebug_lookup_gen_events
_kdebug_thread_block
_kdebug_trace
_kdi_dtrace_set
_kdlog_beg
_kdlog_bg_trace
_kdlog_bg_trace_running
_kdlog_end
_kdlog_value1
_kdlog_value2
_kdlog_value3
_kdlog_value4
_kdp
_kdp_call
_kdp_call_kdb
_kdp_copyin
_kdp_crashdump_pkt_size
_kdp_crashdump_short_pkt
_kdp_disable_arp
_kdp_dump_start_time
_kdp_dump_trap
_kdp_exception
_kdp_exception_ack
_kdp_feature_large_crashdumps
_kdp_feature_large_pkt_size
_kdp_flag
_kdp_get_dump_info
_kdp_get_interface
_kdp_get_ip_address
_kdp_get_mac_addr
_kdp_getc
_kdp_getstate
_kdp_has_active_watchpoints
_kdp_i386_trap
_kdp_init
_kdp_intr_disbl
_kdp_intr_enbl
_kdp_kernelversion_string
_kdp_machine_get_breakinsn
_kdp_machine_hostinfo
_kdp_machine_init
_kdp_machine_ioport_read
_kdp_machine_ioport_write
_kdp_machine_msr64_read
_kdp_machine_msr64_write
_kdp_machine_phys_read
_kdp_machine_phys_write
_kdp_machine_read_regs
_kdp_machine_reboot
_kdp_machine_vm_read
_kdp_machine_vm_write
_kdp_machine_write_regs
_kdp_max_superblock_dump_time
_kdp_min_superblock_dump_time
_kdp_ml_enter_debugger
_kdp_packet
_kdp_panic
_kdp_panic_dump
_kdp_pmap
_kdp_print_phys
_kdp_raise_exception
_kdp_read_io
_kdp_register_callout
_kdp_register_link
_kdp_register_send_receive
_kdp_remove_all_breakpoints
_kdp_remove_breakpoint_internal
_kdp_reset
_kdp_send_crashdump_data
_kdp_send_crashdump_pkt
_kdp_serialize_packet
_kdp_set_breakpoint_internal
_kdp_set_dump_info
_kdp_set_gateway_mac
_kdp_set_interface
_kdp_set_ip_and_mac_addresses
_kdp_setstate
_kdp_snapshot
_kdp_snapshot_postflight
_kdp_snapshot_preflight
_kdp_stack_snapshot_bytes_traced
_kdp_stack_snapshot_geterror
_kdp_stackshot
_kdp_superblock_dump_start_time
_kdp_superblock_dump_time
_kdp_sync_cache
_kdp_trans_off
_kdp_trigger_core_dump
_kdp_unregister_link
_kdp_unregister_send_receive
_kdp_unserialize_packet
_kdp_us_spin
_kdp_x86_xcpu_invoke
_kds_waiter
_kern_asl_msg
_kern_asl_msg_va
_kern_close_file_for_direct_io
_kern_collectth_state
_kern_collectth_state_size
_kern_dump
_kern_dump_pmap_traverse_preflight_callback
_kern_dump_pmap_traverse_send_callback
_kern_event_init
_kern_invalid
_kern_invalid_debug
_kern_maxvnodes
_kern_open_file_for_direct_io
_kern_os_free
_kern_os_malloc
_kern_os_malloc_size
_kern_os_realloc
_kern_write_file
_kernacc
_kernel_bootstrap
_kernel_debug
_kernel_debug1
_kernel_debug_enter
_kernel_debug_internal
_kernel_debug_register_callback
_kernel_early_bootstrap
_kernel_flock
_kernel_ldt_desc64
_kernel_map
_kernel_memory_allocate
_kernel_memory_depopulate
_kernel_memory_populate
_kernel_object
_kernel_object_iopl_request
_kernel_object_lck_attr
_kernel_pageable_map
_kernel_pmap
_kernel_pmap_store
_kernel_preempt_check
_kernel_set_special_port
_kernel_stack_depth_max
_kernel_stack_mask
_kernel_stack_pages
_kernel_stack_size
_kernel_sysctl
_kernel_task
_kernel_task_create
_kernel_text_ps_4K
_kernel_thread_create
_kernel_thread_start
_kernel_thread_start_priority
_kernel_trap
_kernel_tss_desc64
_kernel_upl_abort
_kernel_upl_abort_range
_kernel_upl_commit
_kernel_upl_commit_range
_kernel_upl_map
_kernel_upl_unmap
_kernel_uuid
_kernel_uuid_string
_kernproc
_kev_msg_post
_kev_post_msg
_kev_vendor_code_find
_kevent
_kevent64
_kevent_description
_kevent_register
_kext_alloc
_kext_alloc_init
_kext_dump_panic_lists
_kext_free
_kext_get_vm_map
_kext_identifier_prefix_subs
_kext_identifier_substring_subs
_kext_request
_kext_weak_symbol_referenced
_kextd_ping
_key_allocsa
_key_allocsa_policy
_key_allocsp
_key_cb
_key_checkrequest
_key_checktunnelsanity
_key_debug_level
_key_delsah
_key_delsav
_key_delsp_for_ipsec_if
_key_dst
_key_freereg
_key_freesav
_key_freesp
_key_getspbyid
_key_getspi2
_key_gettunnel
_key_init
_key_inp
_key_ismyaddr
_key_msg2sp
_key_natt_get_translated_port
_key_newsah2
_key_newsav2
_key_newsp
_key_output
_key_parse
_key_random
_key_randomfill
_key_sa_chgstate
_key_sa_recordxfer
_key_sa_routechange
_key_sa_stir_iv
_key_sendup_mbuf
_key_sp2msg
_key_spdacquire
_key_src
_key_timehandler
_key_timehandler_debug
_keydb_delsecpolicy
_keydb_delsecreplay
_keydb_newsecashead
_keydb_newsecpolicy
_keydb_newsecreplay
_keydomain_s
_keystat
_kfree
_kfree_nop_count
_kfse_list_head
_kill
_killpg1
_kipf_count
_klist_init
_km_tty
_kmapoff_kaddr
_kmapoff_pgcnt
_kmclose
_kmem_alloc
_kmem_alloc_aligned
_kmem_alloc_contig
_kmem_alloc_kobject
_kmem_alloc_pageable
_kmem_alloc_pages
_kmem_alloc_ready
_kmem_cache_alloc
_kmem_cache_create
_kmem_cache_destroy
_kmem_cache_free
_kmem_free
_kmem_init
_kmem_mb_alloc
_kmem_ready
_kmem_realloc
_kmem_remap_pages
_kmem_suballoc
_kmeminit
_kminit
_kmioctl
_kmod
_kmod_control
_kmod_create
_kmod_destroy
_kmod_dump_log
_kmod_get_info
_kmod_panic_dump
_kmopen
_kmputc
_kmread
_kmwrite
_kmzones
_knote
_knote_attach
_knote_detach
_knote_fdclose
_knote_init
_knote_link_wait_queue
_knote_markstayqueued
_knote_unlink_wait_queue
_kpc_actionid
_kpc_arch_init
_kpc_configurable_config_count
_kpc_configurable_count
_kpc_configurable_max
_kpc_counterbuf_alloc
_kpc_counterbuf_free
_kpc_fixed_config_count
_kpc_fixed_count
_kpc_fixed_max
_kpc_get_actionid
_kpc_get_classes
_kpc_get_config
_kpc_get_config_count
_kpc_get_configurable_config
_kpc_get_configurable_counters
_kpc_get_counter_count
_kpc_get_cpu_counters
_kpc_get_curthread_counters
_kpc_get_fixed_config
_kpc_get_fixed_counters
_kpc_get_period
_kpc_get_running
_kpc_get_shadow_counters
_kpc_get_thread_counting
_kpc_init
_kpc_is_running_configurable
_kpc_is_running_fixed
_kpc_pmi_handler
_kpc_sample_kperf
_kpc_set_actionid
_kpc_set_config
_kpc_set_config_arch
_kpc_set_period
_kpc_set_period_arch
_kpc_set_running
_kpc_set_thread_counting
_kpc_switch_context
_kpc_thread_ast_handler
_kpc_thread_create
_kpc_thread_destroy
_kpc_thread_init
_kpc_threads_counting
_kperf_access_check
_kperf_action_get_count
_kperf_action_get_filter
_kperf_action_get_samplers
_kperf_action_get_userdata
_kperf_action_set_count
_kperf_action_set_filter
_kperf_action_set_samplers
_kperf_action_set_userdata
_kperf_ast_pend
_kperf_bless_pid
_kperf_bootstrap
_kperf_cswitch_hook
_kperf_debug_level
_kperf_get_pet_idle_rate
_kperf_get_thread_bits
_kperf_init
_kperf_intr_sample_buffer
_kperf_kcallstack_log
_kperf_kcallstack_sample
_kperf_kdbg_get_stacks
_kperf_kdbg_recurse
_kperf_kdbg_set_stacks
_kperf_kdebug_callback
_kperf_kpc_cpu_log
_kperf_kpc_cpu_sample
_kperf_mp_broadcast
_kperf_pet_init
_kperf_pet_thread_go
_kperf_pet_thread_wait
_kperf_pet_timer_config
_kperf_port_to_pid
_kperf_sample
_kperf_sampling_disable
_kperf_sampling_enable
_kperf_sampling_status
_kperf_set_pet_idle_rate
_kperf_set_thread_ast
_kperf_set_thread_bits
_kperf_signal_handler
_kperf_switch_context
_kperf_thread_ast_handler
_kperf_thread_on_cpus
_kperf_threadinfo_extra_log
_kperf_threadinfo_extra_pend
_kperf_threadinfo_extra_sample
_kperf_threadinfo_log
_kperf_threadinfo_sample
_kperf_timer_get_action
_kperf_timer_get_count
_kperf_timer_get_period
_kperf_timer_get_petid
_kperf_timer_go
_kperf_timer_pet_set
_kperf_timer_set_action
_kperf_timer_set_count
_kperf_timer_set_period
_kperf_timer_set_petid
_kperf_timer_stop
_kperf_ucallstack_log
_kperf_ucallstack_pend
_kperf_ucallstack_sample
_kprintf
_kprintf_break_lock
_kq_lck_attr
_kq_lck_grp
_kq_lck_grp_attr
_kqueue
_kqueue_alloc
_kqueue_body
_kqueue_dealloc
_kqueue_scan
_kqueue_stat
_krb5_mech
_krb5_nfold
_krpc_call
_krpc_portmap
_kth_started
_kvprintf
_kvtophys
_kxld_create_context
_kxld_destroy_context
_kxld_link_file
_kxld_validate_copyright_string
_lapic_config_timer
_lapic_config_tsc_deadline_timer
_lapic_configure
_lapic_cpu_map
_lapic_cpu_map_init
_lapic_disable_timer
_lapic_dump
_lapic_end_of_interrupt
_lapic_get_cmci_vector
_lapic_get_timer
_lapic_get_tsc_deadline_timer
_lapic_init
_lapic_interrupt
_lapic_interrupt_base
_lapic_interrupt_counts
_lapic_is_interrupt_pending
_lapic_is_interrupting
_lapic_ops
_lapic_probe
_lapic_send_ipi
_lapic_set_intr_func
_lapic_set_perfcnt_interrupt_mask
_lapic_set_pmi_func
_lapic_set_timer
_lapic_set_timer_fast
_lapic_set_tsc_deadline_timer
_lapic_shutdown
_lapic_smm_restore
_lapic_to_cpu
_lapic_unmask_perfcnt_interrupt
_larval_sav_count
_lastRuptClear
_last_c_segment_to_warm_generation_id
_last_coalesced
_last_eval_compression_count
_last_eval_decompression_count
_last_kernel_symbol
_last_loaded_timestamp
_last_managed_page
_last_no_space_action
_last_unloaded_timestamp
_last_zone
_lccreate
_lcfind
_lchown
_lck_attr_alloc_init
_lck_attr_cleardebug
_lck_attr_free
_lck_attr_rw_shared_priority
_lck_attr_setdebug
_lck_attr_setdefault
_lck_grp_alloc_init
_lck_grp_attr_alloc_init
_lck_grp_attr_free
_lck_grp_attr_setdefault
_lck_grp_attr_setstat
_lck_grp_deallocate
_lck_grp_free
_lck_grp_init
_lck_grp_lckcnt_decr
_lck_grp_lckcnt_incr
_lck_grp_reference
_lck_mod_init
_lck_mtx_alloc_init
_lck_mtx_assert
_lck_mtx_convert_spin
_lck_mtx_destroy
_lck_mtx_ext_unlock_lockstat_patch_point
_lck_mtx_free
_lck_mtx_ilk_unlock
_lck_mtx_init
_lck_mtx_init_ext
_lck_mtx_lock
_lck_mtx_lock_acquire
_lck_mtx_lock_acquire_x86
_lck_mtx_lock_ext_lockstat_patch_point
_lck_mtx_lock_grab_mutex
_lck_mtx_lock_lockstat_patch_point
_lck_mtx_lock_mark_destroyed
_lck_mtx_lock_spin
_lck_mtx_lock_spin_always
_lck_mtx_lock_spin_lockstat_patch_point
_lck_mtx_lock_spinwait_x86
_lck_mtx_lock_wait
_lck_mtx_lock_wait_x86
_lck_mtx_sleep
_lck_mtx_sleep_deadline
_lck_mtx_try_lock
_lck_mtx_try_lock_lockstat_patch_point
_lck_mtx_try_lock_spin
_lck_mtx_try_lock_spin_always
_lck_mtx_try_lock_spin_lockstat_patch_point
_lck_mtx_unlock
_lck_mtx_unlock_lockstat_patch_point
_lck_mtx_unlock_wakeup
_lck_mtx_unlock_wakeup_x86
_lck_mtx_unlockspin_wakeup
_lck_mtx_yield
_lck_rw_alloc_init
_lck_rw_assert
_lck_rw_clear_promotion
_lck_rw_clear_promotions_x86
_lck_rw_destroy
_lck_rw_done
_lck_rw_done_gen
_lck_rw_free
_lck_rw_grab_shared
_lck_rw_grab_want
_lck_rw_held_read_or_upgrade
_lck_rw_init
_lck_rw_lock
_lck_rw_lock_exclusive
_lck_rw_lock_exclusive_gen
_lck_rw_lock_exclusive_lockstat_patch_point
_lck_rw_lock_exclusive_to_shared
_lck_rw_lock_exclusive_to_shared_gen
_lck_rw_lock_shared
_lck_rw_lock_shared_gen
_lck_rw_lock_shared_lockstat_patch_point
_lck_rw_lock_shared_to_exclusive
_lck_rw_lock_shared_to_exclusive_failure
_lck_rw_lock_shared_to_exclusive_lockstat_patch_point
_lck_rw_lock_shared_to_exclusive_success
_lck_rw_sleep
_lck_rw_sleep_deadline
_lck_rw_try_lock
_lck_rw_try_lock_exclusive
_lck_rw_try_lock_exclusive_lockstat_patch_point
_lck_rw_try_lock_shared
_lck_rw_try_lock_shared_lockstat_patch_point
_lck_rw_unlock
_lck_rw_unlock_exclusive
_lck_rw_unlock_shared
_lck_spin_alloc_init
_lck_spin_destroy
_lck_spin_free
_lck_spin_init
_lck_spin_lock
_lck_spin_sleep
_lck_spin_sleep_deadline
_lck_spin_try_lock
_lck_spin_unlock
_lctx_lck_attr
_lctx_lck_grp
_lctx_lck_grp_attr
_ldisc_deregister
_ldisc_register
_ldt_desc_pattern
_leavelctx
_leavepgrp
_ledger
_ledger_ast
_ledger_credit
_ledger_debit
_ledger_dereference
_ledger_disable_callback
_ledger_disable_refill
_ledger_enable_callback
_ledger_entry_add
_ledger_entry_setactive
_ledger_get_actions
_ledger_get_balance
_ledger_get_entries
_ledger_get_entry_info
_ledger_get_limit
_ledger_get_maximum
_ledger_get_period
_ledger_get_task_entry_info_multiple
_ledger_info
_ledger_init
_ledger_instantiate
_ledger_key_lookup
_ledger_lck_grp
_ledger_reference
_ledger_reference_count
_ledger_set_action
_ledger_set_callback
_ledger_set_limit
_ledger_set_period
_ledger_template_create
_ledger_template_dereference
_ledger_template_info
_ledger_track_maximum
_ledger_zero_balance
_lf_abort_advlocks
_lf_advlock
_lightweight_update_priority
_limit0
_limited_txmt
_linesw
_link
_link_rtrequest
_lio_listio
_listen
_listxattr
_ll_reach_tree_RB_FIND
_ll_reach_tree_RB_GETCOLOR
_ll_reach_tree_RB_GETPARENT
_ll_reach_tree_RB_INSERT
_ll_reach_tree_RB_INSERT_COLOR
_ll_reach_tree_RB_MINMAX
_ll_reach_tree_RB_NEXT
_ll_reach_tree_RB_PREV
_ll_reach_tree_RB_REMOVE
_ll_reach_tree_RB_REMOVE_COLOR
_ll_reach_tree_RB_SETCOLOR
_ll_reach_tree_RB_SETPARENT
_llinfo_nd6
_ln_setexpire
_lo_ifp
_load_init_program
_load_ipfw
_load_machfile
_load_security_extensions_function
_local_log2
_localdomain
_localdomain_s
_lock_acquire
_lock_alloc
_lock_alloc_EXT
_lock_done
_lock_done_EXT
_lock_free
_lock_free_EXT
_lock_handoff
_lock_handoff_accept
_lock_init
_lock_init_EXT
_lock_make_stable
_lock_read
_lock_read_EXT
_lock_read_to_write
_lock_read_to_write_EXT
_lock_release
_lock_set_create
_lock_set_dereference
_lock_set_destroy
_lock_set_reference
_lock_set_server
_lock_set_server_routine
_lock_set_subsystem
_lock_trace
_lock_try
_lock_vnode_and_post
_lock_write
_lock_write_EXT
_lock_write_to_read
_lock_write_to_read_EXT
_lockd_ping
_lockd_request
_lockd_shutdown
_lockstat_init
_lockstat_probe
_lockstat_probe_wrapper
_lockstat_probemap
_lockstat_probes
_log
_logPanicDataToScreen
_log_dmesg
_log_for_en1
_log_leaks
_log_open
_log_putc
_log_putc_locked
_log_setsize
_log_stack_execution_failure
_log_unnest_badness
_logclose
_logioctl
_logopen
_logpri
_logread
_logselect
_logsoftc
_logtime
_logwakeup
_lookup
_lookup_authorize_search
_lookup_compound_vnop_post_hook
_lookup_consider_update_cache
_lookup_handle_emptyname
_lookup_handle_found_vnode
_lookup_handle_rsrc_fork
_lookup_handle_symlink
_lookup_traverse_mountpoints
_lookup_traverse_union
_lookup_validate_creation_path
_loopattach
_lowGlo
_low_eintstack
_low_intstack
_lowest_hi
_lowest_lo
_lowpri_throttle_enabled
_lro_byte_count
_lro_deadline
_lro_double_flushes
_lro_flow_list
_lro_flow_map
_lro_flushes
_lro_good_flushes
_lro_pkt_count
_lro_seq_mismatch
_lro_seq_outoforder
_lro_single_flushes
_lro_start
_lro_timer_set
_lrocount
_lrodebug
_lru_is_stale
_lseek
_lstat
_lstat64
_lstat64_extended
_lstat_extended
_m_adj
_m_adj_sum16
_m_append
_m_cat
_m_classifier_init
_m_copy_classifier
_m_copy_pftag
_m_copy_pkthdr
_m_copyback
_m_copyback_cow
_m_copydata
_m_copym
_m_copym_mode
_m_copym_with_hdrs
_m_defrag
_m_defrag_offset
_m_devget
_m_dtom
_m_dup
_m_fixhdr
_m_free
_m_freem
_m_freem_list
_m_get
_m_get_service_class
_m_get_traffic_class
_m_getcl
_m_getclr
_m_gethdr
_m_getpacket
_m_getpackethdrs
_m_getpackets
_m_getptr
_m_last
_m_leadingspace
_m_length
_m_length2
_m_makewritable
_m_mcheck
_m_mchtype
_m_mclalloc
_m_mclfree
_m_mclget
_m_mclhasreference
_m_mtod
_m_normalize
_m_prepend
_m_prepend_2
_m_pulldown
_m_pullup
_m_reinit
_m_retry
_m_retryhdr
_m_scratch_get
_m_scratch_init
_m_service_class_from_idx
_m_service_class_from_val
_m_set_service_class
_m_set_traffic_class
_m_split
_m_sum16
_m_tag_alloc
_m_tag_copy
_m_tag_copy_chain
_m_tag_create
_m_tag_delete
_m_tag_delete_chain
_m_tag_first
_m_tag_free
_m_tag_init
_m_tag_locate
_m_tag_next
_m_tag_prepend
_m_tag_unlink
_m_trailingspace
_mac_audit_check_postselect
_mac_audit_check_preselect
_mac_audit_data_zone
_mac_audit_text
_mac_check_service
_mac_check_structmac_consistent
_mac_cred_check_label_update
_mac_cred_check_label_update_execve
_mac_cred_check_visible
_mac_cred_label_alloc
_mac_cred_label_associate
_mac_cred_label_associate_fork
_mac_cred_label_associate_kernel
_mac_cred_label_associate_user
_mac_cred_label_compare
_mac_cred_label_destroy
_mac_cred_label_externalize
_mac_cred_label_externalize_audit
_mac_cred_label_free
_mac_cred_label_init
_mac_cred_label_internalize
_mac_cred_label_update
_mac_cred_label_update_execve
_mac_devfs_label_associate_device
_mac_devfs_label_associate_directory
_mac_devfs_label_copy
_mac_devfs_label_destroy
_mac_devfs_label_init
_mac_devfs_label_update
_mac_device_enforce
_mac_do_machexc
_mac_error_select
_mac_execve_enter
_mac_externalize
_mac_file_check_change_offset
_mac_file_check_create
_mac_file_check_dup
_mac_file_check_fcntl
_mac_file_check_get
_mac_file_check_get_offset
_mac_file_check_inherit
_mac_file_check_ioctl
_mac_file_check_lock
_mac_file_check_mmap
_mac_file_check_mmap_downgrade
_mac_file_check_receive
_mac_file_check_set
_mac_file_label_associate
_mac_file_label_destroy
_mac_file_label_init
_mac_find_module_data
_mac_find_policy_data
_mac_internalize
_mac_iokit_check_device
_mac_iokit_check_hid_control
_mac_iokit_check_open
_mac_iokit_check_set_properties
_mac_kalloc
_mac_kalloc_noblock
_mac_kext_check_load
_mac_kext_check_unload
_mac_kfree
_mac_label_destroy
_mac_label_element_list
_mac_label_get
_mac_label_init
_mac_label_journal
_mac_label_journal_add
_mac_label_journal_find
_mac_label_journal_list
_mac_label_journal_remove
_mac_label_journal_replay
_mac_label_new
_mac_label_set
_mac_label_vnodes
_mac_labelzone_alloc
_mac_labelzone_free
_mac_labelzone_init
_mac_late
_mac_lctx_check_label_update
_mac_lctx_label_alloc
_mac_lctx_label_externalize
_mac_lctx_label_free
_mac_lctx_label_internalize
_mac_lctx_label_update
_mac_lctx_notify_create
_mac_lctx_notify_join
_mac_lctx_notify_leave
_mac_mbuf_alloc
_mac_mbuf_free
_mac_mmap_revocation
_mac_mmap_revocation_via_cow
_mac_mount_check_fsctl
_mac_mount_check_getattr
_mac_mount_check_label_update
_mac_mount_check_mount
_mac_mount_check_remount
_mac_mount_check_setattr
_mac_mount_check_stat
_mac_mount_check_umount
_mac_mount_label_associate
_mac_mount_label_destroy
_mac_mount_label_externalize
_mac_mount_label_get
_mac_mount_label_init
_mac_mount_label_internalize
_mac_pipe_check_ioctl
_mac_pipe_check_kqfilter
_mac_pipe_check_read
_mac_pipe_check_select
_mac_pipe_check_stat
_mac_pipe_check_write
_mac_pipe_enforce
_mac_pipe_label_alloc
_mac_pipe_label_associate
_mac_pipe_label_copy
_mac_pipe_label_destroy
_mac_pipe_label_externalize
_mac_pipe_label_free
_mac_pipe_label_init
_mac_pipe_label_internalize
_mac_pipe_label_update
_mac_policy_addto_labellist
_mac_policy_init
_mac_policy_initbsd
_mac_policy_initmach
_mac_policy_list
_mac_policy_list_busy
_mac_policy_list_conditional_busy
_mac_policy_list_unbusy
_mac_policy_register
_mac_policy_removefrom_labellist
_mac_policy_unregister
_mac_port_check_access
_mac_port_check_service
_mac_port_check_service_obj
_mac_port_label_compute
_mac_posixsem_check_create
_mac_posixsem_check_open
_mac_posixsem_check_post
_mac_posixsem_check_unlink
_mac_posixsem_check_wait
_mac_posixsem_enforce
_mac_posixsem_label_associate
_mac_posixsem_label_destroy
_mac_posixsem_label_init
_mac_posixsem_vnode_label_associate
_mac_posixshm_check_create
_mac_posixshm_check_mmap
_mac_posixshm_check_open
_mac_posixshm_check_stat
_mac_posixshm_check_truncate
_mac_posixshm_check_unlink
_mac_posixshm_enforce
_mac_posixshm_label_associate
_mac_posixshm_label_destroy
_mac_posixshm_label_init
_mac_posixshm_vnode_label_associate
_mac_priv_check
_mac_priv_grant
_mac_proc_check_cpumon
_mac_proc_check_debug
_mac_proc_check_fork
_mac_proc_check_get_task
_mac_proc_check_get_task_name
_mac_proc_check_getaudit
_mac_proc_check_getauid
_mac_proc_check_getlcid
_mac_proc_check_ledger
_mac_proc_check_map_anon
_mac_proc_check_mprotect
_mac_proc_check_proc_info
_mac_proc_check_run_cs_invalid
_mac_proc_check_sched
_mac_proc_check_setaudit
_mac_proc_check_setauid
_mac_proc_check_setlcid
_mac_proc_check_signal
_mac_proc_check_suspend_resume
_mac_proc_check_wait
_mac_proc_enforce
_mac_proc_set_enforce
_mac_pty_notify_close
_mac_pty_notify_grant
_mac_request_label
_mac_roman_to_unicode
_mac_roman_to_utf8
_mac_schedule_userret
_mac_socket_check_accept
_mac_socket_check_accepted
_mac_socket_check_bind
_mac_socket_check_connect
_mac_socket_check_create
_mac_socket_check_deliver
_mac_socket_check_getsockopt
_mac_socket_check_listen
_mac_socket_check_receive
_mac_socket_check_received
_mac_socket_check_send
_mac_socket_check_setsockopt
_mac_socket_enforce
_mac_static_label_element_list
_mac_system_check_acct
_mac_system_check_audit
_mac_system_check_auditctl
_mac_system_check_auditon
_mac_system_check_chud
_mac_system_check_host_priv
_mac_system_check_info
_mac_system_check_kas_info
_mac_system_check_nfsd
_mac_system_check_reboot
_mac_system_check_settime
_mac_system_check_swapoff
_mac_system_check_swapon
_mac_system_check_sysctl
_mac_system_enforce
_mac_sysvmsg_enforce
_mac_sysvmsg_label_associate
_mac_sysvmsg_label_init
_mac_sysvmsg_label_recycle
_mac_sysvmsq_check_enqueue
_mac_sysvmsq_check_msgrcv
_mac_sysvmsq_check_msgrmid
_mac_sysvmsq_check_msqctl
_mac_sysvmsq_check_msqget
_mac_sysvmsq_check_msqrcv
_mac_sysvmsq_check_msqsnd
_mac_sysvmsq_label_associate
_mac_sysvmsq_label_init
_mac_sysvmsq_label_recycle
_mac_sysvsem_check_semctl
_mac_sysvsem_check_semget
_mac_sysvsem_check_semop
_mac_sysvsem_enforce
_mac_sysvsem_label_associate
_mac_sysvsem_label_destroy
_mac_sysvsem_label_init
_mac_sysvsem_label_recycle
_mac_sysvshm_check_shmat
_mac_sysvshm_check_shmctl
_mac_sysvshm_check_shmdt
_mac_sysvshm_check_shmget
_mac_sysvshm_enforce
_mac_sysvshm_label_associate
_mac_sysvshm_label_destroy
_mac_sysvshm_label_init
_mac_sysvshm_label_recycle
_mac_task_check_service
_mac_thread_get_threadlabel
_mac_thread_get_uthreadlabel
_mac_thread_label_alloc
_mac_thread_label_destroy
_mac_thread_label_free
_mac_thread_label_init
_mac_thread_userret
_mac_unwire
_mac_vm_enforce
_mac_vnode_check_access
_mac_vnode_check_chdir
_mac_vnode_check_chroot
_mac_vnode_check_create
_mac_vnode_check_deleteextattr
_mac_vnode_check_exchangedata
_mac_vnode_check_exec
_mac_vnode_check_fsgetpath
_mac_vnode_check_getattrlist
_mac_vnode_check_getextattr
_mac_vnode_check_ioctl
_mac_vnode_check_kqfilter
_mac_vnode_check_label_update
_mac_vnode_check_link
_mac_vnode_check_listextattr
_mac_vnode_check_lookup
_mac_vnode_check_open
_mac_vnode_check_read
_mac_vnode_check_readdir
_mac_vnode_check_readlink
_mac_vnode_check_rename_from
_mac_vnode_check_rename_to
_mac_vnode_check_revoke
_mac_vnode_check_searchfs
_mac_vnode_check_select
_mac_vnode_check_setattrlist
_mac_vnode_check_setextattr
_mac_vnode_check_setflags
_mac_vnode_check_setmode
_mac_vnode_check_setowner
_mac_vnode_check_setutimes
_mac_vnode_check_signature
_mac_vnode_check_stat
_mac_vnode_check_truncate
_mac_vnode_check_uipc_bind
_mac_vnode_check_uipc_connect
_mac_vnode_check_unlink
_mac_vnode_check_write
_mac_vnode_enforce
_mac_vnode_find_sigs
_mac_vnode_label_alloc
_mac_vnode_label_associate
_mac_vnode_label_associate_devfs
_mac_vnode_label_associate_extattr
_mac_vnode_label_associate_fdesc
_mac_vnode_label_associate_singlelabel
_mac_vnode_label_copy
_mac_vnode_label_externalize
_mac_vnode_label_externalize_audit
_mac_vnode_label_free
_mac_vnode_label_init
_mac_vnode_label_init_needed
_mac_vnode_label_internalize
_mac_vnode_label_recycle
_mac_vnode_label_update
_mac_vnode_label_update_extattr
_mac_vnode_notify_create
_mac_vnode_notify_link
_mac_vnode_notify_open
_mac_vnode_notify_rename
_mac_vnop_getxattr
_mac_vnop_removexattr
_mac_vnop_setxattr
_mac_wire
_mac_zalloc
_mac_zfree
_mac_zinit
_mac_zone_change
_mach_absolute_time
_mach_assert
_mach_call_munger
_mach_call_munger64
_mach_destroy_memory_entry
_mach_exc_server
_mach_exc_server_routine
_mach_exception_raise
_mach_exception_raise_state
_mach_exception_raise_state_identity
_mach_factor
_mach_get_label
_mach_get_label_text
_mach_get_task_label
_mach_get_task_label_text
_mach_get_vm_end
_mach_get_vm_start
_mach_gss_accept_sec_context
_mach_gss_accept_sec_context_v2
_mach_gss_hold_cred
_mach_gss_init_sec_context
_mach_gss_init_sec_context_v2
_mach_gss_log_error
_mach_gss_lookup
_mach_gss_unhold_cred
_mach_host_server
_mach_host_server_routine
_mach_host_subsystem
_mach_kauth_cred_uthread_update
_mach_macx_triggers
_mach_make_memory_entry
_mach_make_memory_entry_64
_mach_memory_entry_get_page_counts
_mach_memory_entry_page_op
_mach_memory_entry_port_release
_mach_memory_entry_purgable_control
_mach_memory_entry_range_op
_mach_memory_object_memory_entry
_mach_memory_object_memory_entry_64
_mach_msg_overwrite
_mach_msg_overwrite_trap
_mach_msg_receive
_mach_msg_receive_continue
_mach_msg_receive_results
_mach_msg_rpc_from_kernel_body
_mach_msg_rpc_from_kernel_proper
_mach_msg_send
_mach_msg_send_from_kernel_proper
_mach_msg_send_from_kernel_with_options
_mach_msg_trap
_mach_notify_dead_name
_mach_notify_no_senders
_mach_notify_port_deleted
_mach_notify_port_destroyed
_mach_notify_send_once
_mach_notify_send_possible
_mach_port_allocate
_mach_port_allocate_full
_mach_port_allocate_name
_mach_port_allocate_qos
_mach_port_construct
_mach_port_deallocate
_mach_port_destroy
_mach_port_destruct
_mach_port_dnrequest_info
_mach_port_extract_member
_mach_port_extract_right
_mach_port_get_attributes
_mach_port_get_context
_mach_port_get_refs
_mach_port_get_set_status
_mach_port_get_srights
_mach_port_get_status_helper
_mach_port_guard
_mach_port_guard_ast
_mach_port_guard_exception
_mach_port_insert_member
_mach_port_insert_right
_mach_port_kernel_object
_mach_port_kobject
_mach_port_mod_refs
_mach_port_move_member
_mach_port_names
_mach_port_names_helper
_mach_port_peek
_mach_port_rename
_mach_port_request_notification
_mach_port_server
_mach_port_server_routine
_mach_port_set_attributes
_mach_port_set_context
_mach_port_set_mscount
_mach_port_set_seqno
_mach_port_space_info
_mach_port_subsystem
_mach_port_type
_mach_port_unguard
_mach_ports_lookup
_mach_ports_register
_mach_reply_port
_mach_set_port_label
_mach_syscall_name_table
_mach_timebase_info_trap
_mach_timer_coalescing_enabled
_mach_trap_count
_mach_trap_table
_mach_vm_allocate
_mach_vm_behavior_set
_mach_vm_copy
_mach_vm_ctl_page_free_wanted
_mach_vm_deallocate
_mach_vm_inherit
_mach_vm_machine_attribute
_mach_vm_map
_mach_vm_msync
_mach_vm_page_info
_mach_vm_page_query
_mach_vm_pressure_level_monitor
_mach_vm_pressure_monitor
_mach_vm_protect
_mach_vm_purgable_control
_mach_vm_read
_mach_vm_read_list
_mach_vm_read_overwrite
_mach_vm_region
_mach_vm_region_recurse
_mach_vm_remap
_mach_vm_server
_mach_vm_server_routine
_mach_vm_subsystem
_mach_vm_wire
_mach_vm_write
_mach_wait_until_trap
_mach_zone_force_gc
_mach_zone_info
_machclk_freq
_machclk_per_sec
_machdep_call_count
_machdep_call_table
_machdep_call_table64
_machdep_syscall
_machdep_syscall64
_machine_boot_info
_machine_choose_processor
_machine_delay_until
_machine_exception
_machine_idle
_machine_info
_machine_init
_machine_load_context
_machine_processor_is_inactive
_machine_processor_shutdown
_machine_read64
_machine_run_count
_machine_set_current_thread
_machine_signal_idle
_machine_stack_attach
_machine_stack_detach
_machine_stack_handoff
_machine_startup
_machine_switch_context
_machine_task_get_state
_machine_task_set_state
_machine_task_terminate
_machine_thread_create
_machine_thread_destroy
_machine_thread_dup
_machine_thread_get_kern_state
_machine_thread_get_state
_machine_thread_inherit_taskwide
_machine_thread_init
_machine_thread_set_state
_machine_thread_state_initialize
_machine_thread_switch_addrmode
_machine_timeout_suspended
_machine_trace_thread
_machine_trace_thread64
_machine_track_platform_idle
_machport_filtops
_machtrace_probe
_macx_backing_store_compaction
_macx_backing_store_recovery
_macx_backing_store_suspend
_macx_swapinfo
_macx_swapoff
_macx_swapon
_macx_swapon_allowed
_macx_triggers
_madvise
_madvise_free_debug
_makedevice
_manual_pkt
_map_fd
_map_fd_funneled
_map_server
_map_server_routine
_mapping_adjust
_mapping_free_prime
_mapping_replenish
_mapping_replenish_event
_mapping_replenish_thread
_mapping_set_mod
_mapping_set_ref
_mappingrecurse
_master_cpu
_master_device_port
_master_gdt
_master_gdtr
_master_idt64
_master_ktss64
_master_ldt
_master_processor
_master_sstk
_mature_sav_count
_max_cached_sock_count
_max_collision_count
_max_datalen
_max_doubled_size
_max_hdr
_max_mem
_max_nbuf_headers
_max_ncpus
_max_pages_trigger_port
_max_poll_computation
_max_poll_quanta
_max_ppnum
_max_preemption_latency_tsc
_max_rt_quantum
_max_task_footprint
_max_unsafe_computation
_max_unsafe_quanta
_max_valid_dma_address
_max_valid_low_ppnum
_max_valid_stack_address
_maxclsyspri
_maxdmap
_maxfiles
_maximum_pages_free
_maxpipekva
_maxproc
_maxprocperuid
_maxseg_unacked
_maxsmap
_maxsockets
_maxvfsconf
_maxvfsslots
_mb_map
_mb_stat
_mbstat
_mbuf_add_drvaux
_mbuf_adj
_mbuf_adjustlen
_mbuf_align_32
_mbuf_alloccluster
_mbuf_allocpacket
_mbuf_allocpacket_list
_mbuf_attachcluster
_mbuf_clear_csum_performed
_mbuf_clear_csum_requested
_mbuf_clear_vlan_tag
_mbuf_concatenate
_mbuf_copy_pkthdr
_mbuf_copyback
_mbuf_copydata
_mbuf_copym
_mbuf_data
_mbuf_data_to_physical
_mbuf_datastart
_mbuf_del_drvaux
_mbuf_dup
_mbuf_find_drvaux
_mbuf_flags
_mbuf_free
_mbuf_freecluster
_mbuf_freem
_mbuf_freem_list
_mbuf_get
_mbuf_get_csum_performed
_mbuf_get_csum_requested
_mbuf_get_driver_scratch
_mbuf_get_mhlen
_mbuf_get_minclsize
_mbuf_get_mlen
_mbuf_get_service_class
_mbuf_get_service_class_index
_mbuf_get_service_class_max_count
_mbuf_get_traffic_class
_mbuf_get_traffic_class_index
_mbuf_get_traffic_class_max_count
_mbuf_get_tso_requested
_mbuf_get_vlan_tag
_mbuf_getcluster
_mbuf_gethdr
_mbuf_getpacket
_mbuf_inbound_modified
_mbuf_inet6_cksum
_mbuf_inet_cksum
_mbuf_is_traffic_class_privileged
_mbuf_leadingspace
_mbuf_len
_mbuf_maxlen
_mbuf_mclget
_mbuf_mclhasreference
_mbuf_next
_mbuf_nextpkt
_mbuf_outbound_finalize
_mbuf_pkthdr_adjustlen
_mbuf_pkthdr_aux_flags
_mbuf_pkthdr_header
_mbuf_pkthdr_len
_mbuf_pkthdr_rcvif
_mbuf_pkthdr_setheader
_mbuf_pkthdr_setlen
_mbuf_pkthdr_setrcvif
_mbuf_prepend
_mbuf_pulldown
_mbuf_pullup
_mbuf_set_csum_performed
_mbuf_set_csum_requested
_mbuf_set_service_class
_mbuf_set_traffic_class
_mbuf_set_vlan_tag
_mbuf_setdata
_mbuf_setflags
_mbuf_setflags_mask
_mbuf_setlen
_mbuf_setnext
_mbuf_setnextpkt
_mbuf_settype
_mbuf_split
_mbuf_stats
_mbuf_tag_allocate
_mbuf_tag_find
_mbuf_tag_free
_mbuf_tag_id_find
_mbuf_trailingspace
_mbuf_type
_mbutl
_mc_task_stack
_mc_task_stack_end
_mca_check_save
_mca_cpu_alloc
_mca_cpu_init
_mca_dump
_mca_exception_panic
_mca_is_cmci_present
_mcache_audit_cache
_mcl_to_paddr
_md_prepare_for_shutdown
_mdev
_mdevBMajor
_mdevCMajor
_mdevadd
_mdevinit
_mdevlookup
_mdevremoveall
_mem_actual
_mem_size
_memchr
_memcmp
_memcpy
_memmove
_memname
_memory_manager_default
_memory_manager_default_lock
_memory_object_change_attributes
_memory_object_cluster_size
_memory_object_control_deallocate
_memory_object_control_disable
_memory_object_control_reference
_memory_object_control_server
_memory_object_control_server_routine
_memory_object_control_subsystem
_memory_object_control_uiomove
_memory_object_create
_memory_object_create_named
_memory_object_data_initialize
_memory_object_data_reclaim
_memory_object_data_request
_memory_object_data_return
_memory_object_data_unlock
_memory_object_deallocate
_memory_object_default_deallocate
_memory_object_default_reference
_memory_object_default_server
_memory_object_default_server_routine
_memory_object_destroy
_memory_object_get_attributes
_memory_object_init
_memory_object_iopl_request
_memory_object_is_signed
_memory_object_is_slid
_memory_object_last_unmap
_memory_object_lock_page
_memory_object_lock_request
_memory_object_map
_memory_object_mark_unused
_memory_object_mark_used
_memory_object_name_server
_memory_object_name_server_routine
_memory_object_name_subsystem
_memory_object_page_op
_memory_object_pages_resident
_memory_object_range_op
_memory_object_recover_named
_memory_object_reference
_memory_object_release_name
_memory_object_server
_memory_object_server_routine
_memory_object_signed
_memory_object_super_upl_request
_memory_object_synchronize
_memory_object_synchronize_completed
_memory_object_terminate
_memory_object_upl_request
_memoryshot
_memorystatus_add
_memorystatus_control
_memorystatus_dirty_get
_memorystatus_dirty_set
_memorystatus_dirty_track
_memorystatus_filtops
_memorystatus_get_level
_memorystatus_idle_exit_from_VM
_memorystatus_kevent_init
_memorystatus_klist
_memorystatus_knote_register
_memorystatus_knote_unregister
_memorystatus_level
_memorystatus_manual_testing_level
_memorystatus_manual_testing_on
_memorystatus_on_inactivity
_memorystatus_on_pageout_scan_end
_memorystatus_on_resume
_memorystatus_on_suspend
_memorystatus_on_terminate
_memorystatus_purge_on_critical
_memorystatus_purge_on_urgent
_memorystatus_purge_on_warning
_memorystatus_remove
_memorystatus_update
_memorystatus_update_vm_pressure
_memorystatus_vm_pressure_level
_memorystatus_wakeup
_memset
_memstat_bucket
_memstat_idle_demotion_deadline
_meta_is_stale
_meta_zones
_microtime
_microtime_with_abstime
_microuptime
_mig_buckets
_mig_dealloc_reply_port
_mig_e
_mig_get_reply_port
_mig_init
_mig_object_deallocate
_mig_object_destroy
_mig_object_init
_mig_object_no_senders
_mig_object_reference
_mig_put_reply_port
_mig_reply_size
_mig_strncpy
_mig_table_max_displ
_mig_user_allocate
_mig_user_deallocate
_min_pages_trigger_port
_min_rt_quantum
_min_std_quantum
_min_valid_stack_address
_mincore
_minherit
_minimum_pages_remaining
_minphys
_mk_timer_arm_trap
_mk_timer_cancel_trap
_mk_timer_create_trap
_mk_timer_destroy_trap
_mk_timer_init
_mk_timer_port_destroy
_mkdir
_mkdir_extended
_mkext_adler32
_mkfifo
_mkfifo_extended
_mknod
_ml_affinity_to_pset
_ml_at_interrupt_context
_ml_cause_interrupt
_ml_cpu_cache_sharing
_ml_cpu_cache_size
_ml_cpu_down
_ml_cpu_get_info
_ml_cpu_int_event_time
_ml_cpu_set_ldt
_ml_cpu_up
_ml_delay_should_spin
_ml_early_random
_ml_fp_setvalid
_ml_fpu_avx_enabled
_ml_get_apicid
_ml_get_bouncepool_info
_ml_get_cpuid
_ml_get_csw_threads
_ml_get_interrupt_prewake_applicable
_ml_get_interrupts_enabled
_ml_get_max_affinity_sets
_ml_get_max_cpus
_ml_get_maxbusdelay
_ml_get_maxintdelay
_ml_get_maxsnoop
_ml_get_power_state
_ml_get_timebase
_ml_init_delay_spin_threshold
_ml_init_interrupt
_ml_init_lock_timeout
_ml_init_max_cpus
_ml_install_interrupt_handler
_ml_interrupt_prewarm
_ml_io_map
_ml_is64bit
_ml_nofault_copy
_ml_phys_read
_ml_phys_read_64
_ml_phys_read_byte
_ml_phys_read_byte_64
_ml_phys_read_double
_ml_phys_read_double_64
_ml_phys_read_half
_ml_phys_read_half_64
_ml_phys_read_word
_ml_phys_read_word_64
_ml_phys_write
_ml_phys_write_64
_ml_phys_write_byte
_ml_phys_write_byte_64
_ml_phys_write_double
_ml_phys_write_double_64
_ml_phys_write_half
_ml_phys_write_half_64
_ml_phys_write_word
_ml_phys_write_word_64
_ml_probe_read
_ml_probe_read_64
_ml_processor_register
_ml_recent_wake
_ml_set_interrupts_enabled
_ml_set_maxbusdelay
_ml_set_maxintdelay
_ml_set_maxsnoop
_ml_stack_remaining
_ml_state_is64bit
_ml_static_malloc
_ml_static_mfree
_ml_static_ptovirt
_ml_thread_is64bit
_ml_thread_policy
_ml_timer_eager_evaluation_max
_ml_timer_eager_evaluations
_ml_timer_evaluate
_ml_timer_forced_evaluation
_ml_timer_get_user_idle_level
_ml_timer_set_user_idle_level
_ml_validate_nofault
_ml_vtophys
_mld_change_state
_mld_debug
_mld_domifattach
_mld_domifdetach
_mld_domifreattach
_mld_init
_mld_input
_mld_set_timeout
_mli_addref
_mli_remref
_mlock
_mlockall
_mmFree
_mmGetPtr
_mmInit
_mmMalloc
_mmReturnPtr
_mmap
_mmioctl
_mmread
_mmrw
_mmwrite
_mnt_lck_attr
_mnt_lck_grp
_mnt_lck_grp_attr
_mnt_list_lck_attr
_mnt_list_lck_grp
_mnt_list_lck_grp_attr
_mnt_list_mtx_lock
_mntid_gen
_mod_lock
_modetodirtype
_modwatch
_mount
_mount_drop
_mount_dropcrossref
_mount_generation
_mount_isdrained
_mount_iterdrain
_mount_iterdrop
_mount_iterref
_mount_iterreset
_mount_list_add
_mount_list_lock
_mount_list_lookupby_fsid
_mount_list_remove
_mount_list_unlock
_mount_lock
_mount_lock_destroy
_mount_lock_init
_mount_lock_renames
_mount_lock_spin
_mount_lookupby_volfsid
_mount_ref
_mount_refdrain
_mount_set_noreaddirext
_mount_unlock
_mount_unlock_renames
_mountlist
_mountnfs
_mountroot
_mountroot_post_hook
_mp_bc_lock_ext
_mp_broadcast
_mp_cpu_boot_lock_ext
_mp_cpus_call
_mp_cpus_call1
_mp_kdp_enter
_mp_kdp_exit
_mp_kdp_lock
_mp_kdp_ncpus
_mp_kdp_state
_mp_kdp_trap
_mp_recent_debugger_activity
_mp_rendezvous
_mp_rendezvous_break_lock
_mp_rendezvous_no_intrs
_mp_rv_lock
_mp_slave_stack
_mprotect
_msg_ool_size_small
_msg_receive_error
_msgbuf
_msgbufp
_msgctl
_msgget
_msghdrs
_msginfo
_msgmaps
_msgmax
_msgmnb
_msgmni
_msgpool
_msgq_sbspace
_msgrcv
_msgrcv_nocancel
_msgseg
_msgsnd
_msgsnd_nocancel
_msgssz
_msgsys
_msgtql
_msleep
_msleep0
_msleep1
_msqids
_msync
_msync_nocancel
_mtrr_init
_mtrr_range_add
_mtrr_range_remove
_mtrr_update_all_cpus
_mtrr_update_cpu
_munge_l
_munge_ll
_munge_llllll
_munge_lw
_munge_lwww
_munge_user32_stat
_munge_user32_stat64
_munge_user64_stat
_munge_user64_stat64
_munge_w
_munge_wl
_munge_wll
_munge_wlll
_munge_wllww
_munge_wllwwll
_munge_wlw
_munge_wlwwlwlw
_munge_wlwwwll
_munge_wlwwwllw
_munge_wsw
_munge_ww
_munge_wwl
_munge_wwlll
_munge_wwllww
_munge_wwlw
_munge_wwlwww
_munge_wws
_munge_www
_munge_wwwl
_munge_wwwlw
_munge_wwwlww
_munge_wwwsw
_munge_wwww
_munge_wwwwl
_munge_wwwwlw
_munge_wwwww
_munge_wwwwwl
_munge_wwwwwlll
_munge_wwwwwllw
_munge_wwwwwlww
_munge_wwwwww
_munge_wwwwwwl
_munge_wwwwwwll
_munge_wwwwwwlw
_munge_wwwwwww
_munge_wwwwwwww
_munlock
_munlockall
_munmap
_mutex_alloc_EXT
_mutex_free_EXT
_mutex_init_EXT
_mutex_pause
_mutex_yield_no_wait
_mutex_yield_wait
_my_name
_mynum_flavors
_n_storage_buffers
_n_storage_threshold
_n_storage_units
_name_cache_lock
_name_cache_lock_shared
_name_cache_unlock
_namecache_lck_attr
_namecache_lck_grp
_namecache_lck_grp_attr
_namecache_rw_lock
_namei
_namei_compound_available
_nameidone
_nanoseconds_to_absolutetime
_nanotime
_nanotime_to_absolutetime
_nanouptime
_nbdwrite
_nblkdev
_nbuf_hashelements
_nbuf_headers
_nc_disabled
_ncallout
_nchash
_nchashmask
_nchashtbl
_nchead
_nchinit
_nchrdev
_ncl
_nclusters
_nconsops
_ncpus_lock
_ncs_negtotal
_nd6_accept_6to4
_nd6_alt_node_absent
_nd6_alt_node_addr_decompose
_nd6_alt_node_present
_nd6_cache_lladdr
_nd6_dad_duplicated
_nd6_dad_start
_nd6_dad_stop
_nd6_dad_stoptimer
_nd6_debug
_nd6_defifindex
_nd6_delay
_nd6_drain
_nd6_free
_nd6_gctimer
_nd6_if_disable
_nd6_if_prproxy
_nd6_ifattach
_nd6_ifptomac
_nd6_ifreset
_nd6_init
_nd6_ioctl
_nd6_is_addr_neighbor
_nd6_llreach_alloc
_nd6_llreach_set_reachable
_nd6_llreach_use
_nd6_lookup
_nd6_lookup_ipv6
_nd6_maxndopt
_nd6_maxqueuelen
_nd6_mmaxtries
_nd6_mutex
_nd6_na_input
_nd6_na_output
_nd6_nbr_init
_nd6_need_cache
_nd6_ns_input
_nd6_ns_output
_nd6_onlink_ns_rfc4861
_nd6_optimistic_dad
_nd6_option
_nd6_option_init
_nd6_options
_nd6_output
_nd6_post_msg
_nd6_prefix_lookup
_nd6_prefix_offlink
_nd6_prefix_onlink
_nd6_prefix_onlink_scoped
_nd6_prelist_add
_nd6_proxy_find_fwdroute
_nd6_prproxy
_nd6_prproxy_ifaddr
_nd6_prproxy_init
_nd6_prproxy_isours
_nd6_prproxy_na_input
_nd6_prproxy_ns_input
_nd6_prproxy_ns_output
_nd6_prproxy_prelist_update
_nd6_prproxy_sols_prune
_nd6_prproxy_sols_reap
_nd6_prune
_nd6_prune_lazy
_nd6_purge
_nd6_ra_input
_nd6_recalc_reachtm_interval
_nd6_rs_input
_nd6_rtr_init
_nd6_rtrequest
_nd6_sched_timeout
_nd6_sched_timeout_want
_nd6_send_opstate
_nd6_setdefaultiface
_nd6_setifinfo
_nd6_setmtu
_nd6_storelladdr
_nd6_umaxtries
_nd6_useloopback
_nd_defrouter
_nd_if_rwlock
_nd_if_rwlock_data
_nd_ifinfo
_nd_ifinfo_indexlim
_nd_prefix
_nddr_addref
_nddr_getexpire
_nddr_remref
_ndflush
_ndpr_addref
_ndpr_getexpire
_ndpr_remref
_ndqb
_ndrv_recvspace
_ndrv_sendspace
_ndrvdomain_s
_ndrvl
_need_fsevent
_need_to_unlock_decompressor
_neghead
_nestedpanic
_net_add_domain_old
_net_add_proto
_net_add_proto_old
_net_affinity
_net_del_domain_old
_net_del_proto
_net_del_proto_old
_net_drain_domains
_net_flowhash
_net_flowhash_jhash
_net_flowhash_mh3_x64_128
_net_flowhash_mh3_x86_32
_net_init_add
_net_init_proto
_net_io_policy_log
_net_io_policy_uuid
_net_rxpoll
_net_sysctl
_net_update_uptime
_net_update_uptime_secs
_net_uptime
_net_uptime2timeval
_netboot_iaddr
_netboot_mountroot
_netboot_root
_netboot_rootpath
_netboot_setup
_netpolicy_post_msg
_new_nkdbufs
_new_sysctl
_nextc
_nextsect
_nextsegfromheader
_nfiles
_nfs3_access_rpc
_nfs3_commit_rpc
_nfs3_fsinfo
_nfs3_funcs
_nfs3_getattr_rpc
_nfs3_getlock_rpc
_nfs3_getquota
_nfs3_lockd_request
_nfs3_lookup_rpc_async
_nfs3_lookup_rpc_async_finish
_nfs3_mount
_nfs3_mount_rpc
_nfs3_pathconf_cache
_nfs3_pathconf_rpc
_nfs3_read_rpc_async
_nfs3_read_rpc_async_finish
_nfs3_readdir_rpc
_nfs3_readlink_rpc
_nfs3_remove_rpc
_nfs3_rename_rpc
_nfs3_setattr_rpc
_nfs3_setlock_rpc
_nfs3_umount_rpc
_nfs3_unlock_rpc
_nfs3_update_statfs
_nfs3_vnop_create
_nfs3_vnop_getattr
_nfs3_vnop_link
_nfs3_vnop_mkdir
_nfs3_vnop_mknod
_nfs3_vnop_rmdir
_nfs3_vnop_symlink
_nfs3_write_rpc_async
_nfs3_write_rpc_async_finish
_nfs4_access_rpc
_nfs4_ace_nfsflags_to_vfsflags
_nfs4_ace_nfsmask_to_vfsrights
_nfs4_ace_nfstype_to_vfstype
_nfs4_ace_vfsflags_to_nfsflags
_nfs4_ace_vfsrights_to_nfsmask
_nfs4_ace_vfstype_to_nfstype
_nfs4_callback_timer
_nfs4_callback_timer_call
_nfs4_callback_timer_on
_nfs4_cb_accept
_nfs4_cb_handler
_nfs4_cb_id
_nfs4_cb_mounts
_nfs4_cb_port
_nfs4_cb_port6
_nfs4_cb_rcv
_nfs4_cb_so
_nfs4_cb_so6
_nfs4_cb_so_usecount
_nfs4_cb_socks
_nfs4_claim_delegated_open_rpc
_nfs4_claim_delegated_state_for_node
_nfs4_claim_delegated_state_for_open_file
_nfs4_close_rpc
_nfs4_commit_rpc
_nfs4_create_rpc
_nfs4_default_attrs_for_referral_trigger
_nfs4_delegation_return
_nfs4_delegation_return_enqueue
_nfs4_delegreturn_rpc
_nfs4_funcs
_nfs4_get_fs_locations
_nfs4_getattr_rpc
_nfs4_getlock_rpc
_nfs4_getquota
_nfs4_guid2id
_nfs4_id2guid
_nfs4_init_clientid
_nfs4_lookup_rpc_async
_nfs4_lookup_rpc_async_finish
_nfs4_mount
_nfs4_mount_callback_setup
_nfs4_mount_callback_shutdown
_nfs4_mount_update_path_with_symlink
_nfs4_named_attr_dir_get
_nfs4_named_attr_get
_nfs4_named_attr_remove
_nfs4_open
_nfs4_open_confirm_rpc
_nfs4_open_delegated
_nfs4_open_downgrade_rpc
_nfs4_open_reclaim_rpc
_nfs4_open_reopen_rpc
_nfs4_open_rpc
_nfs4_open_rpc_internal
_nfs4_parsefattr
_nfs4_pathconf_rpc
_nfs4_read_rpc_async
_nfs4_read_rpc_async_finish
_nfs4_readdir_rpc
_nfs4_readlink_rpc
_nfs4_remove_rpc
_nfs4_rename_rpc
_nfs4_renew
_nfs4_renew_timer
_nfs4_reopen
_nfs4_secinfo_rpc
_nfs4_setattr_rpc
_nfs4_setclientid
_nfs4_setlock_rpc
_nfs4_unlock_rpc
_nfs4_update_statfs
_nfs4_vnop_create
_nfs4_vnop_getattr
_nfs4_vnop_getnamedstream
_nfs4_vnop_getxattr
_nfs4_vnop_link
_nfs4_vnop_listxattr
_nfs4_vnop_makenamedstream
_nfs4_vnop_mkdir
_nfs4_vnop_mknod
_nfs4_vnop_removenamedstream
_nfs4_vnop_removexattr
_nfs4_vnop_rmdir
_nfs4_vnop_setxattr
_nfs4_vnop_symlink
_nfs4_write_rpc_async
_nfs4_write_rpc_async_finish
_nfs_access_cache_timeout
_nfs_access_delete
_nfs_access_dotzfs
_nfs_access_for_getattr
_nfs_advlock_getlock
_nfs_advlock_setlock
_nfs_advlock_unlock
_nfs_allow_async
_nfs_async_write_done
_nfs_async_write_start
_nfs_asyncio_finish
_nfs_asyncio_resend
_nfs_attrcachetimeout
_nfs_aux_request
_nfs_avoid_needless_id_setting_on_create
_nfs_bioread
_nfs_boot_getfh
_nfs_boot_init
_nfs_buf_acquire
_nfs_buf_check_write_verifier
_nfs_buf_delwri_push
_nfs_buf_delwri_service
_nfs_buf_delwri_thread
_nfs_buf_drop
_nfs_buf_freeup
_nfs_buf_get
_nfs_buf_incore
_nfs_buf_iodone
_nfs_buf_iowait
_nfs_buf_is_incore
_nfs_buf_itercomplete
_nfs_buf_iterprepare
_nfs_buf_lck_grp
_nfs_buf_map
_nfs_buf_mutex
_nfs_buf_normalize_valid_range
_nfs_buf_page_inval
_nfs_buf_read
_nfs_buf_read_finish
_nfs_buf_read_rpc
_nfs_buf_read_rpc_finish
_nfs_buf_readahead
_nfs_buf_readdir
_nfs_buf_refget
_nfs_buf_refrele
_nfs_buf_release
_nfs_buf_remfree
_nfs_buf_timer
_nfs_buf_timer_call
_nfs_buf_timer_on
_nfs_buf_upl_check
_nfs_buf_upl_setup
_nfs_buf_write
_nfs_buf_write_delayed
_nfs_buf_write_dirty_pages
_nfs_buf_write_finish
_nfs_buf_write_rpc
_nfs_buf_write_rpc_finish
_nfs_callback_port
_nfs_can_squish
_nfs_case_insensitive
_nfs_check_for_locks
_nfs_close
_nfs_connect
_nfs_connect_error_class
_nfs_connect_search_check
_nfs_connect_search_loop
_nfs_connect_search_new_socket
_nfs_connect_search_ping
_nfs_connect_search_socket_connect
_nfs_connect_search_socket_found
_nfs_connect_search_socket_reap
_nfs_connect_setup
_nfs_connect_upcall
_nfs_data_lock
_nfs_data_lock_internal
_nfs_data_lock_noupdate
_nfs_data_unlock
_nfs_data_unlock_internal
_nfs_data_unlock_noupdate
_nfs_data_update_size
_nfs_debug_ctl
_nfs_dir_buf_cache_lookup
_nfs_dir_buf_freespace
_nfs_dir_buf_search
_nfs_dir_cookie_cache
_nfs_dir_cookie_to_lbn
_nfs_disconnect
_nfs_down
_nfs_dulookup_finish
_nfs_dulookup_init
_nfs_dulookup_start
_nfs_ephemeral_mount_harvester
_nfs_ephemeral_mount_harvester_start
_nfs_file_lock_alloc
_nfs_file_lock_conflict
_nfs_file_lock_destroy
_nfs_flush
_nfs_flushcommits
_nfs_fs_attr_bitmap
_nfs_fs_locations_cleanup
_nfs_get_stateid
_nfs_get_xid
_nfs_getattr
_nfs_getattr_bitmap
_nfs_getattrcache
_nfs_global_mutex
_nfs_gss_clnt_args_restore
_nfs_gss_clnt_cred_put
_nfs_gss_clnt_ctx_destroy
_nfs_gss_clnt_ctx_ref
_nfs_gss_clnt_ctx_renew
_nfs_gss_clnt_ctx_unmount
_nfs_gss_clnt_ctx_unref
_nfs_gss_clnt_grp
_nfs_gss_clnt_rpcdone
_nfs_gss_clnt_verf_get
_nfs_gss_ctx_count
_nfs_gss_ctx_max
_nfs_gss_init
_nfs_gss_svc_cleanup
_nfs_gss_svc_cred_get
_nfs_gss_svc_ctx_deref
_nfs_gss_svc_ctx_hash
_nfs_gss_svc_ctx_hashtbl
_nfs_gss_svc_ctx_init
_nfs_gss_svc_ctx_mutex
_nfs_gss_svc_ctx_timer_call
_nfs_gss_svc_grp
_nfs_gss_svc_prepare_reply
_nfs_gss_svc_protect_reply
_nfs_gss_svc_verf_put
_nfs_gss_timer_on
_nfs_hash
_nfs_idmap_ctrl
_nfs_interval_timer_start
_nfs_invaldir
_nfs_iosize
_nfs_is_dead
_nfs_is_mobile
_nfs_is_squishy
_nfs_loadattrcache
_nfs_location_index_cmp
_nfs_location_mntfromname
_nfs_location_next
_nfs_lock_owner_clear_busy
_nfs_lock_owner_destroy
_nfs_lock_owner_find
_nfs_lock_owner_insert_held_lock
_nfs_lock_owner_ref
_nfs_lock_owner_rele
_nfs_lock_owner_seqnum
_nfs_lock_owner_set_busy
_nfs_lockd_mount_list
_nfs_lockd_mount_register
_nfs_lockd_mount_unregister
_nfs_lockd_mounts
_nfs_lockd_request_sent
_nfs_lockd_send_request
_nfs_lockdmsg_compare_to_answer
_nfs_lockdmsg_dequeue
_nfs_lockdmsg_enqueue
_nfs_lockdmsg_find_by_answer
_nfs_lockdmsg_find_by_xid
_nfs_lockinit
_nfs_lockxid_get
_nfs_lookitup
_nfs_max_async_writes
_nfs_mbuf_init
_nfs_mbuf_mhlen
_nfs_mbuf_minclsize
_nfs_mirror_mount_domount
_nfs_mirror_mount_trigger_rearm
_nfs_mirror_mount_trigger_resolve
_nfs_mirror_mount_trigger_unresolve
_nfs_mount_check_dead_timeout
_nfs_mount_cleanup
_nfs_mount_connect
_nfs_mount_connect_thread
_nfs_mount_is_dirty
_nfs_mount_sock_thread
_nfs_mount_sock_thread_wake
_nfs_mount_state_error_delegation_lost
_nfs_mount_state_error_should_restart
_nfs_mount_state_in_use_end
_nfs_mount_state_in_use_start
_nfs_mount_state_max_restarts
_nfs_mount_state_wait_for_recovery
_nfs_mountinfo_assemble
_nfs_mountroot
_nfs_msg
_nfs_name_cache_purge
_nfs_nbdwrite
_nfs_nbinit
_nfs_need_reconnect
_nfs_need_recover
_nfs_nget
_nfs_nhinit
_nfs_nhinit_finish
_nfs_node_access_slot
_nfs_node_clear_busy
_nfs_node_clear_busy2
_nfs_node_clear_busy4
_nfs_node_hash_mutex
_nfs_node_lock
_nfs_node_lock2
_nfs_node_lock_force
_nfs_node_lock_internal
_nfs_node_set_busy
_nfs_node_set_busy2
_nfs_node_set_busy4
_nfs_node_unlock
_nfs_node_unlock2
_nfs_noremotehang
_nfs_object_attr_bitmap
_nfs_open_file_add_open
_nfs_open_file_clear_busy
_nfs_open_file_destroy
_nfs_open_file_find
_nfs_open_file_find_internal
_nfs_open_file_remove_open
_nfs_open_file_remove_open_find
_nfs_open_file_set_busy
_nfs_open_grp
_nfs_open_owner_clear_busy
_nfs_open_owner_destroy
_nfs_open_owner_find
_nfs_open_owner_ref
_nfs_open_owner_rele
_nfs_open_owner_seqnum
_nfs_open_owner_set_busy
_nfs_open_state_clear_busy
_nfs_open_state_set_busy
_nfs_owner_seqid_increment
_nfs_pageouterrorhandler
_nfs_parsefattr
_nfs_portmap_lookup
_nfs_printf
_nfs_read_rpc
_nfs_reconnect
_nfs_recover
_nfs_release_open_state_for_node
_nfs_removeit
_nfs_reqbusy
_nfs_reqdequeue
_nfs_reqnext
_nfs_reqq
_nfs_request
_nfs_request2
_nfs_request_add_header
_nfs_request_async
_nfs_request_async_cancel
_nfs_request_async_finish
_nfs_request_create
_nfs_request_destroy
_nfs_request_finish
_nfs_request_grp
_nfs_request_gss
_nfs_request_match_reply
_nfs_request_mutex
_nfs_request_ref
_nfs_request_rele
_nfs_request_send
_nfs_request_timer
_nfs_request_timer_call
_nfs_request_timer_on
_nfs_request_using_gss
_nfs_request_wait
_nfs_revoke_open_state_for_node
_nfs_rpc_record_read
_nfs_rpc_record_state_cleanup
_nfs_rpc_record_state_init
_nfs_send
_nfs_sigintr
_nfs_sillyrename
_nfs_single_des
_nfs_sndlock
_nfs_sndunlock
_nfs_sock_poke
_nfs_sockaddr_cmp
_nfs_socket_create
_nfs_socket_destroy
_nfs_socket_options
_nfs_socket_search_cleanup
_nfs_socket_search_update_error
_nfs_softterm
_nfs_squishy_flags
_nfs_statfs_rate_limit
_nfs_sync_callout
_nfs_tcp_rcv
_nfs_ticks
_nfs_tprintf_delay
_nfs_tprintf_initial_delay
_nfs_uaddr2sockaddr
_nfs_udp_rcv
_nfs_up
_nfs_vattr_set_bitmap
_nfs_vattr_set_supported
_nfs_vfs_fhtovp
_nfs_vfs_getattr
_nfs_vfs_init
_nfs_vfs_mount
_nfs_vfs_quotactl
_nfs_vfs_root
_nfs_vfs_start
_nfs_vfs_sync
_nfs_vfs_sysctl
_nfs_vfs_unmount
_nfs_vfs_vget
_nfs_vfs_vptofh
_nfs_vfsops
_nfs_vinvalbuf
_nfs_vinvalbuf2
_nfs_vinvalbuf_internal
_nfs_vnode_notify
_nfs_vnop_access
_nfs_vnop_advlock
_nfs_vnop_blktooff
_nfs_vnop_blockmap
_nfs_vnop_close
_nfs_vnop_fsync
_nfs_vnop_inactive
_nfs_vnop_ioctl
_nfs_vnop_lookup
_nfs_vnop_mmap
_nfs_vnop_mnomap
_nfs_vnop_monitor
_nfs_vnop_offtoblk
_nfs_vnop_open
_nfs_vnop_pagein
_nfs_vnop_pageout
_nfs_vnop_pathconf
_nfs_vnop_read
_nfs_vnop_readdir
_nfs_vnop_readlink
_nfs_vnop_reclaim
_nfs_vnop_remove
_nfs_vnop_rename
_nfs_vnop_select
_nfs_vnop_setattr
_nfs_vnop_write
_nfs_wait_bufs
_nfs_wait_reply
_nfs_write_rpc
_nfs_write_rpc2
_nfs_xid
_nfs_xidwrap
_nfsbufcnt
_nfsbufdelwri
_nfsbufdelwricnt
_nfsbufdelwrithd
_nfsbuffree
_nfsbuffreecnt
_nfsbuffreemeta
_nfsbuffreemetacnt
_nfsbufhash
_nfsbufhashtbl
_nfsbufmax
_nfsbufmetacnt
_nfsbufmetamax
_nfsbufmin
_nfsclientids
_nfsclnt
_nfsd_head
_nfsd_lck_grp
_nfsd_mutex
_nfsd_queue
_nfsd_thread_count
_nfsd_thread_max
_nfsfifo_vnop_close
_nfsfifo_vnop_read
_nfsfifo_vnop_write
_nfsiod_continue
_nfsiod_lck_grp
_nfsiod_mutex
_nfsiod_start
_nfsiod_terminate
_nfsiod_thread
_nfsiod_thread_count
_nfsiod_thread_max
_nfsiodfree
_nfsiodmounts
_nfsiodwork
_nfslockdans
_nfslockdnotify
_nfsm_adj
_nfsm_chain_add_fattr
_nfsm_chain_add_fattr4_f
_nfsm_chain_add_opaque_f
_nfsm_chain_add_opaque_nopad_f
_nfsm_chain_add_string_nfc
_nfsm_chain_add_uio
_nfsm_chain_add_v2sattr_f
_nfsm_chain_add_v3sattr_f
_nfsm_chain_add_wcc_data_f
_nfsm_chain_advance
_nfsm_chain_get_fh_attr
_nfsm_chain_get_opaque_f
_nfsm_chain_get_opaque_pointer_f
_nfsm_chain_get_path_namei
_nfsm_chain_get_sattr
_nfsm_chain_get_secinfo
_nfsm_chain_get_uio
_nfsm_chain_get_wcc_data_f
_nfsm_chain_new_mbuf
_nfsm_chain_offset
_nfsm_chain_reverse
_nfsm_chain_trim_data
_nfsm_mbuf_get_list
_nfsm_rpchead
_nfsm_rpchead2
_nfsneedbuffer
_nfsrv_access
_nfsrv_active_user_list_reclaim
_nfsrv_active_user_mutex_group
_nfsrv_async
_nfsrv_authorize
_nfsrv_cleancache
_nfsrv_cleanup
_nfsrv_cmp_secflavs
_nfsrv_commit
_nfsrv_create
_nfsrv_credcheck
_nfsrv_deadsock_timer
_nfsrv_deadsock_timer_call
_nfsrv_deadsocklist
_nfsrv_dorec
_nfsrv_errmap
_nfsrv_export
_nfsrv_export_hash
_nfsrv_export_hash_size
_nfsrv_export_hashtbl
_nfsrv_export_lookup
_nfsrv_export_rwlock
_nfsrv_export_rwlock_group
_nfsrv_exports
_nfsrv_fhmatch
_nfsrv_fhtoexport
_nfsrv_fhtovp
_nfsrv_fmod_grp
_nfsrv_fmod_hash
_nfsrv_fmod_hashtbl
_nfsrv_fmod_min_interval
_nfsrv_fmod_mutex
_nfsrv_fmod_pending
_nfsrv_fmod_pendtime
_nfsrv_fmod_timer
_nfsrv_fmod_timer_call
_nfsrv_free_addrlist
_nfsrv_free_netopt
_nfsrv_free_user_list
_nfsrv_fsevents_enabled
_nfsrv_fsinfo
_nfsrv_get_user_stat_node
_nfsrv_getattr
_nfsrv_getcache
_nfsrv_getreq
_nfsrv_getstream
_nfsrv_group_sort
_nfsrv_gss_context_ttl
_nfsrv_hang_addrlist
_nfsrv_init
_nfsrv_init_user_list
_nfsrv_initcache
_nfsrv_is_initialized
_nfsrv_link
_nfsrv_lookup
_nfsrv_mkdir
_nfsrv_mknod
_nfsrv_modified
_nfsrv_namei
_nfsrv_noop
_nfsrv_null
_nfsrv_pathconf
_nfsrv_procs
_nfsrv_rcv
_nfsrv_rcv_locked
_nfsrv_read
_nfsrv_readdir
_nfsrv_readdirplus
_nfsrv_readlink
_nfsrv_remove
_nfsrv_rename
_nfsrv_rephead
_nfsrv_reqcache_hash
_nfsrv_reqcache_hashtbl
_nfsrv_reqcache_lck_grp
_nfsrv_reqcache_lruhead
_nfsrv_reqcache_mutex
_nfsrv_reqcache_size
_nfsrv_rmdir
_nfsrv_send
_nfsrv_setattr
_nfsrv_slp_mutex_group
_nfsrv_slp_rwlock_group
_nfsrv_slpderef
_nfsrv_slpfree
_nfsrv_sock_max_rec_queue_length
_nfsrv_socklist
_nfsrv_sockwait
_nfsrv_sockwg
_nfsrv_sockwork
_nfsrv_statfs
_nfsrv_symlink
_nfsrv_uc_addsock
_nfsrv_uc_cleanup
_nfsrv_uc_dequeue
_nfsrv_uc_init
_nfsrv_uc_queue_count
_nfsrv_uc_queue_limit
_nfsrv_uc_queue_max_seen
_nfsrv_uc_use_proxy
_nfsrv_udp6sock
_nfsrv_udpsock
_nfsrv_update_user_stat
_nfsrv_updatecache
_nfsrv_user_stat_enabled
_nfsrv_user_stat_max_idle_sec
_nfsrv_user_stat_max_nodes
_nfsrv_user_stat_node_count
_nfsrv_vptofh
_nfsrv_wakenfsd
_nfsrv_wg_coalesce
_nfsrv_wg_delay
_nfsrv_wg_delay_v3
_nfsrv_wg_timer
_nfsrv_wg_timer_call
_nfsrv_wg_timer_on
_nfsrv_write
_nfsrv_writegather
_nfsrv_zapsock
_nfsspec_vnop_close
_nfsspec_vnop_read
_nfsspec_vnop_write
_nfsstats
_nfssvc
_nfssvc_addsock
_nfssvc_export
_nfssvc_nfsd
_nfstov_type
_nfsv2_procid
_nfsv2_vnodeop_opv_desc
_nfsv2_vnodeop_p
_nfsv3_procid
_nfsv4_vnodeop_opv_desc
_nfsv4_vnodeop_p
_niobuf_headers
_njcl
_njclbytes
_nkdbufs
_nlinesw
_nmbclusters
_no_paging_space_action
_no_shared_cr3
_nobdev
_nocdev
_nonreserved_zalloc_count
_nop_access
_nop_advlock
_nop_allocate
_nop_blktooff
_nop_blockmap
_nop_bwrite
_nop_close
_nop_copyfile
_nop_create
_nop_exchange
_nop_fsync
_nop_getattr
_nop_inactive
_nop_ioctl
_nop_link
_nop_mkdir
_nop_mknod
_nop_mmap
_nop_offtoblk
_nop_open
_nop_pagein
_nop_pageout
_nop_pathconf
_nop_read
_nop_readdir
_nop_readdirattr
_nop_readlink
_nop_reclaim
_nop_remove
_nop_rename
_nop_revoke
_nop_rmdir
_nop_searchfs
_nop_select
_nop_setattr
_nop_strategy
_nop_symlink
_nop_whiteout
_nop_write
_noresume_on_disconnect
_noroot_icon_test
_nosys
_not_in_kdp
_nport
_nprocs
_npvhash
_nr_hashmask
_nr_hashtbl
_nr_lck_attr
_nr_lck_grp
_nr_lck_grp_attr
_nr_mutex
_nrdeletes
_nrinserts
_nselcoll
_nspace_allow_virtual_devs
_nspace_group_attr
_nspace_handler_exclusion_lock
_nspace_handler_init
_nspace_handler_lock
_nspace_handler_timeout
_nspace_handlers
_nspace_item_idx
_nspace_items
_nspace_lock_attr
_nspace_mutex_group
_nspace_proc_exit
_nspace_token_id
_nstat_providers
_nswap
_nswapmap
_nswdev
_nsysent
_nsysent_size_check
_nulldev
_nullop
_nullsys
_num_Lx_caches
_num_dropped
_num_events_outstanding
_num_parent_switch
_num_pending_rename
_num_recycled_rename
_num_recycledvnodes
_num_reusedvnodes
_num_trailing_0
_num_zones
_numcache
_numdquot
_numused_vfsslots
_numvnodes
_nx_enabled
_omb_stat
_open
_open1
_open_dprotected_np
_open_extended
_open_nocancel
_osbuilder
_osdata_kext_free
_osdata_kmem_free
_osdata_phys_free
_osdata_vm_deallocate
_osrelease
_ostype
_osversion
_ovbcopy
_overage_decompressions_during_sample_period
_override_nx
_packA
_page_mask
_page_shift
_page_size
_pager_map_to_phys_contiguous
_paging_segment_count
_paging_segment_max
_paging_segments
_paging_segments_lock
_pal_dbg_page_fault
_pal_dbg_set_task_name
_pal_efi_call_in_32bit_mode
_pal_efi_call_in_64bit_mode
_pal_efi_saved_cr0
_pal_efi_saved_cr3
_pal_get_control_registers
_pal_get_kern_regs
_pal_hib_map
_pal_hib_patchup
_pal_i386_init
_pal_machine_sleep
_pal_preemption_assert
_pal_rtc_nanotime_info
_pal_serial_getc
_pal_serial_init
_pal_serial_putc
_pal_set_signal_delivery
_pal_syscall_restart
_panic
_panicDebugging
_panic_64
_panic_active
_panic_caller
_panic_context
_panic_display_kernel_aslr
_panic_double_fault64
_panic_double_fault_cpu
_panic_i386_backtrace
_panic_include_zprint
_panic_include_ztrace
_panic_init
_panic_io_port_read
_panic_is_inited
_panic_lock
_panic_machine_check64
_panic_on_cs_killed
_panic_restart_timeout
_paniccpu
_panicstr
_panicwait
_past_deadline_deltas
_past_deadline_longest
_past_deadline_shortest
_past_deadline_timer_adjustment
_past_deadline_timers
_pat_init
_path_mtu_discovery
_pathconf
_pbtcnt
_pbtcpu
_pbtlock
_pcb_synch
_pcid_for_pmap_cpu_tuple
_pde_mapped_size
_pdzalloc_count
_pdzfree_count
_pe_identify_machine
_pe_init_debug
_peeloff
_perfASTHook
_perfTrapHook
_perf_monitor_register_13
_perf_monitor_unregister
_pf_addr_inc
_pf_addrcpy
_pf_af_hook
_pf_alloc_state_key
_pf_anchor_copyout
_pf_anchor_global_RB_FIND
_pf_anchor_global_RB_GETCOLOR
_pf_anchor_global_RB_GETPARENT
_pf_anchor_global_RB_INSERT
_pf_anchor_global_RB_INSERT_COLOR
_pf_anchor_global_RB_MINMAX
_pf_anchor_global_RB_NEXT
_pf_anchor_global_RB_REMOVE
_pf_anchor_global_RB_REMOVE_COLOR
_pf_anchor_global_RB_SETCOLOR
_pf_anchor_global_RB_SETPARENT
_pf_anchor_node_RB_FIND
_pf_anchor_node_RB_GETCOLOR
_pf_anchor_node_RB_GETPARENT
_pf_anchor_node_RB_INSERT
_pf_anchor_node_RB_INSERT_COLOR
_pf_anchor_node_RB_MINMAX
_pf_anchor_node_RB_NEXT
_pf_anchor_node_RB_REMOVE
_pf_anchor_node_RB_REMOVE_COLOR
_pf_anchor_node_RB_SETCOLOR
_pf_anchor_node_RB_SETPARENT
_pf_anchor_remove
_pf_anchor_setup
_pf_anchors
_pf_app_state_pl
_pf_calc_skip_steps
_pf_calc_state_key_flowhash
_pf_calendar_time_second
_pf_change_a
_pf_cksum_fixup
_pf_default_rule
_pf_find_anchor
_pf_find_mtag
_pf_find_or_create_ruleset
_pf_find_ruleset
_pf_find_ruleset_with_owner
_pf_find_state_all
_pf_find_state_byid
_pf_frag_pl
_pf_frag_tree_RB_FIND
_pf_frag_tree_RB_GETCOLOR
_pf_frag_tree_RB_GETPARENT
_pf_frag_tree_RB_INSERT
_pf_frag_tree_RB_INSERT_COLOR
_pf_frag_tree_RB_MINMAX
_pf_frag_tree_RB_NEXT
_pf_frag_tree_RB_REMOVE
_pf_frag_tree_RB_REMOVE_COLOR
_pf_frag_tree_RB_SETCOLOR
_pf_frag_tree_RB_SETPARENT
_pf_free_state
_pf_frent_pl
_pf_get_mtag
_pf_get_ruleset_number
_pf_hash_seed
_pf_ifaddr_hook
_pf_ifnet_hook
_pf_init_ruleset
_pf_insert_src_node
_pf_insert_state
_pf_is_enabled
_pf_lazy_makewritable
_pf_lock
_pf_lock_data
_pf_main_anchor
_pf_match
_pf_match_addr
_pf_match_addr_range
_pf_match_gid
_pf_match_port
_pf_match_uid
_pf_match_xport
_pf_normalize_init
_pf_normalize_ip
_pf_normalize_ip6
_pf_normalize_isempty
_pf_normalize_tcp
_pf_normalize_tcp_cleanup
_pf_normalize_tcp_init
_pf_normalize_tcp_stateful
_pf_osfp_add
_pf_osfp_fingerprint
_pf_osfp_fingerprint_hdr
_pf_osfp_flush
_pf_osfp_get
_pf_osfp_initialize
_pf_osfp_match
_pf_osfp_validate
_pf_pabuf
_pf_perim_lock
_pf_perim_lock_data
_pf_pool_limits
_pf_pooladdr_pl
_pf_poolmask
_pf_print_flags
_pf_print_state
_pf_pull_hdr
_pf_purge_expired_fragments
_pf_purge_expired_src_nodes
_pf_purge_expired_states
_pf_purge_thread
_pf_purge_thread_fn
_pf_remove_if_empty_ruleset
_pf_rm_rule
_pf_routable
_pf_rtlabel_match
_pf_rule_pl
_pf_socket_lookup
_pf_src_tree_RB_FIND
_pf_src_tree_RB_GETCOLOR
_pf_src_tree_RB_GETPARENT
_pf_src_tree_RB_INSERT
_pf_src_tree_RB_INSERT_COLOR
_pf_src_tree_RB_MINMAX
_pf_src_tree_RB_NEXT
_pf_src_tree_RB_REMOVE
_pf_src_tree_RB_REMOVE_COLOR
_pf_src_tree_RB_SETCOLOR
_pf_src_tree_RB_SETPARENT
_pf_src_tree_pl
_pf_src_tree_remove_state
_pf_state_expires
_pf_state_key_pl
_pf_state_pl
_pf_state_scrub_pl
_pf_state_tree_ext_gwy_RB_FIND
_pf_state_tree_ext_gwy_RB_GETCOLOR
_pf_state_tree_ext_gwy_RB_GETPARENT
_pf_state_tree_ext_gwy_RB_INSERT
_pf_state_tree_ext_gwy_RB_INSERT_COLOR
_pf_state_tree_ext_gwy_RB_MINMAX
_pf_state_tree_ext_gwy_RB_NEXT
_pf_state_tree_ext_gwy_RB_REMOVE
_pf_state_tree_ext_gwy_RB_REMOVE_COLOR
_pf_state_tree_ext_gwy_RB_SETCOLOR
_pf_state_tree_ext_gwy_RB_SETPARENT
_pf_state_tree_id_RB_FIND
_pf_state_tree_id_RB_GETCOLOR
_pf_state_tree_id_RB_GETPARENT
_pf_state_tree_id_RB_INSERT
_pf_state_tree_id_RB_INSERT_COLOR
_pf_state_tree_id_RB_MINMAX
_pf_state_tree_id_RB_NEXT
_pf_state_tree_id_RB_REMOVE
_pf_state_tree_id_RB_REMOVE_COLOR
_pf_state_tree_id_RB_SETCOLOR
_pf_state_tree_id_RB_SETPARENT
_pf_state_tree_lan_ext_RB_FIND
_pf_state_tree_lan_ext_RB_GETCOLOR
_pf_state_tree_lan_ext_RB_GETPARENT
_pf_state_tree_lan_ext_RB_INSERT
_pf_state_tree_lan_ext_RB_INSERT_COLOR
_pf_state_tree_lan_ext_RB_MINMAX
_pf_state_tree_lan_ext_RB_NEXT
_pf_state_tree_lan_ext_RB_REMOVE
_pf_state_tree_lan_ext_RB_REMOVE_COLOR
_pf_state_tree_lan_ext_RB_SETCOLOR
_pf_state_tree_lan_ext_RB_SETPARENT
_pf_statetbl_ext_gwy
_pf_statetbl_lan_ext
_pf_status
_pf_step_into_anchor
_pf_step_out_of_anchor
_pf_tag2tagname
_pf_tag_packet
_pf_tag_ref
_pf_tag_unref
_pf_tagname2tag
_pf_tbladdr_copyout
_pf_tbladdr_remove
_pf_tbladdr_setup
_pf_test
_pf_test6
_pf_time_second
_pf_unlink_state
_pfctlinput
_pfctlinput2
_pffinddomain
_pffinddomain_old
_pffindproto
_pffindproto_locked
_pffindproto_old
_pffindprotonotype
_pffindtype
_pfi_all
_pfi_attach_ifnet
_pfi_clear_flags
_pfi_detach_ifnet
_pfi_dynaddr_copyout
_pfi_dynaddr_remove
_pfi_dynaddr_setup
_pfi_get_ifaces
_pfi_initialize
_pfi_kif_get
_pfi_kif_match
_pfi_kif_ref
_pfi_kif_unref
_pfi_kifaddr_update
_pfi_match_addr
_pfi_set_flags
_pfi_update_status
_pfind_locked
_pfinit
_pfkey_stat_mutex
_pfkey_stat_mutex_attr
_pfkey_stat_mutex_data
_pfkey_stat_mutex_grp
_pfkey_stat_mutex_grp_attr
_pfkeystat
_pflog_packet
_pflogifs
_pfloginit
_pfr_add_addrs
_pfr_add_tables
_pfr_attach_table
_pfr_clr_addrs
_pfr_clr_astats
_pfr_clr_tables
_pfr_clr_tstats
_pfr_del_addrs
_pfr_del_tables
_pfr_detach_table
_pfr_dynaddr_update
_pfr_get_addrs
_pfr_get_astats
_pfr_get_tables
_pfr_get_tstats
_pfr_ina_begin
_pfr_ina_commit
_pfr_ina_define
_pfr_ina_rollback
_pfr_initialize
_pfr_insert_kentry
_pfr_kentry_pl
_pfr_ktable_pl
_pfr_match_addr
_pfr_pool_get
_pfr_set_addrs
_pfr_set_tflags
_pfr_table_copyin_cleanup
_pfr_tst_addrs
_pfr_update_stats
_pfxlist_onlink_check
_pfz_exit
_pg_rele
_pg_rele_dropref
_pgfind
_pgfind_internal
_pgrp0
_pgrp_iterate
_pgrp_lock
_pgrp_unlock
_pgrphash
_pgrphashtbl
_pgsigio
_pgsignal
_phys_attribute_clear
_phys_attribute_set
_phys_attribute_test
_phys_page_exists
_physfree
_physical_transfer_cluster_count
_physio
_physmap_base
_physmap_max
_physwindow_desc_pattern
_pid_atalkinfo
_pid_for_task
_pid_kqueueinfo
_pid_pipeinfo
_pid_pseminfo
_pid_pshminfo
_pid_resume
_pid_socketinfo
_pid_suspend
_pid_vnodeinfo
_pid_vnodeinfopath
_pidhash
_pidhashtbl
_pinsertchild
_pipe
_pipe_stat
_pipeinit
_pkg_extensions_lck
_pktsched_abs_to_nsecs
_pktsched_getqstats
_pktsched_init
_pktsched_nsecs_to_abstime
_pktsched_setup
_pktsched_teardown
_pktsched_verbose
_pmCPUControl
_pmCPUDeadline
_pmCPUExitHalt
_pmCPUExitHaltToOff
_pmCPUExitIdle
_pmCPUGetDeadline
_pmCPUHalt
_pmCPUMarkRunning
_pmCPUSetDeadline
_pmCPUStateInit
_pmDispatch
_pmGetLogicalCPU
_pmGetMyLogicalCPU
_pmGetPkgRoot
_pmInitDone
_pmKextRegister
_pmLCPUtoProcessor
_pmMarkAllCPUsOff
_pmSafeMode
_pmTimerQueueMigrate
_pmTimerRestore
_pmTimerSave
_pmUnRegister
_pmap_adjust_unnest_parameters
_pmap_anchor_zone
_pmap_bootstrap
_pmap_cache_attributes
_pmap_change_wiring
_pmap_clear_modify
_pmap_clear_noencrypt
_pmap_clear_reference
_pmap_clear_refmod
_pmap_clear_refmod_options
_pmap_copy_page
_pmap_copy_part_lpage
_pmap_copy_part_page
_pmap_copy_part_rpage
_pmap_cpu_data_assert
_pmap_cpu_init
_pmap_create
_pmap_debug
_pmap_destroy
_pmap_destroy_pcid_sync
_pmap_disable_NX
_pmap_disable_kheap_nx
_pmap_disable_kstack_nx
_pmap_disconnect
_pmap_disconnect_options
_pmap_enter
_pmap_enter_options
_pmap_expand
_pmap_expand_pdpt
_pmap_expand_pml4
_pmap_find_phys
_pmap_flush
_pmap_flush_context_init
_pmap_flush_tlbs
_pmap_free_pages
_pmap_get_cache_attributes
_pmap_get_refmod
_pmap_init
_pmap_initialized
_pmap_is_empty
_pmap_is_modified
_pmap_is_noencrypt
_pmap_is_referenced
_pmap_kern_reserve_alloc_stat
_pmap_kernel_reserve_replenish_stat
_pmap_kernel_text_ps
_pmap_last_reserved_range_index
_pmap_lowmem_finalize
_pmap_map
_pmap_map_bd
_pmap_map_block
_pmap_mapping_thread_wakeups
_pmap_memory_region_count
_pmap_memory_region_current
_pmap_memory_regions
_pmap_nest
_pmap_nesting_size_max
_pmap_nesting_size_min
_pmap_next_page
_pmap_next_page_hi
_pmap_next_page_reserved
_pmap_npages
_pmap_pack_index
_pmap_page_protect
_pmap_page_protect_options
_pmap_pageable
_pmap_pagetable_corruption_incidents
_pmap_pagetable_corruption_interval_abstime
_pmap_pagetable_corruption_last_abstime
_pmap_pagetable_corruption_log_call
_pmap_pagetable_corruption_records
_pmap_pagetable_corruption_timeout
_pmap_pcid_activate
_pmap_pcid_allocate_pcid
_pmap_pcid_configure
_pmap_pcid_deallocate_pcid
_pmap_pcid_disabled
_pmap_pcid_initialize
_pmap_pcid_initialize_kernel
_pmap_pcid_ncpus
_pmap_permissions_verify
_pmap_phys_attributes
_pmap_pre_expand
_pmap_protect
_pmap_protect_options
_pmap_pv_hashlist_cnts
_pmap_pv_hashlist_max
_pmap_pv_hashlist_walks
_pmap_pv_throttle_stat
_pmap_pv_throttled_waiters
_pmap_query_resident
_pmap_reference
_pmap_remove
_pmap_remove_options
_pmap_remove_range
_pmap_remove_range_options
_pmap_remove_some_phys
_pmap_reserved_pages_allocated
_pmap_reserved_range_indices
_pmap_reserved_ranges
_pmap_reusable
_pmap_reusable_range
_pmap_safe_read
_pmap_set_cache_attributes
_pmap_set_modify
_pmap_set_noencrypt
_pmap_set_reference
_pmap_smep_enabled
_pmap_startup
_pmap_steal_memory
_pmap_switch
_pmap_sync_page_attributes_phys
_pmap_sync_page_data_phys
_pmap_teardown_last_valid_compact_indx
_pmap_tlb_flush_timeout
_pmap_trace
_pmap_traverse_present_mappings
_pmap_unnest
_pmap_unpack_index
_pmap_update_cache_attributes_locked
_pmap_update_clear_pte_count
_pmap_update_interrupt
_pmap_user_pv_throttle_event
_pmap_user_reserve_replenish_stat
_pmap_valid_page
_pmap_verify_free
_pmap_virtual_space
_pmap_zero_page
_pmap_zero_part_page
_pmap_zone
_pmc_config_set_interrupt_threshold
_pmc_config_set_value
_pmc_context_switch
_pmc_create_config
_pmc_find_by_name
_pmc_free_config
_pmc_free_pmc_list
_pmc_get_accessible_core_list
_pmc_get_name
_pmc_get_pmc_list
_pmc_idle
_pmc_idle_exit
_pmc_register
_pmc_reservation_free
_pmc_reservation_read
_pmc_reservation_start
_pmc_reservation_stop
_pmc_reservation_write
_pmc_reserve
_pmc_reserve_task
_pmc_reserve_thread
_pmc_spin_timeout_count
_pmc_unregister
_pmsafe_debug
_pmtu_expire
_pmtu_probe
_policy_check_flags
_poll
_poll_callback
_poll_nocancel
_pool_destroy
_pool_get
_pool_init
_pool_put
_pool_sethardlimit
_pool_sethiwat
_populate_model_name
_port_name_to_clock
_port_name_to_semaphore
_port_name_to_task
_port_name_to_thread
_posix_cred_access
_posix_cred_create
_posix_cred_get
_posix_cred_label
_posix_sem_max
_posix_spawn
_post_sys_powersource
_postevent
_postpipeevent
_postsig_locked
_power_management_init
_ppnm_head
_ppnm_last_found
_ppsratecheck
_pre_heat_cluster
_pre_heat_scaling
_pread
_pread_nocancel
_precise_user_kernel_time
_preemption_enabled
_preemption_underflow_panic
_prefix6_mutex
_preheat_pages_max
_preheat_pages_min
_prelist_remove
_prelist_update
_prepare_coveredvp
_preparefileread
_pressure_threshold_percentage
_prf
_print_saved_state
_print_vmpage_stat
_printf
_printf_init
_printf_lock
_priv_check_cred
_prngAllowReseed
_prngDestroy
_prngForceReseed
_prngInitialize
_prngInput
_prngOutput
_prngProcessSeedBuffer
_prngStretch
_proc0
_proc_apply_resource_actions
_proc_apply_task_networkbg
_proc_apply_workq_bgthreadpolicy
_proc_check_footprint_priv
_proc_checkdeadrefs
_proc_childdrainend
_proc_childdrainstart
_proc_childrenwalk
_proc_clear_task_ruse_cpu
_proc_default_bg_iotier
_proc_did_throttle
_proc_dirtycontrol
_proc_dopcontrol
_proc_drop_zombref
_proc_exit
_proc_exiting
_proc_fdlock
_proc_fdlock_assert
_proc_fdlock_spin
_proc_fdmlock_grp
_proc_fdunlock
_proc_find
_proc_find_zombref
_proc_findinternal
_proc_findthread
_proc_forcequota
_proc_get_darwinbgstate
_proc_get_effective_task_policy
_proc_get_effective_thread_policy
_proc_get_rusage
_proc_get_task_policy
_proc_get_task_ruse_cpu
_proc_get_thread_policy
_proc_getcdhash
_proc_getexecutableuuid
_proc_getpcontrol
_proc_graphics_timer_qos
_proc_info
_proc_info_internal
_proc_init_cpumon_params
_proc_is64bit
_proc_is_classic
_proc_is_forcing_hfs_case_sensitivity
_proc_isinferior
_proc_issignal
_proc_iterate
_proc_kernmsgbuf
_proc_klist_lock
_proc_klist_mlock
_proc_klist_unlock
_proc_knote
_proc_knote_drain
_proc_lck_attr
_proc_lck_grp
_proc_lck_grp_attr
_proc_limitblock
_proc_limitdrop
_proc_limitfork
_proc_limitget
_proc_limitreplace
_proc_limitunblock
_proc_list_lock
_proc_list_mlock
_proc_list_unlock
_proc_listpids
_proc_lock
_proc_max_cpumon_interval
_proc_max_cpumon_percentage
_proc_mlock_grp
_proc_name
_proc_name_address
_proc_name_kdp
_proc_noremotehang
_proc_parent
_proc_parentdropref
_proc_parentholdref
_proc_pendingsignals
_proc_pgrp
_proc_pgrpid
_proc_pid
_proc_pid_rusage
_proc_pidbackgrounded
_proc_pidbsdinfo
_proc_pidfdinfo
_proc_pidfdlist
_proc_pidfileportinfo
_proc_pidfileportlist
_proc_pidinfo
_proc_pidlistthreads
_proc_pidpathinfo
_proc_pidregioninfo
_proc_pidregionpathinfo
_proc_pidshortbsdinfo
_proc_pidtaskinfo
_proc_pidthreadinfo
_proc_pidthreadpathinfo
_proc_piduniqidentifierinfo
_proc_pidversion
_proc_pidvnodepathinfo
_proc_pidworkqueueinfo
_proc_ppid
_proc_prepareexit
_proc_puniqueid
_proc_rebootscan
_proc_ref_locked
_proc_refdrain
_proc_rele
_proc_rele_locked
_proc_reparentlocked
_proc_resetpcontrol
_proc_resetregister
_proc_restore_resource_actions
_proc_restore_workq_bgthreadpolicy
_proc_rlimit_control
_proc_security_policy
_proc_self
_proc_selfname
_proc_selfpgrpid
_proc_selfpid
_proc_selfppid
_proc_session
_proc_set_task_apptype
_proc_set_task_policy
_proc_set_task_policy_thread
_proc_set_task_ruse_cpu
_proc_setcontrol
_proc_setregister
_proc_setthread_saved_importance
_proc_shutdown_exitcount
_proc_signal
_proc_signalend
_proc_signalstart
_proc_slock_grp
_proc_spinlock
_proc_spinunlock
_proc_standard_daemon_tier
_proc_suppressed_disk_tier
_proc_suser
_proc_tal_disk_tier
_proc_task
_proc_task_is_tal
_proc_tbe
_proc_terminate
_proc_thread
_proc_transcommit
_proc_transend
_proc_transstart
_proc_transwait
_proc_ucred
_proc_uniqueid
_proc_unlock
_proc_uuid_policy
_proc_uuid_policy_hash_mask
_proc_uuid_policy_init
_proc_uuid_policy_lookup
_proc_vfork_begin
_proc_vfork_end
_proc_was_throttled
_process_pmap_updates
_process_policy
_processor_assign
_processor_avail_count
_processor_bootstrap
_processor_control
_processor_count
_processor_data_init
_processor_doshutdown
_processor_exit
_processor_get_assignment
_processor_idle
_processor_info
_processor_info_count
_processor_init
_processor_list
_processor_list_lock
_processor_master
_processor_meta_init
_processor_offline
_processor_pset
_processor_queue_shutdown
_processor_server
_processor_server_routine
_processor_set_create
_processor_set_default
_processor_set_destroy
_processor_set_info
_processor_set_max_priority
_processor_set_policy_control
_processor_set_policy_disable
_processor_set_policy_enable
_processor_set_server
_processor_set_server_routine
_processor_set_stack_usage
_processor_set_statistics
_processor_set_subsystem
_processor_set_tasks
_processor_set_things
_processor_set_threads
_processor_shutdown
_processor_start
_processor_start_thread
_processor_subsystem
_processor_up
_procfdtbl_clearfd
_procfdtbl_markclosefd
_procfdtbl_releasefd
_procfdtbl_reservefd
_procfdtbl_waitfd
_procinit
_profile_aframes
_profile_init
_profile_interval_min
_protected_mode_gdtr
_proto_hash_value
_proto_inject
_proto_input
_proto_register_plumber
_proto_unregister_plumber
_proxy6_lock
_prproxy_sols_tree_RB_FIND
_prproxy_sols_tree_RB_GETCOLOR
_prproxy_sols_tree_RB_GETPARENT
_prproxy_sols_tree_RB_INSERT
_prproxy_sols_tree_RB_INSERT_COLOR
_prproxy_sols_tree_RB_MINMAX
_prproxy_sols_tree_RB_NEXT
_prproxy_sols_tree_RB_PREV
_prproxy_sols_tree_RB_REMOVE
_prproxy_sols_tree_RB_REMOVE_COLOR
_prproxy_sols_tree_RB_SETCOLOR
_prproxy_sols_tree_RB_SETPARENT
_prtactive
_pru_abort_notsupp
_pru_accept_notsupp
_pru_attach_notsupp
_pru_bind_notsupp
_pru_connect2_notsupp
_pru_connect_notsupp
_pru_connectx_notsupp
_pru_control_notsupp
_pru_detach_notsupp
_pru_disconnect_notsupp
_pru_disconnectx_notsupp
_pru_listen_notsupp
_pru_peeloff_notsupp
_pru_peeraddr_notsupp
_pru_rcvd_notsupp
_pru_rcvoob_notsupp
_pru_sanitize
_pru_send_notsupp
_pru_sense_null
_pru_shutdown_notsupp
_pru_socheckopt_null
_pru_sockaddr_notsupp
_pru_sopoll_notsupp
_pru_soreceive_notsupp
_pru_sosend_notsupp
_ps_allocate_cluster
_ps_clmap
_ps_clunmap
_ps_dealloc_vsmap
_ps_deallocate_cluster
_ps_delete
_ps_enter
_ps_map_extend
_ps_read_device
_ps_read_file
_ps_select_array
_ps_select_segment
_ps_vs_write_complete
_ps_vstruct_allocated_pages
_ps_vstruct_allocated_size
_ps_vstruct_create
_ps_vstruct_dealloc
_ps_vstruct_reclaim
_ps_vstruct_transfer_from_segment
_ps_write_device
_ps_write_file
_psem_cache_init
_psem_label_associate
_psemhash
_psemhashtbl
_psemnument
_psemstats
_pset0
_pset_create
_pset_deallocate
_pset_init
_pset_node0
_pset_node_root
_pset_reference
_pseudo_inits
_pshm_access
_pshm_cache_init
_pshm_label_associate
_pshm_mmap
_pshm_stat
_pshm_truncate
_pshmhash
_pshmhashtbl
_pshmnument
_pshmstats
_psignal
_psignal_locked
_psignal_vfork
_pstart
_pstats0
_psynch_cvbroad
_psynch_cvclrprepost
_psynch_cvsignal
_psynch_cvwait
_psynch_mutexdrop
_psynch_mutexwait
_psynch_rw_downgrade
_psynch_rw_longrdlock
_psynch_rw_rdlock
_psynch_rw_unlock
_psynch_rw_unlock2
_psynch_rw_upgrade
_psynch_rw_wrlock
_psynch_rw_yieldwrlock
_pt_fake_zone_index
_pt_fake_zone_info
_pt_fake_zone_init
_pt_setrunnable
_pth_proc_hashdelete
_pth_proc_hashinit
_pthread_functions
_pthread_init
_pthread_kern
_pthread_kext_register
_ptmx_init
_ptrace
_ptsd_kqfilter
_pty_init
_purgeable_queues
_putc
_pv_hash_lock_table
_pv_hash_table
_pv_hash_table_lock
_pv_hashed_alloc_chunk
_pv_hashed_free_count
_pv_hashed_free_list
_pv_hashed_free_list_lock
_pv_hashed_kern_alloc_chunk
_pv_hashed_kern_free_count
_pv_hashed_kern_free_list
_pv_hashed_kern_free_list_lock
_pv_hashed_kern_low_water_mark
_pv_hashed_list_zone
_pv_hashed_low_water_mark
_pv_head_table
_pv_lock_table
_pvs_cluster_read
_pvs_object_data_provided
_pwrite
_pwrite_nocancel
_q_to_b
_qf_get
_qf_lck_attr
_qf_lck_grp
_qf_lck_grp_attr
_qf_put
_qfq_add_queue
_qfq_alloc
_qfq_dequeue
_qfq_destroy
_qfq_enqueue
_qfq_event
_qfq_get_class_stats
_qfq_getqstats_ifclassq
_qfq_init
_qfq_purge
_qfq_remove_queue
_qfq_setup_ifclassq
_qfq_teardown_ifclassq
_quota_list_lck_attr
_quota_list_lck_grp
_quota_list_lck_grp_attr
_quota_list_mtx_lock
_quotactl
_rage_limit
_rage_tv
_ragevnodes
_random
_random_block
_random_close
_random_init
_random_ioctl
_random_open
_random_read
_random_write
_ratecheck
_raw_attach
_raw_ctlinput
_raw_detach
_raw_disconnect
_raw_init
_raw_input
_raw_mtx
_raw_mtx_attr
_raw_mtx_data
_raw_mtx_grp
_raw_mtx_grp_attr
_raw_usrreqs
_rawcb_list
_rb_head_RB_FIND
_rb_head_RB_GETCOLOR
_rb_head_RB_GETPARENT
_rb_head_RB_INSERT
_rb_head_RB_INSERT_COLOR
_rb_head_RB_MINMAX
_rb_head_RB_NEXT
_rb_head_RB_REMOVE
_rb_head_RB_REMOVE_COLOR
_rb_head_RB_SETCOLOR
_rb_head_RB_SETPARENT
_rb_node_compare
_rc4_crypt
_rc4_init
_rd_uio
_rdmsr64_carefully
_rdmsr_carefully
_read
_read_nocancel
_read_random
_readlink
_readv
_readv_nocancel
_real_mode_bootstrap_base
_real_mode_bootstrap_end
_real_ncpus
_realhost
_realitexpire
_reattach_wait
_reboot
_record_startup_extensions_function
_recover_table
_recover_table_end
_recvfrom
_recvfrom_nocancel
_recvmsg
_recvmsg_nocancel
_ref_pset_port_locked
_registerPrioritySleepWakeInterest
_registerSleepWakeInterest
_register_cpu_setup_func
_register_crypto_functions
_register_decmpfs_decompressor
_release_pathbuff
_release_storage_unit
_relookup
_removexattr
_rename
_reserved_zalloc_count
_reset_acc_iaj
_reset_mem_on_reboot
_resetpriority
_resize_namecache
_resolve_nspace_item
_resolve_nspace_item_ext
_ret_to_user
_rethrottle_moved_to_new_list
_rethrottle_removed_from_list
_rethrottle_thread
_retrieve_task_self_fast
_retrieve_thread_self_fast
_return_from_trap
_return_on_panic
_return_to_iret
_return_to_user
_revoke
_rip6_ctlinput
_rip6_ctloutput
_rip6_input
_rip6_output
_rip6_recvspace
_rip6_sendspace
_rip6_usrreqs
_rip6stat
_rip_ctlinput
_rip_ctloutput
_rip_init
_rip_input
_rip_output
_rip_recvspace
_rip_sendspace
_rip_unlock
_rip_usrreqs
_ripcb
_ripcbinfo
_rl_add
_rl_init
_rl_remove
_rl_scan
_rmdir
_rmdir_remove_orphaned_appleDouble
_rn_addmask
_rn_addroute
_rn_delete
_rn_init
_rn_inithead
_rn_lookup
_rn_lookup_args
_rn_match
_rn_match_args
_rn_refines
_rnh_lock
_rnh_lock_data
_rootDomainRestart
_rootDomainShutdown
_root_fs_upgrade_try
_rootdev
_rootdevice
_rootfs
_rootunit
_rootvnode
_rootvp
_route6_input
_route_copyin
_route_copyout
_route_genid_inet
_route_genid_inet6
_route_init
_route_to_gwroute
_routedomain_s
_routegenid_inet6_update
_routegenid_inet_update
_routegenid_update
_rt6_flush
_rt_ifmsg
_rt_lock
_rt_lookup
_rt_lookup_coarse
_rt_missmsg
_rt_newaddrmsg
_rt_newmaddrmsg
_rt_primary_default
_rt_revalidate_gwroute
_rt_runq
_rt_set_gwroute
_rt_set_proxy
_rt_setexpire
_rt_setgate
_rt_str
_rt_tables
_rt_unlock
_rt_validate
_rt_verbose
_rtalloc
_rtalloc1
_rtalloc1_scoped
_rtalloc1_scoped_locked
_rtalloc_ign
_rtalloc_scoped
_rtalloc_scoped_ign
_rtc_clock_adjust
_rtc_clock_napped
_rtc_clock_stepped
_rtc_clock_stepping
_rtc_nanotime_init_commpage
_rtc_sleep_wakeup
_rtc_timer
_rtc_timer_init
_rtc_timer_lapic
_rtc_timer_start
_rtc_timer_tsc_deadline
_rtclock_config
_rtclock_getattr
_rtclock_gettime
_rtclock_init
_rtclock_intr
_rte_debug
_rtfree
_rtfree_locked
_rtgw_to_sa6
_rtinit
_rtinit_locked
_rtioctl
_rtkey_to_sa6
_rtm2str
_rtm_scrub
_rtredirect
_rtref
_rtrequest
_rtrequest_locked
_rtrequest_scoped
_rtrequest_scoped_locked
_rtsetifa
_rtt_samples_per_slot
_rttrash
_rtunref
_ruadd
_run_queue_dequeue
_run_queue_enqueue
_run_queue_init
_run_queue_remove
_sAllClassesLock
_sCPULatencyFunctionName
_sHIB
_sInstancesLock
_sLoadedKextSummariesUpdated
_sPrevLoadedKextSummaries
_sStalledClassesLock
_sa6_any
_sa6_embedscope
_sa6_recoverscope
_sack_ackadv
_sack_hole_zone
_sadb_mutex
_sadb_mutex_attr
_sadb_mutex_data
_sadb_mutex_grp
_sadb_mutex_grp_attr
_sadb_stat_mutex
_sadb_stat_mutex_attr
_sadb_stat_mutex_data
_sadb_stat_mutex_grp
_sadb_stat_mutex_grp_attr
_safe_getpath
_safe_gets
_safedounmount
_sah_count
_sah_search_calls
_sah_search_count
_sample_period_compression_count
_sample_period_decompression_count
_sane_size
_save_kdebug_enable
_sb_empty_assert
_sb_max
_sb_notify
_sballoc
_sbappend
_sbappendaddr
_sbappendcontrol
_sbappendmsg_snd
_sbappendmsgstream_rcv
_sbappendrecord
_sbappendstream
_sbappendstream_rcvdemux
_sbcreatecontrol
_sbcreatecontrol_mbuf
_sbdrop
_sbdroprecord
_sbflush
_sbfree
_sbinsertoob
_sblastmbufchk
_sblastrecordchk
_sblock
_sbpull_unordered_data
_sbrelease
_sbreserve
_sbspace
_sbtoxsockbuf
_sbuf_bcat
_sbuf_bcopyin
_sbuf_bcpy
_sbuf_cat
_sbuf_clear
_sbuf_copyin
_sbuf_cpy
_sbuf_data
_sbuf_delete
_sbuf_done
_sbuf_finish
_sbuf_len
_sbuf_new
_sbuf_overflowed
_sbuf_printf
_sbuf_putc
_sbuf_setpos
_sbuf_trim
_sbuf_uionew
_sbuf_vprintf
_sbunlock
_sbwait
_sbwakeup
_scale_setup
_scan_object_collision
_scanc
_sched_background_count
_sched_background_pri_shift
_sched_combined_fgbg_pri_shift
_sched_current_dispatch
_sched_decay_usage_age_factor
_sched_fixed_shift
_sched_fixedpriority_dispatch
_sched_fixedpriority_with_pset_runqueue_dispatch
_sched_grrr_dispatch
_sched_grrr_fairshare_dequeue
_sched_grrr_fairshare_enqueue
_sched_grrr_fairshare_init
_sched_grrr_fairshare_queue_remove
_sched_grrr_fairshare_runq_count
_sched_grrr_fairshare_runq_stats_count_sum
_sched_init
_sched_init_thread
_sched_load_average
_sched_load_shifts
_sched_mach_factor
_sched_maintenance_thread
_sched_one_second_interval
_sched_poll_yield_shift
_sched_preempt_pri
_sched_pri_shift
_sched_proto_dispatch
_sched_run_count
_sched_safe_duration
_sched_share_count
_sched_startup
_sched_stats_active
_sched_stats_handle_csw
_sched_stats_handle_runq_change
_sched_string
_sched_tick
_sched_tick_interval
_sched_tick_max_delta
_sched_timebase_init
_sched_traditional_consider_maintenance
_sched_traditional_dispatch
_sched_traditional_fairshare_dequeue
_sched_traditional_fairshare_enqueue
_sched_traditional_fairshare_init
_sched_traditional_fairshare_queue_remove
_sched_traditional_fairshare_runq_count
_sched_traditional_fairshare_runq_stats_count_sum
_sched_traditional_quantum_expire
_sched_traditional_with_pset_runqueue_dispatch
_sched_use_combined_fgbg_decay
_sconstdata
_scope6_addr2default
_scope6_ifattach
_scope6_init
_scope6_setdefault
_sdata
_sdt_args
_sdt_getarg
_sdt_getargdesc
_sdt_init
_sdt_invop
_sdt_probetab
_sdt_probetab_mask
_sdt_probetab_size
_sdt_provide_module
_sdt_providers
_searchfs
_sectCONSTB
_sectSizeConst
_securelevel
_security_server
_security_server_routine
_security_subsystem
_segDATAB
_segHIBB
_segLINKB
_segPRELINKB
_segSizeDATA
_segSizeHIB
_segSizeLINK
_segSizePRELINK
_segSizeTEXT
_segTEXTB
_selcontinue
_select
_select_conflict_queue
_select_nocancel
_select_wait_queue_init
_selprocess
_selrecord
_selthreadclear
_seltrue
_selwait
_selwakeup
_sem_close
_sem_destroy
_sem_getvalue
_sem_init
_sem_open
_sem_pool
_sem_post
_sem_trywait
_sem_unlink
_sem_wait
_sem_wait_nocancel
_sema
_semaphore_convert_wait_result
_semaphore_create
_semaphore_dereference
_semaphore_destroy
_semaphore_init
_semaphore_max
_semaphore_reference
_semaphore_signal
_semaphore_signal_all
_semaphore_signal_all_trap
_semaphore_signal_internal
_semaphore_signal_internal_trap
_semaphore_signal_thread
_semaphore_signal_thread_trap
_semaphore_signal_trap
_semaphore_timedwait
_semaphore_timedwait_signal
_semaphore_timedwait_signal_trap
_semaphore_timedwait_signal_trap_internal
_semaphore_timedwait_trap
_semaphore_timedwait_trap_internal
_semaphore_wait
_semaphore_wait_continue
_semaphore_wait_deadline
_semaphore_wait_noblock
_semaphore_wait_signal
_semaphore_wait_signal_trap
_semaphore_wait_signal_trap_internal
_semaphore_wait_trap
_semaphore_wait_trap_internal
_semaphore_zone
_semctl
_semexit
_semget
_seminfo
_semop
_semsys
_semu
_sendfile
_sendmsg
_sendmsg_nocancel
_sendsig
_sendto
_sendto_nocancel
_serial_getc
_serial_init
_serial_keyboard_init
_serial_keyboard_poll
_serial_keyboard_start
_serial_putc
_serialmode
_serverperfmode
_sesshash
_sesshashtbl
_session0
_session_find_internal
_session_lock
_session_rele
_session_unlock
_setPop
_set_astledger
_set_bsdtask_info
_set_cast128_subkey
_set_dp_control_port
_set_fsblocksize
_set_primary_ifscope
_set_priority
_set_procsigmask
_set_sched_pri
_set_sched_stats_active
_set_security_token
_set_thread_iotier_override
_setattrlist
_setaudit_addr
_setauid
_setbit
_setegid
_seteuid
_setgid
_setgroups
_setitimer
_setlcid
_setlogin
_setpgid
_setpriority
_setprivexec
_setregid
_setreuid
_setrlimit
_setsgroups
_setsid
_setsigvec
_setsockopt
_settid
_settid_with_pid
_settimeofday
_setuid
_setup_kmem
_setwgroups
_setxattr
_sfb_addq
_sfb_alloc
_sfb_destroy
_sfb_getq
_sfb_getstats
_sfb_init
_sfb_purgeq
_sfb_suspendq
_sfb_updateq
_sflt_attach
_sflt_attach_internal
_sflt_detach
_sflt_register
_sflt_unregister
_sha1_hardware_hook
_shadow_map_create
_shadow_map_free
_shadow_map_is_written
_shadow_map_read
_shadow_map_shadow_size
_shadow_map_write
_shared_region_check_np
_shared_region_completed_slide
_shared_region_copyin_mappings
_shared_region_destroy_delay
_shared_region_map_and_slide_np
_shared_region_persistence
_shared_region_trace_level
_shared_region_unnest_log_count_threshold
_shared_region_unnest_logging
_shared_region_version
_shim_io_async_method_scalarI_scalarO
_shim_io_async_method_scalarI_structureI
_shim_io_async_method_scalarI_structureO
_shim_io_async_method_structureI_structureO
_shim_io_connect_method_scalarI_scalarO
_shim_io_connect_method_scalarI_structureI
_shim_io_connect_method_scalarI_structureO
_shim_io_connect_method_structureI_structureO
_shm_open
_shm_unlink
_shmat
_shmctl
_shmdt
_shmexit
_shmfork
_shmget
_shminfo
_shmsegs
_shmsys
_shutdown
_sig_filtops
_sig_lock_to_exit
_sig_try_locked
_sigaction
_sigacts0
_sigaltstack
_siginfo_user_to_user32
_siginfo_user_to_user64
_siginit
_signal_setast
_sigpending
_sigprocmask
_sigprop
_sigpup_attach_vnode
_sigpup_drop
_sigpup_install
_sigreturn
_sigsuspend
_sigsuspend_nocancel
_sin6_get_ifscope
_sin_get_ifscope
_sin_set_ifscope
_sizeof_guarded_fileproc
_skpc
_slave_machine_init
_slave_main
_slave_pstart
_sleep
_slide_info
_slot_subtype
_slot_threadtype
_slot_type
_smp_init
_smp_initialized
_smsg_bufc
_snapshot_timestamp
_snprintf
_so_cache_head
_so_cache_timer
_so_cache_zone_element_size
_so_gencnt
_so_get_restrictions
_so_isdstlocal
_so_set_effective_pid
_so_set_effective_uuid
_so_set_lro
_so_set_restrictions
_so_update_last_owner_locked
_so_update_policy
_so_wait_for_if_feedback
_soabort
_soaccept
_soacceptfilter
_soacceptlock
_soalloc
_sobindlock
_socantrcvmore
_socantsendmore
_sock_accept
_sock_bind
_sock_catchevents
_sock_close
_sock_connect
_sock_connectwait
_sock_freeaddr
_sock_getaddr
_sock_getlistener
_sock_getpeername
_sock_getsockname
_sock_getsockopt
_sock_gettclassopt
_sock_gettype
_sock_inject_data_in
_sock_inject_data_out
_sock_ioctl
_sock_isconnected
_sock_isnonblocking
_sock_listen
_sock_nointerrupt
_sock_receive
_sock_receive_internal
_sock_receivembuf
_sock_release
_sock_retain
_sock_send
_sock_sendmbuf
_sock_setpriv
_sock_setsockopt
_sock_settclassopt
_sock_setupcall
_sock_setupcalls
_sock_shutdown
_sock_socket
_sockaddrentry_alloc
_sockaddrentry_dup
_sockaddrentry_free
_sockaddrlist_alloc
_sockaddrlist_dup
_sockaddrlist_free
_sockaddrlist_insert
_sockaddrlist_remove
_sockargs
_socket
_socket_clear_traffic_mgt_flags
_socket_clear_traffic_mgt_flags_locked
_socket_debug
_socket_defunct
_socket_delegate
_socket_lock
_socket_set_traffic_mgt_flags
_socket_set_traffic_mgt_flags_locked
_socket_unlock
_socketinit
_socketops
_socketpair
_sockopt_copyin
_sockopt_copyout
_sockopt_direction
_sockopt_level
_sockopt_name
_sockopt_valsize
_soclose
_soclose_locked
_soclose_wait_locked
_soconnect
_soconnect2
_soconnectlock
_soconnectxlocked
_socreate
_socreate_delegate
_socreate_internal
_sodealloc
_sodefunct
_sodefunctlog
_sodereference
_sodisconnect
_sodisconnectlocked
_sodisconnectwakeup
_sodisconnectx
_sodisconnectxlocked
_soevent
_soevupcall
_sofree
_sofreelastref
_sogetoptlock
_sohasoutofband
_soisconnected
_soisconnecting
_soisdisconnected
_soisdisconnecting
_soisprivilegedtraffic
_soissrcbackground
_soisthrottled
_solisten
_somaxconn
_somultipages
_sonewconn
_soo_ioctl
_soo_kqfilter
_soo_select
_soo_stat
_soopt_getm
_soopt_mcopyin
_soopt_mcopyout
_sooptcopyin
_sooptcopyout
_sopeelofflocked
_sopoll
_soreadable
_soreceive
_soreference
_soreserve
_sorestrictrecv
_sorflush
_sorwakeup
_sosend
_sosendallatonce
_sosendcheck
_sosendjcl
_sosendjcl_ignore_capab
_sosetdefunct
_sosetoptlock
_soshutdown
_soshutdownlock
_sothrottlelog
_sotoxsocket
_sotoxsocket64
_sowakeup
_sowflush
_sowriteable
_sowwakeup
_space_deallocate
_spd_count
_spec_blktooff
_spec_blockmap
_spec_close
_spec_ebadf
_spec_filtops
_spec_fsync
_spec_fsync_internal
_spec_ioctl
_spec_kqfilter
_spec_lookup
_spec_nfsv2nodeop_opv_desc
_spec_nfsv2nodeop_p
_spec_nfsv4nodeop_opv_desc
_spec_nfsv4nodeop_p
_spec_offtoblk
_spec_open
_spec_pathconf
_spec_read
_spec_select
_spec_strategy
_spec_vnodeop_entries
_spec_vnodeop_opv_desc
_spec_vnodeop_p
_spec_write
_spechash_mtx_lock
_special_handler
_special_handler_continue
_speclisth
_speculative_age_index
_speculative_prefetch_max
_speculative_prefetch_max_iosize
_speculative_reads_disabled
_speculative_steal_index
_spinlock_owner_cpu
_spinlock_timed_out
_spl0
_splbio
_splclock
_splhigh
_splimp
_split_funnel_off
_spllo
_spln
_splnet
_sploff
_splon
_splpower
_splsched
_splsoftclock
_spltty
_splvm
_splx
_sprintf
_sprlock
_sprunlock
_spurious_timers
_ss_fltsz
_ss_fltsz_local
_sscanf
_stack_alloc
_stack_alloc_try
_stack_allocs
_stack_collect
_stack_fake_zone_info
_stack_fake_zone_init
_stack_free
_stack_free_reserved
_stack_handoff
_stack_init
_stack_privilege
_stack_snapshot
_stack_snapshot2
_stack_snapshot_from_kernel
_stack_total
_stackshot_snapbuf
_start_def_pager
_start_kern_tracing
_start_of_eval_period_nsec
_start_of_eval_period_sec
_start_of_sample_period_nsec
_start_of_sample_period_sec
_startprofclock
_stat
_stat64
_stat64_extended
_stat_extended
_state_list
_statfs
_statfs64
_static_memory_end
_std_quantum
_std_quantum_us
_stext
_stf_pre_output
_stfattach
_stopprofclock
_strcache_lck_attr
_strcache_lck_grp
_strcache_lck_grp_attr
_strcache_mtx_locks
_strcasecmp
_strcat
_strchr
_strcmp
_strcpy
_strlcat
_strlcpy
_strlen
_strncasecmp
_strncat
_strncmp
_strncpy
_strnlen
_strnstr
_strprefix
_strsep
_strtable_rw_lock
_strtol
_strtoq
_strtoul
_strtouq
_subyte
_suibyte
_suiword
_sulong
_suser
_suspend_acctp
_suulong
_suword
_suword16
_suword32
_suword64
_suword8
_sw_lro
_swap_crypt_ctx
_swap_crypt_ctx_initialize
_swap_crypt_ctx_initialized
_swap_crypt_key
_swap_crypt_null_iv
_swap_task_map
_swapfile_pager_bootstrap
_swapfile_pager_control
_swapfile_pager_count
_swapfile_pager_count_max
_swapfile_pager_create
_swapfile_pager_data_initialize
_swapfile_pager_data_request
_swapfile_pager_data_return
_swapfile_pager_data_unlock
_swapfile_pager_deallocate
_swapfile_pager_deallocate_internal
_swapfile_pager_dequeue
_swapfile_pager_init
_swapfile_pager_last_unmap
_swapfile_pager_lck_attr
_swapfile_pager_lck_grp
_swapfile_pager_lck_grp_attr
_swapfile_pager_lock
_swapfile_pager_lookup
_swapfile_pager_map
_swapfile_pager_ops
_swapfile_pager_queue
_swapfile_pager_reference
_swapfile_pager_setup
_swapfile_pager_synchronize
_swapfile_pager_terminate
_swapfile_pager_terminate_internal
_swapmap
_swapon
_swapout_target_age
_swapper_entered_T0
_swapper_entered_T1
_swapper_entered_T2
_swapper_throttle
_swapper_throttle_inited
_swdevt
_swf_global_queue
_switch_debugger
_switch_to_old_console
_switch_to_serial_console
_switch_to_video_console
_swtch
_swtch_pri
_symlink
_sync
_sync_iss_to_iks
_sync_iss_to_iks_unconditionally
_sys_au_event
_sys_override_cpu_throttle
_sys_override_io_throttle
_sys_perf_notify
_syscall_exit_funnelcheck
_syscallnames
_sysclk_ops
_sysctl__audit
_sysctl__audit_children
_sysctl__audit_session
_sysctl__audit_session_children
_sysctl__audit_session_member_clear_sflags_mask
_sysctl__audit_session_member_set_sflags_mask
_sysctl__audit_session_superuser_clear_sflags_mask
_sysctl__audit_session_superuser_set_sflags_mask
_sysctl__children
_sysctl__debug
_sysctl__debug_bpf_bufsize
_sysctl__debug_bpf_maxbufsize
_sysctl__debug_bpf_maxdevices
_sysctl__debug_children
_sysctl__debug_iokit
_sysctl__debug_iokit_statistics
_sysctl__debug_iokit_statistics_children
_sysctl__debug_iotrace
_sysctl__debug_kextlog
_sysctl__debug_lowpri_throttle_enabled
_sysctl__debug_lowpri_throttle_max_iosize
_sysctl__debug_lowpri_throttle_tier1_io_period_msecs
_sysctl__debug_lowpri_throttle_tier1_io_period_ssd_msecs
_sysctl__debug_lowpri_throttle_tier1_window_msecs
_sysctl__debug_lowpri_throttle_tier2_io_period_msecs
_sysctl__debug_lowpri_throttle_tier2_io_period_ssd_msecs
_sysctl__debug_lowpri_throttle_tier2_window_msecs
_sysctl__debug_lowpri_throttle_tier3_io_period_msecs
_sysctl__debug_lowpri_throttle_tier3_io_period_ssd_msecs
_sysctl__debug_lowpri_throttle_tier3_window_msecs
_sysctl__debug_toggle_address_reuse
_sysctl__hw
_sysctl__hw_activecpu
_sysctl__hw_busfrequency
_sysctl__hw_busfrequency_compat
_sysctl__hw_busfrequency_max
_sysctl__hw_busfrequency_min
_sysctl__hw_byteorder
_sysctl__hw_cacheconfig
_sysctl__hw_cachelinesize
_sysctl__hw_cachelinesize_compat
_sysctl__hw_cachesize
_sysctl__hw_children
_sysctl__hw_cpu64bit_capable
_sysctl__hw_cpufamily
_sysctl__hw_cpufrequency
_sysctl__hw_cpufrequency_compat
_sysctl__hw_cpufrequency_max
_sysctl__hw_cpufrequency_min
_sysctl__hw_cpusubtype
_sysctl__hw_cputhreadtype
_sysctl__hw_cputype
_sysctl__hw_epoch
_sysctl__hw_l1dcachesize
_sysctl__hw_l1dcachesize_compat
_sysctl__hw_l1icachesize
_sysctl__hw_l1icachesize_compat
_sysctl__hw_l2cachesize
_sysctl__hw_l2cachesize_compat
_sysctl__hw_l2settings
_sysctl__hw_l3cachesize
_sysctl__hw_l3cachesize_compat
_sysctl__hw_l3settings
_sysctl__hw_logicalcpu
_sysctl__hw_logicalcpu_max
_sysctl__hw_machine
_sysctl__hw_memsize
_sysctl__hw_model
_sysctl__hw_ncpu
_sysctl__hw_optional
_sysctl__hw_optional_aes
_sysctl__hw_optional_avx1_0
_sysctl__hw_optional_avx2_0
_sysctl__hw_optional_bmi1
_sysctl__hw_optional_bmi2
_sysctl__hw_optional_children
_sysctl__hw_optional_enfstrg
_sysctl__hw_optional_f16c
_sysctl__hw_optional_floatingpoint
_sysctl__hw_optional_fma
_sysctl__hw_optional_hle
_sysctl__hw_optional_mmx
_sysctl__hw_optional_rdrand
_sysctl__hw_optional_rtm
_sysctl__hw_optional_sse
_sysctl__hw_optional_sse2
_sysctl__hw_optional_sse3
_sysctl__hw_optional_sse4_1
_sysctl__hw_optional_sse4_2
_sysctl__hw_optional_supplementalsse3
_sysctl__hw_optional_x86_64
_sysctl__hw_packages
_sysctl__hw_pagesize
_sysctl__hw_pagesize_compat
_sysctl__hw_physicalcpu
_sysctl__hw_physicalcpu_max
_sysctl__hw_physmem
_sysctl__hw_tbfrequency
_sysctl__hw_tbfrequency_compat
_sysctl__hw_usermem
_sysctl__hw_vectorunit
_sysctl__kern
_sysctl__kern_affinity
_sysctl__kern_affinity_sets_enabled
_sysctl__kern_affinity_sets_mapping
_sysctl__kern_aiomax
_sysctl__kern_aioprocmax
_sysctl__kern_aiothreads
_sysctl__kern_argmax
_sysctl__kern_bootargs
_sysctl__kern_bootsessionuuid
_sysctl__kern_bootsignature
_sysctl__kern_boottime
_sysctl__kern_check_openevt
_sysctl__kern_children
_sysctl__kern_clockrate
_sysctl__kern_coredump
_sysctl__kern_corefile
_sysctl__kern_delayterm
_sysctl__kern_ds_supgroups_supported
_sysctl__kern_flush_cache_on_write
_sysctl__kern_hibernatefile
_sysctl__kern_hibernategraphicsready
_sysctl__kern_hibernatehidready
_sysctl__kern_hibernatelockscreenready
_sysctl__kern_hibernatemode
_sysctl__kern_hibernatestatistics
_sysctl__kern_hibernatewakenotification
_sysctl__kern_hostid
_sysctl__kern_hostname
_sysctl__kern_ignore_is_ssd
_sysctl__kern_imgsrcdev
_sysctl__kern_imgsrcinfo
_sysctl__kern_interrupt_timer_coalescing_enabled
_sysctl__kern_ipc
_sysctl__kern_ipc_children
_sysctl__kern_ipc_io_policy
_sysctl__kern_ipc_io_policy_children
_sysctl__kern_ipc_io_policy_log
_sysctl__kern_ipc_io_policy_throttled
_sysctl__kern_ipc_io_policy_uuid
_sysctl__kern_ipc_maxsockbuf
_sysctl__kern_ipc_maxsockets
_sysctl__kern_ipc_mb_normalized
_sysctl__kern_ipc_mb_stat
_sysctl__kern_ipc_mb_watchdog
_sysctl__kern_ipc_mbstat
_sysctl__kern_ipc_mleak_sample_factor
_sysctl__kern_ipc_mleak_table
_sysctl__kern_ipc_mleak_top_trace
_sysctl__kern_ipc_njcl
_sysctl__kern_ipc_njclbytes
_sysctl__kern_ipc_nmbclusters
_sysctl__kern_ipc_portbt
_sysctl__kern_ipc_sockbuf_waste_factor
_sysctl__kern_ipc_sodefunctlog
_sysctl__kern_ipc_somaxconn
_sysctl__kern_ipc_soqlencomp
_sysctl__kern_ipc_soqlimitcompat
_sysctl__kern_ipc_sorecvmincopy
_sysctl__kern_ipc_sorestrictrecv
_sysctl__kern_ipc_sosendjcl
_sysctl__kern_ipc_sosendjcl_ignore_capab
_sysctl__kern_ipc_sosendminchain
_sysctl__kern_ipc_sotcdb
_sysctl__kern_ipc_sothrottlelog
_sysctl__kern_jnl_trim_flush
_sysctl__kern_job_control
_sysctl__kern_kdebug
_sysctl__kern_kdebug_thread_block
_sysctl__kern_lctx
_sysctl__kern_lctx_all
_sysctl__kern_lctx_children
_sysctl__kern_lctx_count
_sysctl__kern_lctx_last
_sysctl__kern_lctx_lcid
_sysctl__kern_lctx_lcid_children
_sysctl__kern_lctx_max
_sysctl__kern_maxfiles
_sysctl__kern_maxfilesperproc
_sysctl__kern_maxnbuf
_sysctl__kern_maxproc
_sysctl__kern_maxprocperuid
_sysctl__kern_maxvnodes
_sysctl__kern_memorypressure_manual_trigger
_sysctl__kern_memorystatus_purge_on_critical
_sysctl__kern_memorystatus_purge_on_urgent
_sysctl__kern_memorystatus_purge_on_warning
_sysctl__kern_memorystatus_vm_pressure_level
_sysctl__kern_msgbuf
_sysctl__kern_namecache_disabled
_sysctl__kern_nbuf
_sysctl__kern_netboot
_sysctl__kern_ngroups
_sysctl__kern_nisdomainname
_sysctl__kern_num_files
_sysctl__kern_num_tasks
_sysctl__kern_num_taskthreads
_sysctl__kern_num_threads
_sysctl__kern_num_vnodes
_sysctl__kern_nx
_sysctl__kern_osrelease
_sysctl__kern_osrevision
_sysctl__kern_ostype
_sysctl__kern_osversion
_sysctl__kern_posix
_sysctl__kern_posix1version
_sysctl__kern_posix_children
_sysctl__kern_posix_sem
_sysctl__kern_posix_sem_children
_sysctl__kern_posix_sem_max
_sysctl__kern_preheat_pages_max
_sysctl__kern_preheat_pages_min
_sysctl__kern_proc
_sysctl__kern_proc_all
_sysctl__kern_proc_children
_sysctl__kern_proc_lcid
_sysctl__kern_proc_pgrp
_sysctl__kern_proc_pid
_sysctl__kern_proc_ruid
_sysctl__kern_proc_tty
_sysctl__kern_proc_uid
_sysctl__kern_procargs
_sysctl__kern_procargs2
_sysctl__kern_procname
_sysctl__kern_rage_vnode
_sysctl__kern_safeboot
_sysctl__kern_saved_ids
_sysctl__kern_sched
_sysctl__kern_sched_stats
_sysctl__kern_sched_stats_enable
_sysctl__kern_secure_kernel
_sysctl__kern_securelevel
_sysctl__kern_setthread_cpupercent
_sysctl__kern_shreg_private
_sysctl__kern_singleuser
_sysctl__kern_slide
_sysctl__kern_speculative_prefetch_max
_sysctl__kern_speculative_prefetch_max_iosize
_sysctl__kern_speculative_reads_disabled
_sysctl__kern_stack_depth_max
_sysctl__kern_stack_size
_sysctl__kern_sugid_coredump
_sysctl__kern_sugid_scripts
_sysctl__kern_symfile
_sysctl__kern_sysv
_sysctl__kern_sysv_children
_sysctl__kern_sysv_ipcs
_sysctl__kern_sysv_ipcs_children
_sysctl__kern_sysv_ipcs_msg
_sysctl__kern_sysv_ipcs_sem
_sysctl__kern_sysv_ipcs_shm
_sysctl__kern_sysv_semmni
_sysctl__kern_sysv_semmns
_sysctl__kern_sysv_semmnu
_sysctl__kern_sysv_semmsl
_sysctl__kern_sysv_semume
_sysctl__kern_sysv_shmall
_sysctl__kern_sysv_shmmax
_sysctl__kern_sysv_shmmin
_sysctl__kern_sysv_shmmni
_sysctl__kern_sysv_shmseg
_sysctl__kern_tfp
_sysctl__kern_tfp_children
_sysctl__kern_tfp_policy
_sysctl__kern_threadname
_sysctl__kern_timer
_sysctl__kern_timer_children
_sysctl__kern_timer_coalesce_bg_ns_max
_sysctl__kern_timer_coalesce_bg_scale
_sysctl__kern_timer_coalesce_fp_ns_max
_sysctl__kern_timer_coalesce_fp_scale
_sysctl__kern_timer_coalesce_idle_entry_hard_deadline_max
_sysctl__kern_timer_coalesce_kt_ns_max
_sysctl__kern_timer_coalesce_kt_scale
_sysctl__kern_timer_coalesce_tier0_ns_max
_sysctl__kern_timer_coalesce_tier0_scale
_sysctl__kern_timer_coalesce_tier1_ns_max
_sysctl__kern_timer_coalesce_tier1_scale
_sysctl__kern_timer_coalesce_tier2_ns_max
_sysctl__kern_timer_coalesce_tier2_scale
_sysctl__kern_timer_coalesce_tier3_ns_max
_sysctl__kern_timer_coalesce_tier3_scale
_sysctl__kern_timer_coalesce_tier4_ns_max
_sysctl__kern_timer_coalesce_tier4_scale
_sysctl__kern_timer_coalesce_tier5_ns_max
_sysctl__kern_timer_coalesce_tier5_scale
_sysctl__kern_timer_coalesce_ts_ns_max
_sysctl__kern_timer_coalesce_ts_scale
_sysctl__kern_timer_coalescing_enabled
_sysctl__kern_timer_deadline_tracking_bin_1
_sysctl__kern_timer_deadline_tracking_bin_2
_sysctl__kern_timer_longterm
_sysctl__kern_timer_longterm_children
_sysctl__kern_timer_longterm_qlen
_sysctl__kern_timer_longterm_threshold
_sysctl__kern_translate
_sysctl__kern_tty
_sysctl__kern_tty_children
_sysctl__kern_tty_ptmx_max
_sysctl__kern_usrstack
_sysctl__kern_usrstack64
_sysctl__kern_uuid
_sysctl__kern_version
_sysctl__kern_vm_max_batch
_sysctl__kern_vm_max_delayed_work_limit
_sysctl__kern_vm_page_free_min
_sysctl__kern_vm_page_free_reserved
_sysctl__kern_vm_page_free_target
_sysctl__kern_vm_page_speculative_percentage
_sysctl__kern_vm_page_speculative_q_age_ms
_sysctl__kern_vnode
_sysctl__kern_zleak
_sysctl__kern_zleak_active
_sysctl__kern_zleak_children
_sysctl__kern_zleak_global_threshold
_sysctl__kern_zleak_max_zonemap_size
_sysctl__kern_zleak_zone_threshold
_sysctl__kpc
_sysctl__kpc_actionid
_sysctl__kpc_children
_sysctl__kpc_classes
_sysctl__kpc_config
_sysctl__kpc_config_count
_sysctl__kpc_counter_count
_sysctl__kpc_counters
_sysctl__kpc_counting
_sysctl__kpc_period
_sysctl__kpc_shadow_counters
_sysctl__kpc_thread_counters
_sysctl__kpc_thread_counting
_sysctl__kperf
_sysctl__kperf_action
_sysctl__kperf_action_children
_sysctl__kperf_action_count
_sysctl__kperf_action_filter_by_pid
_sysctl__kperf_action_filter_by_task
_sysctl__kperf_action_samplers
_sysctl__kperf_action_userdata
_sysctl__kperf_blessed_pid
_sysctl__kperf_blessed_preempt
_sysctl__kperf_children
_sysctl__kperf_debug_level
_sysctl__kperf_kdbg_callstacks
_sysctl__kperf_kdbg_cswitch
_sysctl__kperf_pet_idle_rate
_sysctl__kperf_sampling
_sysctl__kperf_timer
_sysctl__kperf_timer_action
_sysctl__kperf_timer_children
_sysctl__kperf_timer_count
_sysctl__kperf_timer_period
_sysctl__kperf_timer_pet_timer
_sysctl__machdep
_sysctl__machdep_children
_sysctl__machdep_cpu
_sysctl__machdep_cpu_address_bits
_sysctl__machdep_cpu_address_bits_children
_sysctl__machdep_cpu_address_bits_physical
_sysctl__machdep_cpu_address_bits_virtual
_sysctl__machdep_cpu_arch_perf
_sysctl__machdep_cpu_arch_perf_children
_sysctl__machdep_cpu_arch_perf_events
_sysctl__machdep_cpu_arch_perf_events_number
_sysctl__machdep_cpu_arch_perf_fixed_number
_sysctl__machdep_cpu_arch_perf_fixed_width
_sysctl__machdep_cpu_arch_perf_number
_sysctl__machdep_cpu_arch_perf_version
_sysctl__machdep_cpu_arch_perf_width
_sysctl__machdep_cpu_brand
_sysctl__machdep_cpu_brand_string
_sysctl__machdep_cpu_cache
_sysctl__machdep_cpu_cache_L2_associativity
_sysctl__machdep_cpu_cache_children
_sysctl__machdep_cpu_cache_linesize
_sysctl__machdep_cpu_cache_size
_sysctl__machdep_cpu_children
_sysctl__machdep_cpu_core_count
_sysctl__machdep_cpu_cores_per_package
_sysctl__machdep_cpu_extfamily
_sysctl__machdep_cpu_extfeature_bits
_sysctl__machdep_cpu_extfeatures
_sysctl__machdep_cpu_extmodel
_sysctl__machdep_cpu_family
_sysctl__machdep_cpu_feature_bits
_sysctl__machdep_cpu_features
_sysctl__machdep_cpu_flex_ratio
_sysctl__machdep_cpu_flex_ratio_children
_sysctl__machdep_cpu_flex_ratio_desired
_sysctl__machdep_cpu_flex_ratio_max
_sysctl__machdep_cpu_flex_ratio_min
_sysctl__machdep_cpu_leaf7_feature_bits
_sysctl__machdep_cpu_leaf7_features
_sysctl__machdep_cpu_logical_per_package
_sysctl__machdep_cpu_max_basic
_sysctl__machdep_cpu_max_ext
_sysctl__machdep_cpu_microcode_version
_sysctl__machdep_cpu_model
_sysctl__machdep_cpu_mwait
_sysctl__machdep_cpu_mwait_children
_sysctl__machdep_cpu_mwait_extensions
_sysctl__machdep_cpu_mwait_linesize_max
_sysctl__machdep_cpu_mwait_linesize_min
_sysctl__machdep_cpu_mwait_sub_Cstates
_sysctl__machdep_cpu_processor_flag
_sysctl__machdep_cpu_signature
_sysctl__machdep_cpu_stepping
_sysctl__machdep_cpu_thermal
_sysctl__machdep_cpu_thermal_ACNT_MCNT
_sysctl__machdep_cpu_thermal_children
_sysctl__machdep_cpu_thermal_core_power_limits
_sysctl__machdep_cpu_thermal_dynamic_acceleration
_sysctl__machdep_cpu_thermal_energy_policy
_sysctl__machdep_cpu_thermal_fine_grain_clock_mod
_sysctl__machdep_cpu_thermal_hardware_feedback
_sysctl__machdep_cpu_thermal_invariant_APIC_timer
_sysctl__machdep_cpu_thermal_package_thermal_intr
_sysctl__machdep_cpu_thermal_sensor
_sysctl__machdep_cpu_thermal_thresholds
_sysctl__machdep_cpu_thread_count
_sysctl__machdep_cpu_tlb
_sysctl__machdep_cpu_tlb_children
_sysctl__machdep_cpu_tlb_data
_sysctl__machdep_cpu_tlb_data_children
_sysctl__machdep_cpu_tlb_data_large
_sysctl__machdep_cpu_tlb_data_large_level1
_sysctl__machdep_cpu_tlb_data_small
_sysctl__machdep_cpu_tlb_data_small_level1
_sysctl__machdep_cpu_tlb_inst
_sysctl__machdep_cpu_tlb_inst_children
_sysctl__machdep_cpu_tlb_inst_large
_sysctl__machdep_cpu_tlb_inst_small
_sysctl__machdep_cpu_tlb_shared
_sysctl__machdep_cpu_ucupdate
_sysctl__machdep_cpu_vendor
_sysctl__machdep_cpu_xsave
_sysctl__machdep_cpu_xsave_children
_sysctl__machdep_cpu_xsave_extended_state
_sysctl__machdep_eager_timer_evaluation_max
_sysctl__machdep_eager_timer_evaluations
_sysctl__machdep_memmap
_sysctl__machdep_memmap_ACPINVS
_sysctl__machdep_memmap_ACPIReclaim
_sysctl__machdep_memmap_Conventional
_sysctl__machdep_memmap_Other
_sysctl__machdep_memmap_PalCode
_sysctl__machdep_memmap_Reserved
_sysctl__machdep_memmap_RuntimeServices
_sysctl__machdep_memmap_Unusable
_sysctl__machdep_memmap_children
_sysctl__machdep_misc
_sysctl__machdep_misc_children
_sysctl__machdep_misc_interrupt_latency_max
_sysctl__machdep_misc_machine_check_panic
_sysctl__machdep_misc_nmis
_sysctl__machdep_misc_panic_restart_timeout
_sysctl__machdep_misc_timer_queue_trace
_sysctl__machdep_pmap
_sysctl__machdep_pmap_children
_sysctl__machdep_pmap_hashcnts
_sysctl__machdep_pmap_hashmax
_sysctl__machdep_pmap_hashwalks
_sysctl__machdep_pmap_kern_pv_reserve
_sysctl__machdep_pmap_kernel_text_ps
_sysctl__machdep_tsc
_sysctl__machdep_tsc_children
_sysctl__machdep_tsc_deep_idle_rebase
_sysctl__machdep_tsc_frequency
_sysctl__machdep_tsc_nanotime
_sysctl__machdep_tsc_nanotime_children
_sysctl__machdep_tsc_nanotime_generation
_sysctl__machdep_tsc_nanotime_ns_base
_sysctl__machdep_tsc_nanotime_scale
_sysctl__machdep_tsc_nanotime_shift
_sysctl__machdep_tsc_nanotime_tsc_base
_sysctl__machdep_user_idle_level
_sysctl__machdep_vectors
_sysctl__machdep_vectors_IPI
_sysctl__machdep_vectors_children
_sysctl__machdep_vectors_timer
_sysctl__net
_sysctl__net_children
_sysctl__net_classq
_sysctl__net_classq_children
_sysctl__net_classq_sfb
_sysctl__net_classq_sfb_allocation
_sysctl__net_classq_sfb_children
_sysctl__net_classq_sfb_decrement
_sysctl__net_classq_sfb_hinterval
_sysctl__net_classq_sfb_holdtime
_sysctl__net_classq_sfb_increment
_sysctl__net_classq_sfb_pboxtime
_sysctl__net_classq_sfb_ratelimit
_sysctl__net_classq_verbose
_sysctl__net_inet
_sysctl__net_inet6
_sysctl__net_inet6_children
_sysctl__net_inet6_icmp6
_sysctl__net_inet6_icmp6_children
_sysctl__net_inet6_icmp6_errppslimit
_sysctl__net_inet6_icmp6_nd6_accept_6to4
_sysctl__net_inet6_icmp6_nd6_debug
_sysctl__net_inet6_icmp6_nd6_delay
_sysctl__net_inet6_icmp6_nd6_drlist
_sysctl__net_inet6_icmp6_nd6_llreach_base
_sysctl__net_inet6_icmp6_nd6_maxproxiedsol
_sysctl__net_inet6_icmp6_nd6_maxsolstgt
_sysctl__net_inet6_icmp6_nd6_mmaxtries
_sysctl__net_inet6_icmp6_nd6_onlink_ns_rfc4861
_sysctl__net_inet6_icmp6_nd6_optimistic_dad
_sysctl__net_inet6_icmp6_nd6_prlist
_sysctl__net_inet6_icmp6_nd6_prune
_sysctl__net_inet6_icmp6_nd6_prune_lazy
_sysctl__net_inet6_icmp6_nd6_umaxtries
_sysctl__net_inet6_icmp6_nd6_useloopback
_sysctl__net_inet6_icmp6_nodeinfo
_sysctl__net_inet6_icmp6_prproxy_cnt
_sysctl__net_inet6_icmp6_rediraccept
_sysctl__net_inet6_icmp6_redirtimeout
_sysctl__net_inet6_icmp6_stats
_sysctl__net_inet6_ip6
_sysctl__net_inet6_ip6_accept_rtadv
_sysctl__net_inet6_ip6_addrctlpolicy
_sysctl__net_inet6_ip6_addrctlpolicy_children
_sysctl__net_inet6_ip6_adj_clear_hwcksum
_sysctl__net_inet6_ip6_auto_flowlabel
_sysctl__net_inet6_ip6_auto_linklocal
_sysctl__net_inet6_ip6_children
_sysctl__net_inet6_ip6_dad_count
_sysctl__net_inet6_ip6_defmcasthlim
_sysctl__net_inet6_ip6_forwarding
_sysctl__net_inet6_ip6_fragpackets
_sysctl__net_inet6_ip6_fw
_sysctl__net_inet6_ip6_fw_children
_sysctl__net_inet6_ip6_fw_debug
_sysctl__net_inet6_ip6_fw_enable
_sysctl__net_inet6_ip6_fw_verbose
_sysctl__net_inet6_ip6_fw_verbose_limit
_sysctl__net_inet6_ip6_gifhlim
_sysctl__net_inet6_ip6_hdrnestlimit
_sysctl__net_inet6_ip6_hlim
_sysctl__net_inet6_ip6_kame_version
_sysctl__net_inet6_ip6_keepfaith
_sysctl__net_inet6_ip6_log_interval
_sysctl__net_inet6_ip6_maxchainsent
_sysctl__net_inet6_ip6_maxdynroutes
_sysctl__net_inet6_ip6_maxfragpackets
_sysctl__net_inet6_ip6_maxfrags
_sysctl__net_inet6_ip6_maxifdefrouters
_sysctl__net_inet6_ip6_maxifprefixes
_sysctl__net_inet6_ip6_mcast
_sysctl__net_inet6_ip6_mcast_children
_sysctl__net_inet6_ip6_mcast_filters
_sysctl__net_inet6_ip6_mcast_filters_children
_sysctl__net_inet6_ip6_mcast_loop
_sysctl__net_inet6_ip6_mcast_maxgrpsrc
_sysctl__net_inet6_ip6_mcast_maxsocksrc
_sysctl__net_inet6_ip6_mcast_pmtu
_sysctl__net_inet6_ip6_neighborgcthresh
_sysctl__net_inet6_ip6_only_allow_rfc4193_prefixes
_sysctl__net_inet6_ip6_prefer_tempaddr
_sysctl__net_inet6_ip6_redirect
_sysctl__net_inet6_ip6_rip6stats
_sysctl__net_inet6_ip6_rr_prune
_sysctl__net_inet6_ip6_rtexpire
_sysctl__net_inet6_ip6_rtmaxcache
_sysctl__net_inet6_ip6_rtminexpire
_sysctl__net_inet6_ip6_scopedroute
_sysctl__net_inet6_ip6_select_srcif_debug
_sysctl__net_inet6_ip6_stats
_sysctl__net_inet6_ip6_temppltime
_sysctl__net_inet6_ip6_tempvltime
_sysctl__net_inet6_ip6_use_defaultzone
_sysctl__net_inet6_ip6_use_deprecated
_sysctl__net_inet6_ip6_use_tempaddr
_sysctl__net_inet6_ip6_v6only
_sysctl__net_inet6_ipsec6
_sysctl__net_inet6_ipsec6_ah_net_deflev
_sysctl__net_inet6_ipsec6_ah_trans_deflev
_sysctl__net_inet6_ipsec6_children
_sysctl__net_inet6_ipsec6_debug
_sysctl__net_inet6_ipsec6_def_policy
_sysctl__net_inet6_ipsec6_ecn
_sysctl__net_inet6_ipsec6_esp_net_deflev
_sysctl__net_inet6_ipsec6_esp_randpad
_sysctl__net_inet6_ipsec6_esp_trans_deflev
_sysctl__net_inet6_ipsec6_stats
_sysctl__net_inet6_mld
_sysctl__net_inet6_mld_children
_sysctl__net_inet6_mld_debug
_sysctl__net_inet6_mld_gsrdelay
_sysctl__net_inet6_mld_ifinfo
_sysctl__net_inet6_mld_ifinfo_children
_sysctl__net_inet6_mld_use_allow
_sysctl__net_inet6_mld_v1enable
_sysctl__net_inet6_mld_v2enable
_sysctl__net_inet6_send
_sysctl__net_inet6_send_cga_parameters
_sysctl__net_inet6_send_children
_sysctl__net_inet6_send_opmode
_sysctl__net_inet6_send_opstate
_sysctl__net_inet6_tcp6
_sysctl__net_inet6_tcp6_children
_sysctl__net_inet6_udp6
_sysctl__net_inet6_udp6_children
_sysctl__net_inet_children
_sysctl__net_inet_div
_sysctl__net_inet_div_children
_sysctl__net_inet_icmp
_sysctl__net_inet_icmp_bmcastecho
_sysctl__net_inet_icmp_children
_sysctl__net_inet_icmp_drop_redirect
_sysctl__net_inet_icmp_icmplim
_sysctl__net_inet_icmp_log_redirect
_sysctl__net_inet_icmp_maskrepl
_sysctl__net_inet_icmp_stats
_sysctl__net_inet_icmp_timestamp
_sysctl__net_inet_igmp
_sysctl__net_inet_igmp_children
_sysctl__net_inet_igmp_debug
_sysctl__net_inet_igmp_default_version
_sysctl__net_inet_igmp_gsrdelay
_sysctl__net_inet_igmp_ifinfo
_sysctl__net_inet_igmp_ifinfo_children
_sysctl__net_inet_igmp_legacysupp
_sysctl__net_inet_igmp_recvifkludge
_sysctl__net_inet_igmp_sendlocal
_sysctl__net_inet_igmp_sendra
_sysctl__net_inet_igmp_stats
_sysctl__net_inet_igmp_v1enable
_sysctl__net_inet_igmp_v2enable
_sysctl__net_inet_igmp_v3stats
_sysctl__net_inet_ip
_sysctl__net_inet_ip_accept_sourceroute
_sysctl__net_inet_ip_adj_clear_hwcksum
_sysctl__net_inet_ip_check_interface
_sysctl__net_inet_ip_children
_sysctl__net_inet_ip_dummynet
_sysctl__net_inet_ip_dummynet_children
_sysctl__net_inet_ip_dummynet_curr_time
_sysctl__net_inet_ip_dummynet_debug
_sysctl__net_inet_ip_dummynet_expire
_sysctl__net_inet_ip_dummynet_extract_heap
_sysctl__net_inet_ip_dummynet_hash_size
_sysctl__net_inet_ip_dummynet_max_chain_len
_sysctl__net_inet_ip_dummynet_ready_heap
_sysctl__net_inet_ip_dummynet_red_avg_pkt_size
_sysctl__net_inet_ip_dummynet_red_lookup_depth
_sysctl__net_inet_ip_dummynet_red_max_pkt_size
_sysctl__net_inet_ip_dummynet_search_steps
_sysctl__net_inet_ip_dummynet_searches
_sysctl__net_inet_ip_forwarding
_sysctl__net_inet_ip_fragpackets
_sysctl__net_inet_ip_fw
_sysctl__net_inet_ip_fw_autoinc_step
_sysctl__net_inet_ip_fw_children
_sysctl__net_inet_ip_fw_curr_dyn_buckets
_sysctl__net_inet_ip_fw_debug
_sysctl__net_inet_ip_fw_dyn_ack_lifetime
_sysctl__net_inet_ip_fw_dyn_buckets
_sysctl__net_inet_ip_fw_dyn_count
_sysctl__net_inet_ip_fw_dyn_fin_lifetime
_sysctl__net_inet_ip_fw_dyn_keepalive
_sysctl__net_inet_ip_fw_dyn_max
_sysctl__net_inet_ip_fw_dyn_rst_lifetime
_sysctl__net_inet_ip_fw_dyn_short_lifetime
_sysctl__net_inet_ip_fw_dyn_syn_lifetime
_sysctl__net_inet_ip_fw_dyn_udp_lifetime
_sysctl__net_inet_ip_fw_enable
_sysctl__net_inet_ip_fw_one_pass
_sysctl__net_inet_ip_fw_static_count
_sysctl__net_inet_ip_fw_verbose
_sysctl__net_inet_ip_fw_verbose_limit
_sysctl__net_inet_ip_gifttl
_sysctl__net_inet_ip_linklocal
_sysctl__net_inet_ip_linklocal_children
_sysctl__net_inet_ip_linklocal_in
_sysctl__net_inet_ip_linklocal_in_allowbadttl
_sysctl__net_inet_ip_linklocal_in_children
_sysctl__net_inet_ip_linklocal_stat
_sysctl__net_inet_ip_maxchainsent
_sysctl__net_inet_ip_maxfragpackets
_sysctl__net_inet_ip_maxfragsperpacket
_sysctl__net_inet_ip_mcast
_sysctl__net_inet_ip_mcast_children
_sysctl__net_inet_ip_mcast_filters
_sysctl__net_inet_ip_mcast_filters_children
_sysctl__net_inet_ip_mcast_loop
_sysctl__net_inet_ip_mcast_maxgrpsrc
_sysctl__net_inet_ip_mcast_maxsocksrc
_sysctl__net_inet_ip_portrange
_sysctl__net_inet_ip_portrange_children
_sysctl__net_inet_ip_portrange_first
_sysctl__net_inet_ip_portrange_hifirst
_sysctl__net_inet_ip_portrange_hilast
_sysctl__net_inet_ip_portrange_last
_sysctl__net_inet_ip_portrange_lowfirst
_sysctl__net_inet_ip_portrange_lowlast
_sysctl__net_inet_ip_random_id
_sysctl__net_inet_ip_random_id_collisions
_sysctl__net_inet_ip_random_id_statistics
_sysctl__net_inet_ip_random_id_total
_sysctl__net_inet_ip_redirect
_sysctl__net_inet_ip_rtexpire
_sysctl__net_inet_ip_rtmaxcache
_sysctl__net_inet_ip_rtminexpire
_sysctl__net_inet_ip_scopedroute
_sysctl__net_inet_ip_select_srcif_debug
_sysctl__net_inet_ip_sendsourcequench
_sysctl__net_inet_ip_sourceroute
_sysctl__net_inet_ip_stats
_sysctl__net_inet_ip_subnets_are_local
_sysctl__net_inet_ip_ttl
_sysctl__net_inet_ipsec
_sysctl__net_inet_ipsec_ah_cleartos
_sysctl__net_inet_ipsec_ah_net_deflev
_sysctl__net_inet_ipsec_ah_offsetmask
_sysctl__net_inet_ipsec_ah_trans_deflev
_sysctl__net_inet_ipsec_bypass
_sysctl__net_inet_ipsec_children
_sysctl__net_inet_ipsec_debug
_sysctl__net_inet_ipsec_def_policy
_sysctl__net_inet_ipsec_dfbit
_sysctl__net_inet_ipsec_ecn
_sysctl__net_inet_ipsec_esp_net_deflev
_sysctl__net_inet_ipsec_esp_port
_sysctl__net_inet_ipsec_esp_randpad
_sysctl__net_inet_ipsec_esp_trans_deflev
_sysctl__net_inet_ipsec_stats
_sysctl__net_inet_raw
_sysctl__net_inet_raw_children
_sysctl__net_inet_raw_maxdgram
_sysctl__net_inet_raw_pcbcount
_sysctl__net_inet_raw_pcblist
_sysctl__net_inet_raw_pcblist64
_sysctl__net_inet_raw_pcblist_n
_sysctl__net_inet_raw_recvspace
_sysctl__net_inet_tcp
_sysctl__net_inet_tcp_acc_iaj_high_thresh
_sysctl__net_inet_tcp_acc_iaj_react_limit
_sysctl__net_inet_tcp_ack_prioritize
_sysctl__net_inet_tcp_always_keepalive
_sysctl__net_inet_tcp_autorcvbufincshift
_sysctl__net_inet_tcp_autorcvbufmax
_sysctl__net_inet_tcp_autosndbufinc
_sysctl__net_inet_tcp_autosndbufmax
_sysctl__net_inet_tcp_background_io_enabled
_sysctl__net_inet_tcp_background_io_trigger
_sysctl__net_inet_tcp_background_sockets
_sysctl__net_inet_tcp_bg_allowed_increase
_sysctl__net_inet_tcp_bg_ss_fltsz
_sysctl__net_inet_tcp_bg_target_qdelay
_sysctl__net_inet_tcp_bg_tether_shift
_sysctl__net_inet_tcp_blackhole
_sysctl__net_inet_tcp_broken_peer_syn_rexmit_thres_local
_sysctl__net_inet_tcp_broken_peer_syn_rxmit_thres
_sysctl__net_inet_tcp_children
_sysctl__net_inet_tcp_delayed_ack
_sysctl__net_inet_tcp_do_tcpdrain
_sysctl__net_inet_tcp_doautorcvbuf
_sysctl__net_inet_tcp_doautosndbuf
_sysctl__net_inet_tcp_drop_synfin
_sysctl__net_inet_tcp_early_rexmt
_sysctl__net_inet_tcp_ecn_initiate_out
_sysctl__net_inet_tcp_ecn_negotiate_in
_sysctl__net_inet_tcp_icmp_may_rst
_sysctl__net_inet_tcp_info
_sysctl__net_inet_tcp_isn_reseed_interval
_sysctl__net_inet_tcp_keepcnt
_sysctl__net_inet_tcp_keepidle
_sysctl__net_inet_tcp_keepinit
_sysctl__net_inet_tcp_keepintvl
_sysctl__net_inet_tcp_limited_transmit
_sysctl__net_inet_tcp_local_slowstart_flightsize
_sysctl__net_inet_tcp_log_in_vain
_sysctl__net_inet_tcp_lro
_sysctl__net_inet_tcp_lro_startcnt
_sysctl__net_inet_tcp_lro_sz
_sysctl__net_inet_tcp_lro_time
_sysctl__net_inet_tcp_lrodbg
_sysctl__net_inet_tcp_max_persist_timeout
_sysctl__net_inet_tcp_maxseg_unacked
_sysctl__net_inet_tcp_min_iaj_win
_sysctl__net_inet_tcp_minmss
_sysctl__net_inet_tcp_msl
_sysctl__net_inet_tcp_mssdflt
_sysctl__net_inet_tcp_newreno_sockets
_sysctl__net_inet_tcp_packetchain
_sysctl__net_inet_tcp_path_mtu_discovery
_sysctl__net_inet_tcp_pcbcount
_sysctl__net_inet_tcp_pcblist
_sysctl__net_inet_tcp_pcblist64
_sysctl__net_inet_tcp_pcblist_n
_sysctl__net_inet_tcp_pmtud_blackhole_detection
_sysctl__net_inet_tcp_pmtud_blackhole_mss
_sysctl__net_inet_tcp_randomize_ports
_sysctl__net_inet_tcp_rcvsspktcnt
_sysctl__net_inet_tcp_reass
_sysctl__net_inet_tcp_reass_children
_sysctl__net_inet_tcp_reass_cursegments
_sysctl__net_inet_tcp_reass_maxsegments
_sysctl__net_inet_tcp_reass_overflows
_sysctl__net_inet_tcp_recv_allowed_iaj
_sysctl__net_inet_tcp_recv_throttle_minwin
_sysctl__net_inet_tcp_recvbg
_sysctl__net_inet_tcp_recvspace
_sysctl__net_inet_tcp_rexmt_slop
_sysctl__net_inet_tcp_rexmt_thresh
_sysctl__net_inet_tcp_rfc1323
_sysctl__net_inet_tcp_rfc1644
_sysctl__net_inet_tcp_rfc3390
_sysctl__net_inet_tcp_rfc3465
_sysctl__net_inet_tcp_rfc3465_lim2
_sysctl__net_inet_tcp_rtt_min
_sysctl__net_inet_tcp_rtt_recvbg
_sysctl__net_inet_tcp_rtt_samples_per_slot
_sysctl__net_inet_tcp_sack
_sysctl__net_inet_tcp_sack_ackadv
_sysctl__net_inet_tcp_sack_globalholes
_sysctl__net_inet_tcp_sack_globalmaxholes
_sysctl__net_inet_tcp_sack_maxholes
_sysctl__net_inet_tcp_sendspace
_sysctl__net_inet_tcp_slowlink_wsize
_sysctl__net_inet_tcp_slowstart_flightsize
_sysctl__net_inet_tcp_socket_unlocked_on_output
_sysctl__net_inet_tcp_stats
_sysctl__net_inet_tcp_strict_rfc1948
_sysctl__net_inet_tcp_tcbhashsize
_sysctl__net_inet_tcp_tcp_lq_overflow
_sysctl__net_inet_tcp_tcp_resched_timerlist
_sysctl__net_inet_tcp_tcp_timer_advanced
_sysctl__net_inet_tcp_timer_fastmode_idlemax
_sysctl__net_inet_tcp_timer_fastquantum
_sysctl__net_inet_tcp_timer_slowquantum
_sysctl__net_inet_tcp_tso
_sysctl__net_inet_tcp_tw_pcbcount
_sysctl__net_inet_tcp_v6mssdflt
_sysctl__net_inet_tcp_win_scale_factor
_sysctl__net_inet_udp
_sysctl__net_inet_udp_blackhole
_sysctl__net_inet_udp_checksum
_sysctl__net_inet_udp_children
_sysctl__net_inet_udp_log_in_vain
_sysctl__net_inet_udp_maxdgram
_sysctl__net_inet_udp_pcbcount
_sysctl__net_inet_udp_pcblist
_sysctl__net_inet_udp_pcblist64
_sysctl__net_inet_udp_pcblist_n
_sysctl__net_inet_udp_randomize_ports
_sysctl__net_inet_udp_recvspace
_sysctl__net_inet_udp_stats
_sysctl__net_key
_sysctl__net_key_ah_keymin
_sysctl__net_key_blockacq_count
_sysctl__net_key_blockacq_lifetime
_sysctl__net_key_children
_sysctl__net_key_debug
_sysctl__net_key_esp_auth
_sysctl__net_key_esp_keymin
_sysctl__net_key_int_random
_sysctl__net_key_larval_lifetime
_sysctl__net_key_natt_keepalive_interval
_sysctl__net_key_pfkeystat
_sysctl__net_key_prefered_oldsa
_sysctl__net_key_spi_maxval
_sysctl__net_key_spi_minval
_sysctl__net_key_spi_trycnt
_sysctl__net_link
_sysctl__net_link_bridge
_sysctl__net_link_bridge_children
_sysctl__net_link_bridge_debug
_sysctl__net_link_bridge_inherit_mac
_sysctl__net_link_bridge_rtable_hash_size_max
_sysctl__net_link_bridge_rtable_prune_period
_sysctl__net_link_bridge_txstart
_sysctl__net_link_children
_sysctl__net_link_ether
_sysctl__net_link_ether_children
_sysctl__net_link_ether_inet
_sysctl__net_link_ether_inet_apple_hwcksum_rx
_sysctl__net_link_ether_inet_apple_hwcksum_tx
_sysctl__net_link_ether_inet_arp_llreach_base
_sysctl__net_link_ether_inet_arp_unicast_lim
_sysctl__net_link_ether_inet_children
_sysctl__net_link_ether_inet_host_down_time
_sysctl__net_link_ether_inet_keep_announcements
_sysctl__net_link_ether_inet_log_arp_warnings
_sysctl__net_link_ether_inet_max_age
_sysctl__net_link_ether_inet_maxtries
_sysctl__net_link_ether_inet_proxyall
_sysctl__net_link_ether_inet_prune_intvl
_sysctl__net_link_ether_inet_send_conflicting_probes
_sysctl__net_link_ether_inet_sendllconflict
_sysctl__net_link_ether_inet_stats
_sysctl__net_link_ether_inet_useloopback
_sysctl__net_link_ether_inet_verbose
_sysctl__net_link_generic
_sysctl__net_link_generic_children
_sysctl__net_link_generic_ifalldata
_sysctl__net_link_generic_ifalldata_children
_sysctl__net_link_generic_ifdata
_sysctl__net_link_generic_ifdata_children
_sysctl__net_link_generic_system
_sysctl__net_link_generic_system_children
_sysctl__net_link_generic_system_dlil_input_sanity_check
_sysctl__net_link_generic_system_dlil_input_threads
_sysctl__net_link_generic_system_dlil_lladdr_ckreq
_sysctl__net_link_generic_system_dlil_verbose
_sysctl__net_link_generic_system_flow_advisory
_sysctl__net_link_generic_system_hwcksum_dbg
_sysctl__net_link_generic_system_hwcksum_dbg_adjusted
_sysctl__net_link_generic_system_hwcksum_dbg_bad_cksum
_sysctl__net_link_generic_system_hwcksum_dbg_bad_rxoff
_sysctl__net_link_generic_system_hwcksum_dbg_finalized_data
_sysctl__net_link_generic_system_hwcksum_dbg_finalized_hdr
_sysctl__net_link_generic_system_hwcksum_dbg_mode
_sysctl__net_link_generic_system_hwcksum_dbg_partial_forced
_sysctl__net_link_generic_system_hwcksum_dbg_partial_forced_bytes
_sysctl__net_link_generic_system_hwcksum_dbg_partial_rxoff_adj
_sysctl__net_link_generic_system_hwcksum_dbg_partial_rxoff_forced
_sysctl__net_link_generic_system_hwcksum_dbg_verified
_sysctl__net_link_generic_system_hwcksum_in_invalidated
_sysctl__net_link_generic_system_hwcksum_rx
_sysctl__net_link_generic_system_hwcksum_tx
_sysctl__net_link_generic_system_if_bw_measure_size
_sysctl__net_link_generic_system_if_bw_smoothing_val
_sysctl__net_link_generic_system_if_family_ids
_sysctl__net_link_generic_system_if_verbose
_sysctl__net_link_generic_system_ifcount
_sysctl__net_link_generic_system_llreach_info
_sysctl__net_link_generic_system_llreach_info_children
_sysctl__net_link_generic_system_rcvq_maxlen
_sysctl__net_link_generic_system_rxpoll
_sysctl__net_link_generic_system_rxpoll_decay
_sysctl__net_link_generic_system_rxpoll_freeze_time
_sysctl__net_link_generic_system_rxpoll_interval_pkts
_sysctl__net_link_generic_system_rxpoll_interval_time
_sysctl__net_link_generic_system_rxpoll_max
_sysctl__net_link_generic_system_rxpoll_sample_time
_sysctl__net_link_generic_system_rxpoll_wakeups_hiwat
_sysctl__net_link_generic_system_rxpoll_wakeups_lowat
_sysctl__net_link_generic_system_sndq_maxlen
_sysctl__net_link_iptap
_sysctl__net_link_iptap_children
_sysctl__net_link_iptap_log
_sysctl__net_link_iptap_total_tap_count
_sysctl__net_link_loopback
_sysctl__net_link_loopback_bw_measure
_sysctl__net_link_loopback_bw_sleep_usec
_sysctl__net_link_loopback_children
_sysctl__net_link_loopback_dequeue_sc
_sysctl__net_link_loopback_max_dequeue
_sysctl__net_link_loopback_sched_model
_sysctl__net_link_pktap
_sysctl__net_link_pktap_children
_sysctl__net_link_pktap_count_unknown_if_type
_sysctl__net_link_pktap_log
_sysctl__net_link_pktap_total_tap_count
_sysctl__net_local
_sysctl__net_local_children
_sysctl__net_local_dgram
_sysctl__net_local_dgram_children
_sysctl__net_local_dgram_maxdgram
_sysctl__net_local_dgram_pcblist
_sysctl__net_local_dgram_pcblist64
_sysctl__net_local_dgram_recvspace
_sysctl__net_local_inflight
_sysctl__net_local_stream
_sysctl__net_local_stream_children
_sysctl__net_local_stream_pcblist
_sysctl__net_local_stream_pcblist64
_sysctl__net_local_stream_recvspace
_sysctl__net_local_stream_sendspace
_sysctl__net_local_stream_tracemdns
_sysctl__net_ndrv_multi_max_count
_sysctl__net_pktsched
_sysctl__net_pktsched_children
_sysctl__net_pktsched_verbose
_sysctl__net_route
_sysctl__net_route_children
_sysctl__net_route_verbose
_sysctl__net_routetable
_sysctl__net_routetable_children
_sysctl__net_statistics
_sysctl__net_statistics_privcheck
_sysctl__security
_sysctl__security_children
_sysctl__security_mac
_sysctl__security_mac_children
_sysctl__security_mac_device_enforce
_sysctl__security_mac_labelvnodes
_sysctl__security_mac_max_slots
_sysctl__security_mac_mmap_revocation
_sysctl__security_mac_mmap_revocation_via_cow
_sysctl__security_mac_pipe_enforce
_sysctl__security_mac_posixsem_enforce
_sysctl__security_mac_posixshm_enforce
_sysctl__security_mac_proc_enforce
_sysctl__security_mac_socket_enforce
_sysctl__security_mac_system_enforce
_sysctl__security_mac_sysvmsg_enforce
_sysctl__security_mac_sysvsem_enforce
_sysctl__security_mac_sysvshm_enforce
_sysctl__security_mac_vm_enforce
_sysctl__security_mac_vnode_enforce
_sysctl__sysctl
_sysctl__sysctl_children
_sysctl__sysctl_debug
_sysctl__sysctl_name
_sysctl__sysctl_name2oid
_sysctl__sysctl_name_children
_sysctl__sysctl_next
_sysctl__sysctl_next_children
_sysctl__sysctl_oidfmt
_sysctl__sysctl_oidfmt_children
_sysctl__sysctl_proc_cputype
_sysctl__sysctl_proc_exec_affinity
_sysctl__sysctl_proc_native
_sysctl__user
_sysctl__user_children
_sysctl__vfs
_sysctl__vfs_children
_sysctl__vfs_generic
_sysctl__vfs_generic_always_do_fullfsync
_sysctl__vfs_generic_children
_sysctl__vfs_generic_ctlbyfsid
_sysctl__vfs_generic_ctlbyfsid_children
_sysctl__vfs_generic_hfs
_sysctl__vfs_generic_hfs_children
_sysctl__vfs_generic_hfs_kdebug
_sysctl__vfs_generic_hfs_kdebug_allocation
_sysctl__vfs_generic_hfs_kdebug_children
_sysctl__vfs_generic_jnl
_sysctl__vfs_generic_jnl_children
_sysctl__vfs_generic_jnl_kdebug
_sysctl__vfs_generic_jnl_kdebug_children
_sysctl__vfs_generic_jnl_kdebug_trim
_sysctl__vfs_generic_nfs
_sysctl__vfs_generic_nfs_children
_sysctl__vfs_generic_nfs_client
_sysctl__vfs_generic_nfs_client_access_cache_timeout
_sysctl__vfs_generic_nfs_client_access_delete
_sysctl__vfs_generic_nfs_client_access_dotzfs
_sysctl__vfs_generic_nfs_client_access_for_getattr
_sysctl__vfs_generic_nfs_client_allow_async
_sysctl__vfs_generic_nfs_client_callback_port
_sysctl__vfs_generic_nfs_client_children
_sysctl__vfs_generic_nfs_client_debug_ctl
_sysctl__vfs_generic_nfs_client_idmap_ctrl
_sysctl__vfs_generic_nfs_client_initialdowndelay
_sysctl__vfs_generic_nfs_client_iosize
_sysctl__vfs_generic_nfs_client_is_mobile
_sysctl__vfs_generic_nfs_client_lockd_mounts
_sysctl__vfs_generic_nfs_client_max_async_writes
_sysctl__vfs_generic_nfs_client_nextdowndelay
_sysctl__vfs_generic_nfs_client_nfsiod_thread_count
_sysctl__vfs_generic_nfs_client_nfsiod_thread_max
_sysctl__vfs_generic_nfs_client_single_des
_sysctl__vfs_generic_nfs_client_squishy_flags
_sysctl__vfs_generic_nfs_client_statfs_rate_limit
_sysctl__vfs_generic_nfs_server
_sysctl__vfs_generic_nfs_server_async
_sysctl__vfs_generic_nfs_server_children
_sysctl__vfs_generic_nfs_server_export_hash_size
_sysctl__vfs_generic_nfs_server_fsevents
_sysctl__vfs_generic_nfs_server_gss_context_ttl
_sysctl__vfs_generic_nfs_server_nfsd_thread_count
_sysctl__vfs_generic_nfs_server_nfsd_thread_max
_sysctl__vfs_generic_nfs_server_reqcache_size
_sysctl__vfs_generic_nfs_server_request_queue_length
_sysctl__vfs_generic_nfs_server_require_resv_port
_sysctl__vfs_generic_nfs_server_upcall_queue_count
_sysctl__vfs_generic_nfs_server_upcall_queue_limit
_sysctl__vfs_generic_nfs_server_upcall_queue_max_seen
_sysctl__vfs_generic_nfs_server_use_upcall_svc
_sysctl__vfs_generic_nfs_server_user_stats
_sysctl__vfs_generic_nfs_server_wg_delay
_sysctl__vfs_generic_nfs_server_wg_delay_v3
_sysctl__vfs_generic_noremotehang
_sysctl__vfs_generic_root_unmounted_cleanly
_sysctl__vfs_generic_vfsidlist
_sysctl__vm
_sysctl__vm_all_reusable_calls
_sysctl__vm_all_reuse_calls
_sysctl__vm_allow_data_exec
_sysctl__vm_allow_stack_exec
_sysctl__vm_can_reuse_failure
_sysctl__vm_can_reuse_success
_sysctl__vm_children
_sysctl__vm_compressor_bytes_used
_sysctl__vm_compressor_catchup_threshold_divisor
_sysctl__vm_compressor_eval_period_in_msecs
_sysctl__vm_compressor_majorcompact_threshold_divisor
_sysctl__vm_compressor_minorcompact_threshold_divisor
_sysctl__vm_compressor_mode
_sysctl__vm_compressor_sample_max_in_msecs
_sysctl__vm_compressor_sample_min_in_msecs
_sysctl__vm_compressor_swapout_target_age
_sysctl__vm_compressor_thrashing_min_per_10msecs
_sysctl__vm_compressor_thrashing_threshold_per_10msecs
_sysctl__vm_compressor_unthrottle_threshold_divisor
_sysctl__vm_cs_all_vnodes
_sysctl__vm_cs_blob_count
_sysctl__vm_cs_blob_count_peak
_sysctl__vm_cs_blob_size
_sysctl__vm_cs_blob_size_max
_sysctl__vm_cs_blob_size_peak
_sysctl__vm_cs_debug
_sysctl__vm_cs_enforcement
_sysctl__vm_cs_enforcement_panic
_sysctl__vm_cs_force_hard
_sysctl__vm_cs_force_kill
_sysctl__vm_cs_validation
_sysctl__vm_global_no_user_wire_amount
_sysctl__vm_global_user_wire_limit
_sysctl__vm_loadavg
_sysctl__vm_madvise_free_debug
_sysctl__vm_memory_pressure
_sysctl__vm_page_cleaned_count
_sysctl__vm_page_free_count
_sysctl__vm_page_free_wanted
_sysctl__vm_page_purgeable_count
_sysctl__vm_page_purgeable_wired_count
_sysctl__vm_page_reusable_count
_sysctl__vm_page_speculative_count
_sysctl__vm_pageout_cleaned
_sysctl__vm_pageout_cleaned_busy
_sysctl__vm_pageout_cleaned_commit_reactivated
_sysctl__vm_pageout_cleaned_fault_reactivated
_sysctl__vm_pageout_cleaned_nolock
_sysctl__vm_pageout_cleaned_reactivated
_sysctl__vm_pageout_cleaned_reference_reactivated
_sysctl__vm_pageout_cleaned_volatile_reactivated
_sysctl__vm_pageout_enqueued_cleaned
_sysctl__vm_pageout_enqueued_cleaned_from_inactive_clean
_sysctl__vm_pageout_enqueued_cleaned_from_inactive_dirty
_sysctl__vm_pageout_freed_from_cleaned
_sysctl__vm_pageout_freed_from_inactive_clean
_sysctl__vm_pageout_freed_from_speculative
_sysctl__vm_pageout_inactive_clean
_sysctl__vm_pageout_inactive_dirty_external
_sysctl__vm_pageout_inactive_dirty_internal
_sysctl__vm_pageout_inactive_used
_sysctl__vm_pageout_speculative_clean
_sysctl__vm_partial_reusable_calls
_sysctl__vm_partial_reuse_calls
_sysctl__vm_reusable_failure
_sysctl__vm_reusable_reclaimed
_sysctl__vm_reusable_shared
_sysctl__vm_reusable_success
_sysctl__vm_reuse_failure
_sysctl__vm_reuse_success
_sysctl__vm_shared_region_persistence
_sysctl__vm_shared_region_trace_level
_sysctl__vm_shared_region_unnest_logging
_sysctl__vm_shared_region_version
_sysctl__vm_sigpup_disable
_sysctl__vm_swapusage
_sysctl__vm_user_wire_limit
_sysctl__vm_vm_copy_src_large
_sysctl__vm_vm_copy_src_not_internal
_sysctl__vm_vm_copy_src_not_symmetric
_sysctl__vm_vm_debug_events
_sysctl__vm_vm_page_external_count
_sysctl__vm_vm_page_filecache_min
_sysctl__vm_vm_page_free_target
_sysctl_geometry_lock
_sysctl_handle_int
_sysctl_handle_int2quad
_sysctl_handle_long
_sysctl_handle_opaque
_sysctl_handle_quad
_sysctl_handle_string
_sysctl_if_family_ids
_sysctl_int
_sysctl_io_number
_sysctl_io_opaque
_sysctl_io_string
_sysctl_mem_lock
_sysctl_mib_init
_sysctl_quad
_sysctl_rdint
_sysctl_rdquad
_sysctl_rdstring
_sysctl_rdstruct
_sysctl_register_all
_sysctl_register_fixed
_sysctl_register_oid
_sysctl_register_set
_sysctl_string
_sysctl_struct
_sysctl_trstring
_sysctl_unregister_oid
_sysctl_unregister_set
_sysctl_vnode
_sysctlbyname
_sysdoproc_callback
_systemLogDiags
_system_inshutdown
_system_override
_systemdomain
_systemdomain_s
_systrace_init
_systrace_probe
_systrace_stub
_systrace_sysent
_tablefull
_target_qdelay
_task_act_iterate_wth_args
_task_action_cpuusage
_task_add_importance_watchport
_task_affinity_create
_task_affinity_deallocate
_task_affinity_info
_task_assign
_task_assign_default
_task_backing_store_privileged
_task_choose_pset
_task_clear_cpuusage
_task_clear_has_been_notified
_task_clear_used_for_purging
_task_complete_halt
_task_cpu_usage_monitor_ctl
_task_create
_task_create_internal
_task_deallocate
_task_disable_cpumon
_task_exception_notify
_task_findtid
_task_for_pid
_task_get_assignment
_task_get_emulation_vector
_task_get_exception_ports
_task_get_phys_footprint_limit
_task_get_special_port
_task_get_state
_task_grab_latency_qos
_task_has_been_notified
_task_hold
_task_hold_locked
_task_hold_multiple_assertion
_task_importance
_task_importance_drop_external_assertion
_task_importance_drop_internal_assertion
_task_importance_estimate
_task_importance_externalize_assertion
_task_importance_hold_external_assertion
_task_importance_hold_internal_assertion
_task_importance_mark_donor
_task_importance_mark_receiver
_task_info
_task_init
_task_is_importance_donor
_task_is_importance_receiver
_task_lck_attr
_task_lck_grp
_task_lck_grp_attr
_task_ledgers
_task_mark_has_been_notified
_task_mark_used_for_purging
_task_max
_task_name_deallocate
_task_name_for_pid
_task_pidresume
_task_pidsuspend
_task_pidsuspend_locked
_task_policy
_task_policy_create
_task_policy_get
_task_policy_set
_task_power_info_locked
_task_purgable_info
_task_reference
_task_release
_task_release_locked
_task_resume
_task_resume2
_task_resume_internal
_task_self_trap
_task_server
_task_server_routine
_task_set_64bit
_task_set_cpuusage
_task_set_dyld_info
_task_set_emulation
_task_set_emulation_vector
_task_set_exception_ports
_task_set_info
_task_set_phys_footprint_limit
_task_set_policy
_task_set_port_space
_task_set_ras_pc
_task_set_special_port
_task_set_state
_task_start_halt
_task_subsystem
_task_suspend
_task_suspend2
_task_suspend_internal
_task_suspension_notify
_task_suspension_token_deallocate
_task_swap_exception_ports
_task_swappable
_task_synchronizer_destroy_all
_task_terminate
_task_terminate_internal
_task_threadmax
_task_threads
_task_used_for_purging
_task_vtimer_clear
_task_vtimer_set
_task_vtimer_update
_task_wait
_task_wait_locked
_task_wakeups_monitor_ctl
_task_wakeups_monitor_interval
_task_wakeups_monitor_rate
_task_wakeups_monitor_ustackshots_trigger_pct
_task_wakeups_rate_exceeded
_task_wire
_task_zone
_task_zone_info
_taskq_create
_taskq_destroy
_taskq_dispatch
_tasks
_tasks_count
_tasks_threads_lock
_tasks_tkm_private
_tasks_tkm_shared
_tbeproc
_tcb
_tcbinfo
_tcoal_prio_params
_tcp6_ctlinput
_tcp6_input
_tcp6_usrreqs
_tcp_TCPTV_MIN
_tcp_acc_iaj_high_thresh
_tcp_acc_iaj_react_limit
_tcp_allowed_iaj
_tcp_autorcvbuf_inc_shift
_tcp_autorcvbuf_max
_tcp_autosndbuf_inc
_tcp_autosndbuf_max
_tcp_backoff
_tcp_bad_rexmt_fix_sndbuf
_tcp_bwmeas_alloc
_tcp_bwmeas_free
_tcp_bwmeas_zone
_tcp_canceltimers
_tcp_cansbgrow
_tcp_cc_algo_list
_tcp_cc_ledbat
_tcp_cc_newreno
_tcp_cc_resize_sndbuf
_tcp_ccgen
_tcp_check_timer_state
_tcp_clean_sackreport
_tcp_clear_recv_bg
_tcp_close
_tcp_ctlinput
_tcp_ctloutput
_tcp_delack
_tcp_delack_enabled
_tcp_do_autorcvbuf
_tcp_do_autosendbuf
_tcp_do_rfc3390
_tcp_do_rfc3465
_tcp_do_rfc3465_lim2
_tcp_do_sack
_tcp_do_tso
_tcp_drain
_tcp_drop
_tcp_drop_syn_sent
_tcp_ecn_inbound
_tcp_ecn_outbound
_tcp_fillheaders
_tcp_free_sackholes
_tcp_freeq
_tcp_gc
_tcp_get_msg_priority
_tcp_getconninfo
_tcp_getlock
_tcp_getrt_rtt
_tcp_gettaocache
_tcp_in6_cksum_stats
_tcp_in_cksum_stats
_tcp_init
_tcp_input
_tcp_input_checksum
_tcp_keepalive_reset
_tcp_keepcnt
_tcp_keepidle
_tcp_keepinit
_tcp_keepintvl
_tcp_ledbat_ack_rcvd
_tcp_ledbat_after_idle
_tcp_ledbat_after_timeout
_tcp_ledbat_cleanup
_tcp_ledbat_cwnd_init
_tcp_ledbat_delay_ack
_tcp_ledbat_init
_tcp_ledbat_inseq_ack_rcvd
_tcp_ledbat_post_fr
_tcp_ledbat_pre_fr
_tcp_ledbat_switch_cc
_tcp_lock
_tcp_lq_overflow
_tcp_lro
_tcp_lro_init
_tcp_lro_lock
_tcp_lro_remove_state
_tcp_lro_timer
_tcp_maketemplate
_tcp_max_persist_timeout
_tcp_maxpersistidle
_tcp_maxrcvidle
_tcp_min_iaj_win
_tcp_minmss
_tcp_msl
_tcp_mss
_tcp_mssdflt
_tcp_mssopt
_tcp_mtudisc
_tcp_new_isn
_tcp_newreno_ack_rcvd
_tcp_newreno_after_timeout
_tcp_newreno_cleanup
_tcp_newreno_cwnd_init_or_reset
_tcp_newreno_delay_ack
_tcp_newreno_init
_tcp_newreno_inseq_ack_rcvd
_tcp_newreno_post_fr
_tcp_newreno_pre_fr
_tcp_newreno_switch_cc
_tcp_newtcpcb
_tcp_notsent_lowat_check
_tcp_now
_tcp_out6_cksum_stats
_tcp_out_cksum_stats
_tcp_output
_tcp_output_unlocked
_tcp_packet_chaining
_tcp_pmtud_black_hole_detect
_tcp_pmtud_black_hole_mss
_tcp_prioritize_acks
_tcp_rbuf_hiwat_shift
_tcp_rbuf_win_shift
_tcp_rcvsspktcnt
_tcp_rcvunackwin
_tcp_reass_zone
_tcp_recv_bg
_tcp_recv_throttle_minwin
_tcp_recvspace
_tcp_remove_from_time_wait
_tcp_reset_stretch_ack
_tcp_respond
_tcp_rexmt_slop
_tcp_rtlookup
_tcp_rtlookup6
_tcp_run_timerlist
_tcp_sack_adjust
_tcp_sack_doack
_tcp_sack_output
_tcp_sack_partialack
_tcp_sbrcv_trim
_tcp_sbspace
_tcp_sendspace
_tcp_set_background_cc
_tcp_set_foreground_cc
_tcp_set_max_rwinscale
_tcp_set_recv_bg
_tcp_set_tso
_tcp_setpersist
_tcp_start_coalescing
_tcp_syn_backoff
_tcp_timer_list
_tcp_timers
_tcp_tw_tailq
_tcp_unlock
_tcp_update_lro_seq
_tcp_update_sack_list
_tcp_uptime
_tcp_uptime_lock
_tcp_use_rtt_recvbg
_tcp_usrreqs
_tcp_v6mssdflt
_tcprexmtthresh
_tcpstat
_tcq_add_queue
_tcq_alloc
_tcq_dequeue_tc
_tcq_destroy
_tcq_enqueue
_tcq_event
_tcq_get_class_stats
_tcq_getqstats_ifclassq
_tcq_init
_tcq_purge
_tcq_remove_queue
_tcq_setup_ifclassq
_tcq_teardown_ifclassq
_telemetry
_telemetry_active_tasks
_telemetry_ast
_telemetry_buffer
_telemetry_buffer_current_position
_telemetry_buffer_end_point
_telemetry_buffer_notify_at
_telemetry_buffer_size
_telemetry_bytes_since_last_mark
_telemetry_gather
_telemetry_global_ctl
_telemetry_init
_telemetry_lck_grp
_telemetry_mark_curthread
_telemetry_mtx
_telemetry_needs_record
_telemetry_needs_timer_arming_record
_telemetry_notification
_telemetry_sample_all_tasks
_telemetry_sample_rate
_telemetry_take_sample
_telemetry_task_ctl
_telemetry_task_ctl_locked
_telemetry_timer_event
_telemetry_timestamp
_tempDTraceTrapHook
_temp_debug_13841988
_terminated_tasks
_terminated_tasks_count
_termioschars
_testbit
_tether_shift
_text_crypter_create
_text_crypter_create_hook_set
_thread_abort
_thread_abort_safely
_thread_act_server
_thread_act_server_routine
_thread_act_subsystem
_thread_adjuserstack
_thread_affinity_dup
_thread_affinity_exec
_thread_affinity_get
_thread_affinity_is_supported
_thread_affinity_set
_thread_affinity_terminate
_thread_assign
_thread_assign_default
_thread_bind
_thread_block
_thread_block_parameter
_thread_block_reason
_thread_bootstrap
_thread_bootstrap_return
_thread_call_allocate
_thread_call_allocate_with_priority
_thread_call_cancel
_thread_call_cancel_wait
_thread_call_delayed_timer
_thread_call_delayed_timer_rescan_all
_thread_call_enter
_thread_call_enter1
_thread_call_enter1_delayed
_thread_call_enter_delayed
_thread_call_enter_delayed_with_leeway
_thread_call_free
_thread_call_func_cancel
_thread_call_func_delayed
_thread_call_func_delayed_with_leeway
_thread_call_initialize
_thread_call_internal_queue_count
_thread_call_isactive
_thread_call_lck_attr
_thread_call_lck_grp
_thread_call_lck_grp_attr
_thread_call_lock_data
_thread_call_queues_lck_grp
_thread_call_setup
_thread_clear_eager_preempt
_thread_continue
_thread_create
_thread_create_from_user
_thread_create_running
_thread_create_running_from_user
_thread_create_workq
_thread_daemon_init
_thread_deallocate
_thread_depress_abort
_thread_depress_abort_internal
_thread_depress_abstime
_thread_depress_expire
_thread_depress_ms
_thread_depress_time
_thread_dispatch
_thread_dispatchqaddr
_thread_dup
_thread_eager_preemption
_thread_entrypoint
_thread_exception_return
_thread_fast_set_cthread_self
_thread_fast_set_cthread_self64
_thread_flavor_array
_thread_funnel_get
_thread_funnel_set
_thread_get_assignment
_thread_get_cpulimit
_thread_get_exception_ports
_thread_get_special_port
_thread_get_state
_thread_get_tag
_thread_get_urgency
_thread_getstatus
_thread_go
_thread_guard_violation
_thread_hold
_thread_info
_thread_info_internal
_thread_init
_thread_issignal
_thread_lck_attr
_thread_lck_grp
_thread_ledgers
_thread_max
_thread_notrigger
_thread_policy
_thread_policy_get
_thread_policy_reset
_thread_policy_set
_thread_policy_set_internal
_thread_poll_yield
_thread_quantum_expire
_thread_quantum_init
_thread_read_times
_thread_reference
_thread_release
_thread_resume
_thread_run
_thread_run_queue_remove
_thread_sched_call
_thread_self_trap
_thread_selfid
_thread_set_child
_thread_set_cpulimit
_thread_set_eager_preempt
_thread_set_exception_ports
_thread_set_parent
_thread_set_policy
_thread_set_special_port
_thread_set_state
_thread_set_state_from_user
_thread_set_tag
_thread_set_user_ldt
_thread_set_wq_state32
_thread_set_wq_state64
_thread_setentrypoint
_thread_setrun
_thread_setsinglestep
_thread_setstatus
_thread_setuserstack
_thread_should_abort
_thread_should_halt
_thread_sleep_lock_write
_thread_sleep_lock_write_EXT
_thread_sleep_mutex_EXT
_thread_sleep_mutex_deadline_EXT
_thread_sleep_usimple_lock
_thread_sleep_usimple_lock_EXT
_thread_stack_enqueue
_thread_start_internal
_thread_state_initialize
_thread_static_param
_thread_stop
_thread_suspend
_thread_swap_exception_ports
_thread_switch
_thread_syscall_return
_thread_task_priority
_thread_tell_urgency
_thread_terminate
_thread_terminate_enqueue
_thread_terminate_internal
_thread_terminate_self
_thread_tid
_thread_timer_event
_thread_timer_expire
_thread_unblock
_thread_unstop
_thread_userstack
_thread_userstackdefault
_thread_wait
_thread_wakeup
_thread_wakeup_prim
_thread_wakeup_prim_internal
_thread_wire
_thread_wire_internal
_thread_yield_internal
_threads
_threads_count
_threadsignal
_throttle_get_io_policy
_throttle_get_passive_io_policy
_throttle_info_create
_throttle_info_get_last_io_time
_throttle_info_io_will_be_throttled
_throttle_info_mount_ref
_throttle_info_mount_rel
_throttle_info_ref_by_mask
_throttle_info_rel_by_mask
_throttle_info_release
_throttle_info_update
_throttle_info_update_by_mask
_throttle_info_update_by_mount
_throttle_init
_throttle_io_period_msecs
_throttle_io_period_ssd_msecs
_throttle_io_will_be_throttled
_throttle_lowpri_io
_throttle_max_iosize
_throttle_set_thread_io_policy
_throttle_windows_msecs
_throttled_count
_tick
_ticket_pabuf
_time_zone_slock_init
_timeout
_timeout_with_leeway
_timer_advance
_timer_call_cancel
_timer_call_cpu
_timer_call_dequeue_unlocked
_timer_call_enqueue_deadline_unlocked
_timer_call_enter
_timer_call_enter1
_timer_call_enter_with_leeway
_timer_call_init
_timer_call_lck_attr
_timer_call_lck_grp
_timer_call_lck_grp_attr
_timer_call_nosync_cpu
_timer_call_queue_init
_timer_call_setup
_timer_call_slop
_timer_deadline_tracking_bin_1
_timer_deadline_tracking_bin_2
_timer_delta
_timer_fastmode_idlemax
_timer_init
_timer_intr
_timer_longterm
_timer_longterm_lck_attr
_timer_longterm_lck_grp
_timer_longterm_lck_grp_attr
_timer_longterm_scan
_timer_queue_assign
_timer_queue_cancel
_timer_queue_cpu
_timer_queue_expire
_timer_queue_expire_local
_timer_queue_expire_lock_skips
_timer_queue_expire_rescan
_timer_queue_expire_with_options
_timer_queue_migrate
_timer_queue_migrate_cpu
_timer_queue_migrate_lock_skips
_timer_queue_shutdown
_timer_queue_shutdown_lock_skips
_timer_queue_trace
_timer_queue_trace_cpu
_timer_resort_threshold
_timer_resync_deadlines
_timer_set_deadline
_timer_start
_timer_stop
_timer_switch
_timer_sysctl_get
_timer_sysctl_set
_timer_user_idle_level
_timevaladd
_timevalfix
_timevalsub
_tk_cancc
_tk_nin
_tk_nout
_tk_rawcc
_tmrCvt
_to_bsd_time
_to_hfs_time
_token_free_idx
_token_init_idx
_token_new_pagecount
_token_q_cur_size
_token_q_max_cnt
_tokens
_top_ztrace
_topoParms
_topo_dbg
_total_sav_count
_tprintf
_tprintf_close
_tprintf_open
_tputchar
_trace_backtrace
_trailer_template
_trap_type
_trashMemory
_tree_id
_tree_src_tracking
_trigger_name_to_port
_trigger_vnode_lck_attr
_trigger_vnode_lck_grp
_trigger_vnode_lck_grp_attr
_truncate
_try_free_failed
_try_free_succeeded
_try_minor_compaction_failed
_try_minor_compaction_succeeded
_tscFCvtn2t
_tscFCvtt2n
_tscFreq
_tscGranularity
_tsc_at_boot
_tsc_get_info
_tsc_init
_tsc_rebase_abs_time
_tsleep
_tsleep0
_tsleep1
_tss_desc_pattern
_ttioctl
_ttioctl_locked
_ttread
_ttselect
_ttsetwater
_ttspeedtab
_ttstart
_ttwakeup
_ttwrite
_ttwwakeup
_tty_init
_tty_lock
_tty_pgrp
_tty_pgsignal
_tty_unlock
_ttyblock
_ttycheckoutq
_ttyclose
_ttyflush
_ttyfree
_ttyinfo_locked
_ttyinput
_ttylclose
_ttymalloc
_ttymodem
_ttyopen
_ttyprintf
_ttyselect
_ttysleep
_ttywait
_turn_on_log_leaks
_tvtoabstime
_tvtohz
_tz
_tz_slock
_tz_slock_attr
_tz_slock_grp
_tz_slock_grp_attr
_ubc_blktooff
_ubc_create_upl
_ubc_cs_blob_add
_ubc_cs_blob_allocate
_ubc_cs_blob_deallocate
_ubc_cs_blob_get
_ubc_cs_check_validation_bitmap
_ubc_cs_getcdhash
_ubc_cs_sigpup_add
_ubc_cs_validation_bitmap_allocate
_ubc_cs_validation_bitmap_deallocate
_ubc_get_cs_blobs
_ubc_get_cs_mtime
_ubc_getcred
_ubc_getobject
_ubc_getsize
_ubc_info_deallocate
_ubc_info_init
_ubc_info_init_withsize
_ubc_info_zone
_ubc_isinuse
_ubc_isinuse_locked
_ubc_msync
_ubc_offtoblk
_ubc_page_op
_ubc_pages_resident
_ubc_range_op
_ubc_setcred
_ubc_setsize
_ubc_setthreadcred
_ubc_strict_uncached_IO
_ubc_sync_range
_ubc_upl_abort
_ubc_upl_abort_range
_ubc_upl_commit
_ubc_upl_commit_range
_ubc_upl_map
_ubc_upl_maxbufsize
_ubc_upl_pageinfo
_ubc_upl_range_needed
_ubc_upl_unmap
_ucode_interface
_ucode_update_wake
_udb
_udbinfo
_udp6_connect
_udp6_ctlinput
_udp6_input
_udp6_output
_udp6_recvspace
_udp6_sendspace
_udp6_usrreqs
_udp_connectx_common
_udp_ctlinput
_udp_ctloutput
_udp_getlock
_udp_in6_cksum_stats
_udp_in_cksum_stats
_udp_init
_udp_input
_udp_lock
_udp_log_in_vain
_udp_notify
_udp_out6_cksum_stats
_udp_out_cksum_stats
_udp_recvspace
_udp_sendspace
_udp_shutdown
_udp_unlock
_udp_usrreqs
_udpstat
_uihash
_uihashtbl
_uio_addiov
_uio_create
_uio_curriovbase
_uio_curriovlen
_uio_duplicate
_uio_free
_uio_getiov
_uio_iovcnt
_uio_isuserspace
_uio_offset
_uio_reset
_uio_resid
_uio_rw
_uio_setoffset
_uio_setresid
_uio_setrw
_uio_update
_uiomove
_uiomove64
_uipc_ctloutput
_uipc_lock
_uipc_usrreqs
_umask
_umask_extended
_uncompress
_undelete
_unicode_combinable
_unicode_decomposeable
_unicode_to_hfs
_union_dircheckp
_unix_syscall
_unix_syscall64
_unix_syscall_return
_unlink
_unlink1
_unmount
_unmountroot_pre_hook
_unp_connect2
_unp_dispose
_unp_externalize
_unp_gc_wait
_unp_getlock
_unp_init
_unp_lock
_unp_unlock
_unp_zone
_unpackA
_unputc
_unregister_cpu_setup_func
_unregister_decmpfs_decompressor
_untimeout
_unused_except_for_debugging
_update_first_free_ll
_update_first_free_rb
_update_last_io_time
_update_priority
_update_rusage_info_child
_upl_abort
_upl_abort_range
_upl_clear_dirty
_upl_commit
_upl_commit_range
_upl_deallocate
_upl_device_page
_upl_dirty_page
_upl_encrypt
_upl_get_highest_page
_upl_get_internal_page_list
_upl_get_internal_pagelist_offset
_upl_get_internal_vectorupl
_upl_get_internal_vectorupl_pagelist
_upl_get_size
_upl_offset_to_pagelist
_upl_page_present
_upl_phys_page
_upl_range_needed
_upl_server
_upl_server_routine
_upl_set_referenced
_upl_speculative_page
_upl_subsystem
_upl_transpose
_upl_valid_page
_uprintf
_uread
_ureadc
_urgency_notification_assert_abstime_threshold
_urgency_notification_max_recorded
_use_emergency_swap_file_first
_user_ldt_copy
_user_ldt_free
_user_ldt_set
_user_trap
_user_warned
_useracc
_userland_sysctl
_usimple_lock
_usimple_lock_EXT
_usimple_lock_init
_usimple_lock_init_EXT
_usimple_lock_try
_usimple_lock_try_EXT
_usimple_unlock
_usimple_unlock_EXT
_utf8_decodestr
_utf8_encodelen
_utf8_encodestr
_utf8_normalizestr
_utf8_to_hfs
_utf8_to_mac_roman
_utf8_validatestr
_utf_extrabytes
_uthread_alloc
_uthread_cleanup
_uthread_cred_free
_uthread_zone
_uthread_zone_free
_utimes
_utun_alloc
_utun_cleanup_all_crypto_ipsec
_utun_cleanup_crypto
_utun_ctl_config_crypto_dtls_framer
_utun_ctl_config_crypto_framer
_utun_ctl_config_crypto_keys
_utun_ctl_config_crypto_keys_ipsec
_utun_ctl_disable_crypto
_utun_ctl_disable_crypto_dtls
_utun_ctl_disable_crypto_ipsec
_utun_ctl_enable_crypto
_utun_ctl_enable_crypto_dtls
_utun_ctl_enable_crypto_ipsec
_utun_ctl_generate_crypto_keys_idx
_utun_ctl_generate_crypto_keys_idx_ipsec
_utun_ctl_init_crypto
_utun_ctl_init_crypto_dtls
_utun_ctl_register_dtls
_utun_ctl_start_crypto_data_traffic
_utun_ctl_start_datatraffic_crypto_dtls
_utun_ctl_stop_crypto_data_traffic
_utun_ctl_stop_datatraffic_crypto_dtls
_utun_ctl_unconfig_crypto_dtls_framer
_utun_ctl_unconfig_crypto_framer
_utun_ctl_unconfig_crypto_keys
_utun_ctl_unconfig_crypto_keys_ipsec
_utun_free
_utun_pkt_crypto_output
_utun_pkt_dtls_input
_utun_pkt_dtls_output
_utun_pkt_input
_utun_pkt_ipsec_input
_utun_pkt_ipsec_output
_utun_pkt_is_ipsec_keepalive
_utun_register_control
_uuid_clear
_uuid_compare
_uuid_copy
_uuid_generate
_uuid_generate_random
_uuid_generate_time
_uuid_get_ethernet
_uuid_is_null
_uuid_parse
_uuid_unparse
_uuid_unparse_lower
_uuid_unparse_upper
_uwrite
_ux_exception_port
_ux_handler_init
_v_putc
_vaddlog
_valid_user_code_selector
_valid_user_data_selector
_valid_user_segment_selectors
_valid_user_stack_selector
_vc_display_icon
_vc_display_lzss_icon
_vc_enable_progressmeter
_vc_progress_initialize
_vc_progress_lock
_vc_progress_meter_enable
_vc_progress_meter_value
_vc_progress_set
_vc_set_progressmeter
_vcattach
_vcgetc
_vcount
_vcputc
_vector_upl_create
_vector_upl_deallocate
_vector_upl_get_iostate
_vector_upl_get_iostate_byindex
_vector_upl_get_submap
_vector_upl_is_valid
_vector_upl_set_iostate
_vector_upl_set_pagelist
_vector_upl_set_submap
_vector_upl_set_subupl
_vector_upl_subupl_byindex
_vector_upl_subupl_byoffset
_verbose
_version
_version_major
_version_minor
_version_prerelease_level
_version_revision
_version_stage
_version_variant
_vetoSleepWakeNotification
_vflush
_vfork
_vfork_exit
_vfork_exit_internal
_vfork_return
_vfs_64bitready
_vfs_addname
_vfs_addtrigger
_vfs_authcache_ttl
_vfs_authopaque
_vfs_authopaqueaccess
_vfs_busy
_vfs_clearauthcache_ttl
_vfs_clearauthopaque
_vfs_clearauthopaqueaccess
_vfs_clearextendedsecurity
_vfs_clearflags
_vfs_context_bind
_vfs_context_create
_vfs_context_current
_vfs_context_cwd
_vfs_context_get_special_port
_vfs_context_is64bit
_vfs_context_issignal
_vfs_context_issuser
_vfs_context_kernel
_vfs_context_pid
_vfs_context_proc
_vfs_context_rele
_vfs_context_set_special_port
_vfs_context_suser
_vfs_context_thread
_vfs_context_ucred
_vfs_ctx_skipatime
_vfs_devblocksize
_vfs_devvp
_vfs_event_init
_vfs_event_signal
_vfs_extendedsecurity
_vfs_flags
_vfs_fsadd
_vfs_fsprivate
_vfs_fsremove
_vfs_get_notify_attributes
_vfs_getattr
_vfs_getbyid
_vfs_getnewfsid
_vfs_getvfs
_vfs_getvfs_by_mntonname
_vfs_init_io_attributes
_vfs_ioattr
_vfs_isforce
_vfs_isrdonly
_vfs_isrdwr
_vfs_isreload
_vfs_issynchronous
_vfs_istraditionaltrigger
_vfs_isunmount
_vfs_isupdate
_vfs_iswriteupgrade
_vfs_iterate
_vfs_maxsymlen
_vfs_mntlabel
_vfs_mountedon
_vfs_mountroot
_vfs_name
_vfs_nativexattrs
_vfs_notify_mount
_vfs_nummntops
_vfs_op_descs
_vfs_op_init
_vfs_opv_descs
_vfs_opv_init
_vfs_opv_numops
_vfs_purge
_vfs_removename
_vfs_resolver_auxiliary
_vfs_resolver_result
_vfs_resolver_sequence
_vfs_resolver_status
_vfs_rootmountalloc
_vfs_rootvnode
_vfs_setattr
_vfs_setauthcache_ttl
_vfs_setauthopaque
_vfs_setauthopaqueaccess
_vfs_setcompoundopen
_vfs_setextendedsecurity
_vfs_setflags
_vfs_setfsprivate
_vfs_setioattr
_vfs_setlocklocal
_vfs_setmaxsymlen
_vfs_settriggercallback
_vfs_setunmountpreflight
_vfs_statfs
_vfs_sysctl
_vfs_throttle_mask
_vfs_typenum
_vfs_unbusy
_vfs_unmountbyfsid
_vfs_update_vfsstat
_vfs_vnodecovered
_vfsconf
_vfsinit
_vfstable_add
_vfstable_del
_vget_internal
_video_scroll_down
_video_scroll_up
_vinfo
_virtual_avail
_virtual_end
_virtual_space_end
_virtual_space_start
_virtualized
_vm32__task_wire
_vm32_allocate
_vm32_behavior_set
_vm32_copy
_vm32_deallocate
_vm32_inherit
_vm32_machine_attribute
_vm32_make_memory_entry
_vm32_make_memory_entry_64
_vm32_map
_vm32_map_64
_vm32_map_page_query
_vm32_map_subsystem
_vm32_mapped_pages_info
_vm32_msync
_vm32_protect
_vm32_purgable_control
_vm32_read
_vm32_read_list
_vm32_read_overwrite
_vm32_region
_vm32_region_64
_vm32_region_info
_vm32_region_info_64
_vm32_region_recurse
_vm32_region_recurse_64
_vm32_remap
_vm32_write
_vm_allocate
_vm_allocate_cpm
_vm_allocate_cpm_privileged
_vm_available_memory
_vm_backing_store_disable
_vm_backing_store_low
_vm_behavior_set
_vm_cache_geometry_colors
_vm_color_mask
_vm_colors
_vm_commpage_enter
_vm_commpage_init
_vm_commpage_text_init
_vm_compression_available
_vm_compression_limit
_vm_compressor_catchup_threshold_divisor
_vm_compressor_delay_trim
_vm_compressor_do_warmup
_vm_compressor_failed
_vm_compressor_flush
_vm_compressor_free
_vm_compressor_get
_vm_compressor_init
_vm_compressor_init_locks
_vm_compressor_lck_attr
_vm_compressor_lck_grp
_vm_compressor_lck_grp_attr
_vm_compressor_low_on_space
_vm_compressor_majorcompact_threshold_divisor
_vm_compressor_minorcompact_threshold_divisor
_vm_compressor_mode
_vm_compressor_pager_get
_vm_compressor_pager_init
_vm_compressor_pager_put
_vm_compressor_pager_state_clr
_vm_compressor_pager_state_get
_vm_compressor_put
_vm_compressor_record_warmup_end
_vm_compressor_record_warmup_start
_vm_compressor_thread_count
_vm_compressor_total_compressions
_vm_compressor_unthrottle_threshold_divisor
_vm_compute_max_offset
_vm_conflict_check
_vm_consider_waking_compactor_swapper
_vm_copy
_vm_countdirtypages
_vm_cs_bitmap_validated
_vm_cs_query_modified
_vm_cs_revalidates
_vm_cs_validated_dirtied
_vm_cs_validates
_vm_deallocate
_vm_debug_events
_vm_decompressor_lock
_vm_decompressor_unlock
_vm_default_behind
_vm_external_copy
_vm_external_create
_vm_external_destroy
_vm_external_map_size
_vm_external_module_initialize
_vm_external_state_clr
_vm_external_state_set
_vm_external_within
_vm_fault
_vm_fault_cleanup
_vm_fault_collapse_skipped
_vm_fault_collapse_total
_vm_fault_copy
_vm_fault_copy_cleanup
_vm_fault_copy_dst_cleanup
_vm_fault_enter
_vm_fault_init
_vm_fault_list_request
_vm_fault_page
_vm_fault_page_blocked_access
_vm_fault_page_forced_retry
_vm_fault_unwire
_vm_fault_wire
_vm_fault_wire_fast
_vm_global_no_user_wire_amount
_vm_global_user_wire_limit
_vm_hard_throttle_threshold
_vm_himemory_mode
_vm_inherit
_vm_initial_limit_core
_vm_initial_limit_data
_vm_initial_limit_stack
_vm_kernel_addrperm
_vm_kernel_base
_vm_kernel_base_page
_vm_kernel_etext
_vm_kernel_ready
_vm_kernel_reserved_entry_init
_vm_kernel_slide
_vm_kernel_stext
_vm_kernel_top
_vm_kext_base
_vm_kext_top
_vm_knote_register
_vm_knote_unregister
_vm_last_addr
_vm_lopage_free_count
_vm_lopage_free_limit
_vm_lopage_lowater
_vm_lopage_needed
_vm_lopage_queue_free
_vm_lopage_refill
_vm_lopages_allocated_cpm_failed
_vm_lopages_allocated_cpm_success
_vm_lopages_allocated_q
_vm_low_on_space
_vm_machine_attribute
_vm_map
_vm_map_64
_vm_map_apple_protected
_vm_map_behavior_set
_vm_map_check_protection
_vm_map_clear_4GB_pagezero
_vm_map_clip_end
_vm_map_clip_start
_vm_map_copy_copy
_vm_map_copy_discard
_vm_map_copy_extract
_vm_map_copy_overwrite
_vm_map_copy_overwrite_aligned_src_large
_vm_map_copy_overwrite_aligned_src_not_internal
_vm_map_copy_overwrite_aligned_src_not_symmetric
_vm_map_copy_remap
_vm_map_copyin
_vm_map_copyin_common
_vm_map_copyin_object
_vm_map_copyout
_vm_map_copyout_internal
_vm_map_create
_vm_map_create_upl
_vm_map_deallocate
_vm_map_destroy
_vm_map_disable_NX
_vm_map_disallow_data_exec
_vm_map_enter
_vm_map_enter_cpm
_vm_map_enter_mem_object
_vm_map_enter_mem_object_control
_vm_map_enter_upl
_vm_map_entry_insert
_vm_map_entry_should_cow_for_true_share
_vm_map_exec
_vm_map_find_space
_vm_map_fork
_vm_map_get_max_aslr_slide_pages
_vm_map_get_phys_page
_vm_map_get_upl
_vm_map_has_hard_pagezero
_vm_map_inherit
_vm_map_init
_vm_map_iokit_mapped_region
_vm_map_iokit_unmapped_region
_vm_map_is_64bit
_vm_map_lck_attr
_vm_map_lck_grp
_vm_map_lck_grp_attr
_vm_map_lookup_entry
_vm_map_lookup_locked
_vm_map_machine_attribute
_vm_map_msync
_vm_map_page_info
_vm_map_page_mask
_vm_map_page_query
_vm_map_page_query_internal
_vm_map_page_shift
_vm_map_page_size
_vm_map_pmap_enter_enable
_vm_map_pmap_enter_print
_vm_map_pmap_is_empty
_vm_map_protect
_vm_map_purgable_control
_vm_map_query_volatile
_vm_map_raise_max_offset
_vm_map_raise_min_offset
_vm_map_random_address_for_size
_vm_map_read_user
_vm_map_reference
_vm_map_region
_vm_map_region_recurse_64
_vm_map_region_top_walk
_vm_map_region_walk
_vm_map_remap
_vm_map_remove
_vm_map_remove_upl
_vm_map_round_page_mask
_vm_map_set_32bit
_vm_map_set_4GB_pagezero
_vm_map_set_64bit
_vm_map_set_cache_attr
_vm_map_set_cache_attr_count
_vm_map_set_page_shift
_vm_map_set_user_wire_limit
_vm_map_sign
_vm_map_simplify
_vm_map_simplify_entry
_vm_map_steal_memory
_vm_map_store_copy_insert
_vm_map_store_copy_insert_ll
_vm_map_store_copy_insert_rb
_vm_map_store_copy_reset
_vm_map_store_copy_reset_ll
_vm_map_store_copy_reset_rb
_vm_map_store_entry_link
_vm_map_store_entry_link_ll
_vm_map_store_entry_link_rb
_vm_map_store_entry_unlink
_vm_map_store_entry_unlink_ll
_vm_map_store_entry_unlink_rb
_vm_map_store_init
_vm_map_store_init_ll
_vm_map_store_init_rb
_vm_map_store_lookup_entry
_vm_map_store_lookup_entry_ll
_vm_map_store_lookup_entry_rb
_vm_map_store_update
_vm_map_store_update_first_free
_vm_map_store_walk_rb
_vm_map_submap
_vm_map_submap_pmap_clean
_vm_map_switch
_vm_map_switch_protect
_vm_map_trunc_page_mask
_vm_map_unwire
_vm_map_verify
_vm_map_wire
_vm_map_write_user
_vm_max_batch
_vm_max_delayed_work_limit
_vm_max_kernel_address
_vm_mem_bootstrap
_vm_mem_init
_vm_memory_pressure
_vm_min_kernel_address
_vm_msync
_vm_num_swap_files
_vm_object_cache_add
_vm_object_cache_evict
_vm_object_cache_lck_grp
_vm_object_cache_remove
_vm_object_change_wimg_mode
_vm_object_change_wimg_mode_count
_vm_object_collapse_encrypted
_vm_object_compressor_pager_create
_vm_object_deallocate_shared_failures
_vm_object_deallocate_shared_successes
_vm_object_deallocate_shared_swap_failures
_vm_object_destroy
_vm_object_enter
_vm_object_get_page_counts
_vm_object_hash_entry_free
_vm_object_iopl_request
_vm_object_iopl_request_sleep_for_cleaning
_vm_object_lck_attr
_vm_object_lck_grp
_vm_object_lck_grp_attr
_vm_object_lock
_vm_object_lock_avoid
_vm_object_lock_shared
_vm_object_lock_try
_vm_object_lock_try_shared
_vm_object_page_grab
_vm_object_page_map
_vm_object_page_op
_vm_object_page_remove_iterate
_vm_object_page_remove_lookup
_vm_object_pagein_throttle
_vm_object_pager_create
_vm_object_populate_with_private
_vm_object_purgable_control
_vm_object_purge
_vm_object_range_op
_vm_object_reap_count
_vm_object_reap_count_async
_vm_object_reap_pages
_vm_object_reaper_init
_vm_object_reuse_pages
_vm_object_set_pmap_cache_attr
_vm_object_shadow_check
_vm_object_sync
_vm_object_transpose
_vm_object_transpose_count
_vm_object_update
_vm_page_activate
_vm_page_active_count
_vm_page_alloc
_vm_page_alloc_guard
_vm_page_alloc_list
_vm_page_alloc_lock
_vm_page_alloc_lock_ext
_vm_page_alloclo
_vm_page_anonymous_count
_vm_page_anonymous_min
_vm_page_bootstrap
_vm_page_bucket_count
_vm_page_bucket_hash
_vm_page_bucket_lock_count
_vm_page_bucket_locks
_vm_page_buckets
_vm_page_cleaned_count
_vm_page_compressions_failing
_vm_page_copy
_vm_page_copy_cs_tainted
_vm_page_copy_cs_validations
_vm_page_create
_vm_page_creation_throttle
_vm_page_deactivate
_vm_page_deactivate_behind
_vm_page_deactivate_behind_count
_vm_page_deactivate_hint
_vm_page_deactivate_internal
_vm_page_decrypt
_vm_page_decrypt_counter
_vm_page_decrypt_for_upl_counter
_vm_page_do_delayed_work
_vm_page_encrypt
_vm_page_encrypt_abort_counter
_vm_page_encrypt_already_encrypted_counter
_vm_page_encrypt_counter
_vm_page_enqueue_cleaned
_vm_page_external_count
_vm_page_fictitious_addr
_vm_page_fictitious_count
_vm_page_filecache_min
_vm_page_free
_vm_page_free_count
_vm_page_free_count_init
_vm_page_free_count_minimum
_vm_page_free_list
_vm_page_free_min
_vm_page_free_prepare_object
_vm_page_free_prepare_queues
_vm_page_free_reserve
_vm_page_free_reserved
_vm_page_free_target
_vm_page_free_unlocked
_vm_page_free_verify
_vm_page_free_wanted
_vm_page_free_wanted_privileged
_vm_page_get_next
_vm_page_get_offset
_vm_page_get_phys_page
_vm_page_gobble
_vm_page_gobble_count
_vm_page_gobble_count_warning
_vm_page_grab
_vm_page_grab_fictitious
_vm_page_grab_guard
_vm_page_grablo
_vm_page_guard_addr
_vm_page_hash_mask
_vm_page_hash_shift
_vm_page_inactive_count
_vm_page_inactive_min
_vm_page_inactive_target
_vm_page_init
_vm_page_init_local_q
_vm_page_insert
_vm_page_insert_internal
_vm_page_internal_count
_vm_page_is_slideable
_vm_page_lck_attr
_vm_page_lck_grp_alloc
_vm_page_lck_grp_attr
_vm_page_lck_grp_bucket
_vm_page_lck_grp_free
_vm_page_lck_grp_local
_vm_page_lck_grp_purge
_vm_page_lck_grp_queue
_vm_page_local_q
_vm_page_local_q_count
_vm_page_local_q_hard_limit
_vm_page_local_q_soft_limit
_vm_page_locks
_vm_page_lookup
_vm_page_lookup_bucket_NULL
_vm_page_lookup_hint
_vm_page_lookup_hint_miss
_vm_page_lookup_hint_next
_vm_page_lookup_hint_prev
_vm_page_lookup_miss
_vm_page_lowest
_vm_page_lru
_vm_page_module_init
_vm_page_more_fictitious
_vm_page_pageable_external_count
_vm_page_pageable_internal_count
_vm_page_pages
_vm_page_part_copy
_vm_page_part_zero_fill
_vm_page_purgeable_count
_vm_page_purgeable_wired_count
_vm_page_purged_busy
_vm_page_purged_count
_vm_page_purged_others
_vm_page_purged_wired
_vm_page_queue_active
_vm_page_queue_anonymous
_vm_page_queue_cleaned
_vm_page_queue_free
_vm_page_queue_free_lock_ext
_vm_page_queue_inactive
_vm_page_queue_lock_ext
_vm_page_queue_speculative
_vm_page_queue_throttled
_vm_page_reactivate_all_throttled
_vm_page_reactivate_local
_vm_page_release
_vm_page_release_fictitious
_vm_page_remove
_vm_page_rename
_vm_page_replace
_vm_page_set_offset
_vm_page_slide
_vm_page_slide_counter
_vm_page_slide_errors
_vm_page_speculate
_vm_page_speculate_ageit
_vm_page_speculative_count
_vm_page_speculative_count_drift_max
_vm_page_speculative_count_drifts
_vm_page_speculative_percentage
_vm_page_speculative_q_age_ms
_vm_page_speculative_target
_vm_page_stats_reusable
_vm_page_steal_pageout_page
_vm_page_template
_vm_page_throttle_count
_vm_page_throttle_limit
_vm_page_throttled_count
_vm_page_unwire
_vm_page_validate_cs
_vm_page_validate_cs_mapped
_vm_page_wait
_vm_page_wire
_vm_page_wire_count
_vm_page_wire_count_initial
_vm_page_wire_count_warning
_vm_page_zero_fill
_vm_page_zone
_vm_pageclean_setup
_vm_pageout
_vm_pageout_active
_vm_pageout_active_busy
_vm_pageout_burst_active_throttle
_vm_pageout_burst_inactive_throttle
_vm_pageout_burst_wait
_vm_pageout_cache_evicted
_vm_pageout_catch_ups
_vm_pageout_cleaned_busy
_vm_pageout_cleaned_commit_reactivated
_vm_pageout_cleaned_fault_reactivated
_vm_pageout_cleaned_nolock
_vm_pageout_cleaned_reactivated
_vm_pageout_cleaned_reclaimed
_vm_pageout_cleaned_reference_reactivated
_vm_pageout_cleaned_volatile_reactivated
_vm_pageout_cluster
_vm_pageout_considered_page
_vm_pageout_considered_page_last
_vm_pageout_continue
_vm_pageout_deadlock_relief
_vm_pageout_deadlock_wait
_vm_pageout_dirty_no_pager
_vm_pageout_empty_wait
_vm_pageout_enqueued_cleaned
_vm_pageout_enqueued_cleaned_from_inactive_clean
_vm_pageout_enqueued_cleaned_from_inactive_dirty
_vm_pageout_freed_from_cleaned
_vm_pageout_freed_from_inactive_clean
_vm_pageout_freed_from_speculative
_vm_pageout_idle_wait
_vm_pageout_in_place
_vm_pageout_inactive
_vm_pageout_inactive_absent
_vm_pageout_inactive_anonymous
_vm_pageout_inactive_avoid
_vm_pageout_inactive_busy
_vm_pageout_inactive_clean
_vm_pageout_inactive_deactivated
_vm_pageout_inactive_dirty_external
_vm_pageout_inactive_dirty_internal
_vm_pageout_inactive_error
_vm_pageout_inactive_external_forced_jetsam_count
_vm_pageout_inactive_force_reclaim
_vm_pageout_inactive_forced
_vm_pageout_inactive_nolock
_vm_pageout_inactive_notalive
_vm_pageout_inactive_relief
_vm_pageout_inactive_throttled
_vm_pageout_inactive_used
_vm_pageout_initialize_page
_vm_pageout_internal_start
_vm_pageout_io_throttle
_vm_pageout_object_terminate
_vm_pageout_out_of_line
_vm_pageout_purged_objects
_vm_pageout_queue_external
_vm_pageout_queue_internal
_vm_pageout_reactivation_limit_exceeded
_vm_pageout_reserved_internal
_vm_pageout_reserved_really
_vm_pageout_scan
_vm_pageout_scan_active_throttle_success
_vm_pageout_scan_active_throttled
_vm_pageout_scan_burst_throttle
_vm_pageout_scan_deadlock_detected
_vm_pageout_scan_empty_throttle
_vm_pageout_scan_event_counter
_vm_pageout_scan_inactive_throttle_success
_vm_pageout_scan_inactive_throttled_external
_vm_pageout_scan_inactive_throttled_internal
_vm_pageout_scan_reclaimed_throttled
_vm_pageout_scan_swap_throttle
_vm_pageout_scan_throttle
_vm_pageout_scan_wants_object
_vm_pageout_speculative_clean
_vm_pageout_stat_now
_vm_pageout_stats
_vm_pageout_steal_laundry
_vm_pageout_swap_wait
_vm_pageout_throttle_up
_vm_pageout_throttle_up_count
_vm_pages
_vm_pages_count
_vm_pages_encrypted
_vm_paging_base_address
_vm_paging_lock
_vm_paging_map_init
_vm_paging_map_object
_vm_paging_max_index
_vm_paging_no_kernel_page
_vm_paging_objects_mapped
_vm_paging_objects_mapped_slow
_vm_paging_page_inuse
_vm_paging_page_waiter
_vm_paging_page_waiter_total
_vm_paging_pages_mapped
_vm_paging_pages_mapped_slow
_vm_paging_unmap_object
_vm_pmap_enter_blocked
_vm_pmap_enter_retried
_vm_pool_low
_vm_pressure_changed
_vm_pressure_init
_vm_pressure_klist
_vm_pressure_klist_dormant
_vm_pressure_klist_lock
_vm_pressure_klist_unlock
_vm_pressure_monitor
_vm_pressure_notification_without_levels
_vm_pressure_notify_dispatch_vm_clients
_vm_pressure_proc_cleanup
_vm_pressure_response
_vm_pressure_select_optimal_candidate_to_notify
_vm_pressure_thread
_vm_pressure_thread_running
_vm_protect
_vm_purgable_control
_vm_purgeable_disown
_vm_purgeable_object_add
_vm_purgeable_object_purge_all
_vm_purgeable_object_purge_one
_vm_purgeable_object_purge_one_unlocked
_vm_purgeable_object_remove
_vm_purgeable_q_advance_all
_vm_purgeable_queue_lock
_vm_purgeable_queue_lock_ext
_vm_purgeable_stats
_vm_purgeable_token_add
_vm_purgeable_token_delete_first
_vm_purgeable_token_delete_last
_vm_read
_vm_read_list
_vm_read_overwrite
_vm_region
_vm_region_64
_vm_region_object_create
_vm_region_recurse
_vm_region_recurse_64
_vm_remap
_vm_reset_active_list
_vm_scale
_vm_set_buffer_cleanup_callout
_vm_set_page_size
_vm_shared_region_base_address
_vm_shared_region_deallocate
_vm_shared_region_enter
_vm_shared_region_get
_vm_shared_region_get_slide
_vm_shared_region_get_slide_info
_vm_shared_region_get_slide_info_entry
_vm_shared_region_init
_vm_shared_region_lck_grp
_vm_shared_region_lock
_vm_shared_region_lookup
_vm_shared_region_map_file
_vm_shared_region_mem_entry
_vm_shared_region_queue
_vm_shared_region_set
_vm_shared_region_size
_vm_shared_region_slide
_vm_shared_region_slide_init
_vm_shared_region_slide_page
_vm_shared_region_slide_sanity_check
_vm_shared_region_sliding_valid
_vm_shared_region_start_address
_vm_shared_region_undo_mappings
_vm_shared_region_unnest_log_interval
_vm_stat_discard
_vm_stat_discard_cleared_reply
_vm_stat_discard_cleared_too_late
_vm_stat_discard_cleared_unset
_vm_stat_discard_failure
_vm_stat_discard_sent
_vm_stat_discard_throttle
_vm_submap_object
_vm_swap_consider_defragmenting
_vm_swap_create_file
_vm_swap_data_lock
_vm_swap_data_lock_attr
_vm_swap_data_lock_ext
_vm_swap_data_lock_grp
_vm_swap_data_lock_grp_attr
_vm_swap_decrypt
_vm_swap_defragment_busy
_vm_swap_defragment_free
_vm_swap_defragment_swapin
_vm_swap_defragment_yielded
_vm_swap_encrypt
_vm_swap_flush
_vm_swap_free
_vm_swap_free_delayed_count
_vm_swap_free_now_count
_vm_swap_get
_vm_swap_get_failures
_vm_swap_get_free_space
_vm_swap_get_total_space
_vm_swap_get_used_space
_vm_swap_init
_vm_swap_put
_vm_swap_put_failures
_vm_swap_reclaim
_vm_swap_reclaim_yielded
_vm_swap_up
_vm_swapfile_close
_vm_swapfile_for_handle
_vm_swapfile_get_blksize
_vm_swapfile_get_transfer_size
_vm_swapfile_io
_vm_swapfile_last_failed_to_create_ts
_vm_swapfile_mgmt_needed
_vm_swapfile_mgmt_thread_awakened
_vm_swapfile_mgmt_thread_running
_vm_swapfile_open
_vm_swapfile_preallocate
_vm_swapfile_total_segs_alloced
_vm_swapfile_total_segs_used
_vm_swapout_thread_awakened
_vm_swapout_thread_id
_vm_swapout_thread_processed_segments
_vm_toggle_entry_reuse
_vm_upl_map
_vm_upl_unmap
_vm_upl_wait_for_pages
_vm_user_wire_limit
_vm_wake_compactor_swapper
_vm_wake_compactor_swapper_calls
_vm_wire
_vm_write
_vmem_alloc
_vmem_create
_vmem_destroy
_vmem_free
_vmx_exclusive
_vmx_get_specs
_vmx_paddr
_vmx_pcalloc
_vmx_pfree
_vmx_resume
_vmx_suspend
_vmx_use_count
_vn_attribute_cleanup
_vn_attribute_prepare
_vn_authorize_create
_vn_authorize_mkdir
_vn_authorize_open_existing
_vn_authorize_rename
_vn_authorize_rmdir
_vn_authorize_unlink
_vn_bwrite
_vn_checkunionwait
_vn_clearunionwait
_vn_close
_vn_create
_vn_default_error
_vn_getcdhash
_vn_getpath
_vn_getpath_fsenter
_vn_getxattr
_vn_listxattr
_vn_mkdir
_vn_open
_vn_open_auth
_vn_open_modflags
_vn_path_package_check
_vn_pathconf
_vn_rdwr
_vn_rdwr_64
_vn_remove
_vn_removexattr
_vn_rename
_vn_revoke
_vn_rmdir
_vn_searchfs_inappropriate_name
_vn_setlabel
_vn_setunionwait
_vn_setxattr
_vn_stat
_vn_stat_noauth
_vn_table
_vndevice_init
_vndevice_root_image
_vnode_addfsref
_vnode_async_work_list
_vnode_authattr
_vnode_authattr_new
_vnode_authorize
_vnode_authorize_delete
_vnode_authorize_init
_vnode_cache_authorized_action
_vnode_cache_is_authorized
_vnode_cache_is_stale
_vnode_clear_openevt
_vnode_clearfsnode
_vnode_clearmountedon
_vnode_clearnocache
_vnode_clearnoflush
_vnode_clearnoreadahead
_vnode_close
_vnode_compound_mkdir_available
_vnode_compound_op_available
_vnode_compound_open_available
_vnode_compound_remove_available
_vnode_compound_rename_available
_vnode_compound_rmdir_available
_vnode_create
_vnode_dead_list
_vnode_filtops
_vnode_flushnamedstream
_vnode_free_list
_vnode_fsnode
_vnode_get
_vnode_get_fse_info_from_vap
_vnode_get_locked
_vnode_getattr
_vnode_getiocount
_vnode_getname
_vnode_getname_printable
_vnode_getnamedstream
_vnode_getparent
_vnode_getwithref
_vnode_getwithvid
_vnode_getwithvid_drainok
_vnode_hascleanblks
_vnode_hasdirtyblks
_vnode_hasnamedstreams
_vnode_iftovt
_vnode_is_openevt
_vnode_isaliased
_vnode_isblk
_vnode_ischr
_vnode_isdir
_vnode_isdyldsharedcache
_vnode_isfifo
_vnode_isinuse
_vnode_islnk
_vnode_ismonitored
_vnode_ismount
_vnode_ismountedon
_vnode_isnamedstream
_vnode_isnocache
_vnode_isnoflush
_vnode_isnoreadahead
_vnode_israge
_vnode_isrecycled
_vnode_isreg
_vnode_isshadow
_vnode_issock
_vnode_isspec
_vnode_isstandard
_vnode_isswap
_vnode_issystem
_vnode_istty
_vnode_isvroot
_vnode_iterate
_vnode_label
_vnode_lck_attr
_vnode_lck_grp
_vnode_lck_grp_attr
_vnode_list_lck_attr
_vnode_list_lck_grp
_vnode_list_lck_grp_attr
_vnode_list_lock
_vnode_list_spin_lock
_vnode_list_unlock
_vnode_lock
_vnode_lock_spin
_vnode_lookup
_vnode_lookup_continue_needed
_vnode_makeimode
_vnode_makenamedstream
_vnode_mount
_vnode_mountedhere
_vnode_mtime
_vnode_needssnapshots
_vnode_notify
_vnode_object_create
_vnode_open
_vnode_pagein
_vnode_pageout
_vnode_pager_bootstrap
_vnode_pager_cluster_read
_vnode_pager_cluster_write
_vnode_pager_data_initialize
_vnode_pager_data_request
_vnode_pager_data_return
_vnode_pager_data_unlock
_vnode_pager_deallocate
_vnode_pager_get_cs_blobs
_vnode_pager_get_filesize
_vnode_pager_get_isSSD
_vnode_pager_get_isinuse
_vnode_pager_get_mtime
_vnode_pager_get_name
_vnode_pager_get_object_cs_blobs
_vnode_pager_get_object_mtime
_vnode_pager_get_object_name
_vnode_pager_get_object_size
_vnode_pager_get_object_vnode
_vnode_pager_get_throttle_io_limit
_vnode_pager_init
_vnode_pager_isSSD
_vnode_pager_isinuse
_vnode_pager_last_unmap
_vnode_pager_lookup
_vnode_pager_map
_vnode_pager_ops
_vnode_pager_reference
_vnode_pager_release_from_cache
_vnode_pager_return_throttle_io_limit
_vnode_pager_setup
_vnode_pager_shutdown
_vnode_pager_synchronize
_vnode_pager_terminate
_vnode_pager_throttle
_vnode_pager_zone
_vnode_parent
_vnode_put
_vnode_put_locked
_vnode_putname
_vnode_putname_printable
_vnode_rage_list
_vnode_reclaim
_vnode_recycle
_vnode_ref
_vnode_ref_ext
_vnode_relabel
_vnode_rele
_vnode_rele_ext
_vnode_rele_internal
_vnode_relenamedstream
_vnode_removefsref
_vnode_removenamedstream
_vnode_resume
_vnode_set_openevt
_vnode_setattr
_vnode_setattr_fallback
_vnode_setmountedon
_vnode_setmultipath
_vnode_setname
_vnode_setneedinactive
_vnode_setnocache
_vnode_setnoflush
_vnode_setnoreadahead
_vnode_setparent
_vnode_setsize
_vnode_settag
_vnode_size
_vnode_specrdev
_vnode_startwrite
_vnode_suspend
_vnode_tag
_vnode_trigger_update
_vnode_trim
_vnode_trim_list
_vnode_umount_preflight
_vnode_uncache_authorized_action
_vnode_uncache_credentials
_vnode_unlock
_vnode_update_identity
_vnode_verifynamedstream
_vnode_vfs64bitready
_vnode_vfscmdflags
_vnode_vfsfsprivate
_vnode_vfsisrdonly
_vnode_vfsmaxsymlen
_vnode_vfsname
_vnode_vfsstatfs
_vnode_vfstypenum
_vnode_vfsvisflags
_vnode_vid
_vnode_vttoif
_vnode_vtype
_vnode_waitforwrites
_vnode_writedone
_vnodetarget
_vnop_access_desc
_vnop_access_vp_offsets
_vnop_advlock_desc
_vnop_advlock_vp_offsets
_vnop_allocate_desc
_vnop_allocate_vp_offsets
_vnop_blktooff_desc
_vnop_blktooff_vp_offsets
_vnop_blockmap_desc
_vnop_blockmap_vp_offsets
_vnop_bwrite_desc
_vnop_bwrite_vp_offsets
_vnop_close_desc
_vnop_close_vp_offsets
_vnop_compound_mkdir_desc
_vnop_compound_mkdir_vp_offsets
_vnop_compound_open_desc
_vnop_compound_open_vp_offsets
_vnop_compound_remove_desc
_vnop_compound_rename_desc
_vnop_compound_rename_vp_offsets
_vnop_compound_rmdir_desc
_vnop_compound_rmdir_vp_offsets
_vnop_copyfile_desc
_vnop_copyfile_vp_offsets
_vnop_create_desc
_vnop_create_vp_offsets
_vnop_default_desc
_vnop_exchange_desc
_vnop_exchange_vp_offsets
_vnop_fsync_desc
_vnop_fsync_vp_offsets
_vnop_getattr_desc
_vnop_getattr_vp_offsets
_vnop_getnamedstream_desc
_vnop_getnamedstream_vp_offsets
_vnop_getxattr_desc
_vnop_inactive_desc
_vnop_inactive_vp_offsets
_vnop_ioctl_desc
_vnop_ioctl_vp_offsets
_vnop_kqfilt_add_desc
_vnop_kqfilt_add_vp_offsets
_vnop_kqfilt_remove_desc
_vnop_kqfilt_remove_vp_offsets
_vnop_link_desc
_vnop_link_vp_offsets
_vnop_listxattr_desc
_vnop_lookup_desc
_vnop_lookup_vp_offsets
_vnop_makenamedstream_desc
_vnop_makenamedstream_vp_offsets
_vnop_mkdir_desc
_vnop_mkdir_vp_offsets
_vnop_mknod_desc
_vnop_mknod_vp_offsets
_vnop_mmap_desc
_vnop_mmap_vp_offsets
_vnop_mnomap_desc
_vnop_mnomap_vp_offsets
_vnop_monitor_desc
_vnop_monitor_vp_offsets
_vnop_offtoblk_desc
_vnop_offtoblk_vp_offsets
_vnop_open_desc
_vnop_open_vp_offsets
_vnop_pagein_desc
_vnop_pagein_vp_offsets
_vnop_pageout_desc
_vnop_pageout_vp_offsets
_vnop_pathconf_desc
_vnop_pathconf_vp_offsets
_vnop_read_desc
_vnop_read_vp_offsets
_vnop_readdir_desc
_vnop_readdir_vp_offsets
_vnop_readdirattr_desc
_vnop_readdirattr_vp_offsets
_vnop_readlink_desc
_vnop_readlink_vp_offsets
_vnop_reclaim_desc
_vnop_reclaim_vp_offsets
_vnop_remove_desc
_vnop_remove_extended_vp_offsets
_vnop_remove_vp_offsets
_vnop_removenamedstream_desc
_vnop_removenamedstream_vp_offsets
_vnop_removexattr_desc
_vnop_rename_desc
_vnop_rename_vp_offsets
_vnop_revoke_desc
_vnop_revoke_vp_offsets
_vnop_rmdir_desc
_vnop_rmdir_vp_offsets
_vnop_searchfs_desc
_vnop_searchfs_vp_offsets
_vnop_select_desc
_vnop_select_vp_offsets
_vnop_setattr_desc
_vnop_setattr_vp_offsets
_vnop_setlabel_desc
_vnop_setlabel_vp_offsets
_vnop_setxattr_desc
_vnop_strategy_desc
_vnop_strategy_vp_offsets
_vnop_symlink_desc
_vnop_symlink_vp_offsets
_vnop_whiteout_desc
_vnop_whiteout_vp_offsets
_vnop_write_desc
_vnop_write_vp_offsets
_vnops
_vop_getxattr_vp_offsets
_vop_listxattr_vp_offsets
_vop_removexattr_vp_offsets
_vop_setxattr_vp_offsets
_vprint
_vprintf
_vproc_exit
_vs_alloc_async
_vs_alloc_async_count
_vs_alloc_async_failed
_vs_async_free_list
_vs_cl_write_complete
_vs_cluster_transfer
_vs_cluster_write
_vs_do_async_write
_vs_free_async
_vs_get_map_entry
_vs_object_create
_vslock
_vsnprintf
_vsprintf
_vsscanf
_vstart
_vstruct_def_clshift
_vstruct_list
_vstruct_zone
_vsunlock
_vtonfs_type
_vtonfsv2_mode
_vttoif_tab
_vuprintf
_wait1continue
_wait4
_wait4_nocancel
_wait_queue_alloc
_wait_queue_assert_wait
_wait_queue_assert_wait64
_wait_queue_assert_wait64_with_leeway
_wait_queue_assert_wait_with_leeway
_wait_queue_bootstrap
_wait_queue_free
_wait_queue_init
_wait_queue_link
_wait_queue_link_allocate
_wait_queue_link_free
_wait_queue_link_noalloc
_wait_queue_link_size
_wait_queue_member
_wait_queue_pull_thread_locked
_wait_queue_set_alloc
_wait_queue_set_free
_wait_queue_set_init
_wait_queue_set_size
_wait_queue_set_unlink_all
_wait_queue_set_unlink_all_nofree
_wait_queue_set_unlink_one
_wait_queue_sub_clearrefs
_wait_queue_sub_init
_wait_queue_unlink
_wait_queue_unlink_all
_wait_queue_unlink_all_nofree
_wait_queue_unlink_nofree
_wait_queue_wakeup64_all
_wait_queue_wakeup64_one
_wait_queue_wakeup64_thread
_wait_queue_wakeup_all
_wait_queue_wakeup_one
_wait_queue_wakeup_thread
_wait_subqueue_unlink_all
_waitevent
_waitevent_close
_waitid
_waitid_nocancel
_waitidcontinue
_wake_nkdbufs
_wakeup
_wakeup_one
_watchevent
_workq_kernreturn
_workq_open
_workqueue_destroy_lock
_workqueue_exit
_workqueue_get_sched_callback
_workqueue_init_lock
_workqueue_mark_exiting
_workqueue_thread_yielded
_wpkernel
_wr_uio
_write
_write_buffer
_write_nocancel
_writev
_writev_nocancel
_wrmsr_carefully
_x86_64_post_sleep
_x86_64_pre_sleep
_x86_affinities
_x86_filter_TLB_coherency_interrupts
_x86_init_wrapper
_x86_pkgs
_x86_set_logical_topology
_x86_topo_lock
_x86_validate_topology
_xattr_protected
_xattr_validatename
_xb_add_bytes
_xb_advance
_xb_buffer_base
_xb_cleanup
_xb_free
_xb_get_bytes
_xb_grow
_xb_init
_xb_init_buffer
_xb_malloc
_xb_offset
_xb_seek
_xb_set_cur_buf_len
_xts_decrypt
_xts_done
_xts_encrypt
_xts_start
_zError
_z_alloc_collisions
_z_alloc_overwrites
_z_alloc_recorded
_z_crc32
_z_crc32_combine
_z_errmsg
_z_total_conflicts
_z_trace_collisions
_z_trace_overwrites
_z_trace_recorded
_zalloc
_zalloc_async
_zalloc_canblock
_zalloc_debug
_zalloc_noblock
_zcram
_zdata
_zdata_size
_zfill
_zfree
_zgc_stats
_zget
_zinfo_per_task
_zinfo_task_free
_zinfo_task_init
_zinfo_zone
_zinit
_zleak_activate
_zleak_alloc_buckets
_zleak_global_tracking_threshold
_zleak_max_zonemap_size
_zleak_per_zone_tracking_threshold
_zleak_sample_factor
_zleak_state
_zleak_trace_buckets
_zlibCompileFlags
_zlibVersion
_zlog_ready
_zombproc
_zone_bootstrap
_zone_change
_zone_check
_zone_display_zprint
_zone_find_largest
_zone_free_count
_zone_gc
_zone_gc_allowed
_zone_gc_allowed_by_time_throttle
_zone_gc_forced
_zone_gc_lck_attr
_zone_gc_lck_ext
_zone_gc_lck_grp
_zone_gc_lck_grp_attr
_zone_gc_lock
_zone_init
_zone_locks_grp
_zone_locks_grp_attr
_zone_map
_zone_map_max_address
_zone_map_min_address
_zone_map_table_page_count
_zone_page_alloc
_zone_page_collect
_zone_page_collectable
_zone_page_free_element
_zone_page_init
_zone_page_keep
_zone_page_table
_zone_page_table_expand
_zone_page_table_lookup
_zone_page_table_second_level_shift_amount
_zone_page_table_second_level_size
_zone_page_table_used_size
_zone_pages
_zone_prio_refill_configure
_zone_replenish_loops
_zone_replenish_throttle_count
_zone_replenish_wakeups
_zone_replenish_wakeups_initiated
_zone_steal_memory
_zone_zone
_zp_factor
_zp_nopoison_cookie
_zp_poisoned_cookie
_zp_tiny_zone_limit
